
Networking.elf:     file format elf32-littleriscv
Networking.elf
architecture: riscv:rv32, flags 0x00000112:
EXEC_P, HAS_SYMS, D_PAGED
start address 0x00000000

Program Header:
    LOAD off    0x00001000 vaddr 0x00000000 paddr 0x00000000 align 2**12
         filesz 0x0000cb98 memsz 0x0000cb98 flags r-x
    LOAD off    0x0000e000 vaddr 0x20000000 paddr 0x0000cb98 align 2**12
         filesz 0x000000f0 memsz 0x00000900 flags rw-
    LOAD off    0x0000e800 vaddr 0x20007800 paddr 0x20007800 align 2**12
         filesz 0x00000000 memsz 0x00000800 flags rw-

Sections:
Idx Name          Size      VMA       LMA       File off  Algn
  0 .init         00000004  00000000  00000000  00001000  2**1
                  CONTENTS, ALLOC, LOAD, READONLY, CODE
  1 .vector       000001bc  00000004  00000004  00001004  2**1
                  CONTENTS, ALLOC, LOAD, READONLY, CODE
  2 .text         0000c9d8  000001c0  000001c0  000011c0  2**3
                  CONTENTS, ALLOC, LOAD, READONLY, CODE
  3 .fini         00000000  0000cb98  0000cb98  0000e0f0  2**0
                  CONTENTS, ALLOC, LOAD, CODE
  4 .dalign       00000000  20000000  20000000  0000e0f0  2**0
                  CONTENTS
  5 .dlalign      00000000  0000cb98  0000cb98  0000e0f0  2**0
                  CONTENTS
  6 .data         000000f0  20000000  0000cb98  0000e000  2**2
                  CONTENTS, ALLOC, LOAD, DATA
  7 .bss          00000810  200000f0  0000cc88  0000e0f0  2**2
                  ALLOC
  8 .stack        00000800  20007800  20007800  0000e800  2**0
                  ALLOC
  9 .debug_info   0001fffb  00000000  00000000  0000e0f0  2**0
                  CONTENTS, READONLY, DEBUGGING
 10 .debug_abbrev 0000598c  00000000  00000000  0002e0eb  2**0
                  CONTENTS, READONLY, DEBUGGING
 11 .debug_aranges 00000ce0  00000000  00000000  00033a78  2**3
                  CONTENTS, READONLY, DEBUGGING
 12 .debug_ranges 00000ff8  00000000  00000000  00034758  2**3
                  CONTENTS, READONLY, DEBUGGING
 13 .debug_line   000191a7  00000000  00000000  00035750  2**0
                  CONTENTS, READONLY, DEBUGGING
 14 .debug_str    000047da  00000000  00000000  0004e8f7  2**0
                  CONTENTS, READONLY, DEBUGGING
 15 .comment      00000033  00000000  00000000  000530d1  2**0
                  CONTENTS, READONLY
 16 .debug_frame  00002930  00000000  00000000  00053104  2**2
                  CONTENTS, READONLY, DEBUGGING
 17 .debug_loc    00006c1e  00000000  00000000  00055a34  2**0
                  CONTENTS, READONLY, DEBUGGING
SYMBOL TABLE:
00000000 l    d  .init	00000000 .init
00000004 l    d  .vector	00000000 .vector
000001c0 l    d  .text	00000000 .text
0000cb98 l    d  .fini	00000000 .fini
20000000 l    d  .dalign	00000000 .dalign
0000cb98 l    d  .dlalign	00000000 .dlalign
20000000 l    d  .data	00000000 .data
200000f0 l    d  .bss	00000000 .bss
20007800 l    d  .stack	00000000 .stack
00000000 l    d  .debug_info	00000000 .debug_info
00000000 l    d  .debug_abbrev	00000000 .debug_abbrev
00000000 l    d  .debug_aranges	00000000 .debug_aranges
00000000 l    d  .debug_ranges	00000000 .debug_ranges
00000000 l    d  .debug_line	00000000 .debug_line
00000000 l    d  .debug_str	00000000 .debug_str
00000000 l    d  .comment	00000000 .comment
00000000 l    d  .debug_frame	00000000 .debug_frame
00000000 l    d  .debug_loc	00000000 .debug_loc
00000000 l    df *ABS*	00000000 ./Startup/startup_ch32v30x_D8C.o
00000004 l       .vector	00000000 _vector_base
00000000 l    df *ABS*	00000000 ch32v30x_it.c
00000000 l    df *ABS*	00000000 main.c
00000000 l    df *ABS*	00000000 system_ch32v30x.c
00000000 l    df *ABS*	00000000 ch32v30x_can.c
00000000 l    df *ABS*	00000000 ch32v30x_dbgmcu.c
00000000 l    df *ABS*	00000000 ch32v30x_dma.c
00000000 l    df *ABS*	00000000 ch32v30x_exti.c
00000000 l    df *ABS*	00000000 ch32v30x_gpio.c
00000000 l    df *ABS*	00000000 ch32v30x_misc.c
00000000 l    df *ABS*	00000000 ch32v30x_rcc.c
20000010 l     O .data	00000010 APBAHBPrescTable
20000084 l     O .data	00000004 ADCPrescTable
00000000 l    df *ABS*	00000000 ch32v30x_tim.c
00000000 l    df *ABS*	00000000 ch32v30x_usart.c
00000000 l    df *ABS*	00000000 new.c
000015e0 l     F .text	0000006c print_joint_angles
0000164c l     F .text	0000017c start_return_delay
000017c8 l     F .text	000000a0 calculate_z_compensation
00001868 l     F .text	000000ae switch_mode
200000f8 l     O .bss	00000004 acc_LED.5799
200000fc l     O .bss	00000004 acc_circle.5823
20000100 l     O .bss	00000004 acc_flame.5826
20000104 l     O .bss	00000004 acc_lr.5824
20000108 l     O .bss	00000004 acc_return.5827
2000010c l     O .bss	00000004 acc_ud.5825
20000110 l     O .bss	00000004 acc_yuyin.5803
20000114 l     O .bss	00000001 angle_idx.5884
2000011c l     O .bss	00000001 circle_move_flag
2000011d l     O .bss	00000001 current_point
2000011e l     O .bss	00000001 cycle_complete
20000120 l     O .bss	00000001 lan_jici.5800
20000124 l     O .bss	00000004 last_compensated_jiuli.5789
20000128 l     O .bss	00000004 last_error
2000012c l     O .bss	00000004 last_last_error
20000130 l     O .bss	00000001 lr_move_flag
20000131 l     O .bss	00000001 mode_circle
20000132 l     O .bss	00000001 mode_lr
20000133 l     O .bss	00000001 mode_ud
20000136 l     O .bss	00000001 return_delay_flag
20000137 l     O .bss	00000001 return_in_progress
20000138 l     O .bss	00000001 return_type
2000013c l     O .bss	00000004 run_angle
20000140 l     O .bss	00000001 start_flag
20000144 l     O .bss	00000004 t_10ms.5822
20000148 l     O .bss	00000001 time_delay_100ms
20000149 l     O .bss	00000001 timer_running_circle
2000014a l     O .bss	00000001 timer_running_lr
2000014b l     O .bss	00000001 timer_running_ud
2000014c l     O .bss	00000004 ud_interp_count
20000150 l     O .bss	00000001 ud_move_flag
20000154 l     O .bss	00000004 ud_traj_step
20000088 l     O .data	00000004 OK_flag.5804
20000090 l     O .data	00000004 is_first_call.5790
20000094 l     O .data	00000001 last_yuyin_flag.5805
20000095 l     O .data	00000001 mode_hover
00000000 l    df *ABS*	00000000 debug.c
20000158 l     O .bss	00000002 p_ms
2000015a l     O .bss	00000001 p_us
00000000 l    df *ABS*	00000000 arm.c
0000342e l     F .text	000000de fast_sin_cos
2000017c l     O .bss	00000004 prev_J1.5671
20000180 l     O .bss	00000004 prev_J2.5672
20000184 l     O .bss	00000004 prev_J3.5673
20000188 l     O .bss	00000004 prev_J4.5674
2000018c l     O .bss	00000004 prev_J5.5675
200000b8 l     O .data	00000001 first_run.5676
00000000 l    df *ABS*	00000000 wt61.c
2000019c l     O .bss	00000001 count.5680
00000000 l    df *ABS*	00000000 tof.c
200002f0 l     O .bss	00000010 tof_buffer
2000019d l     O .bss	00000001 buffer_index
2000019e l     O .bss	00000001 init_count
200001a0 l     O .bss	00000004 last_valid_value
00000000 l    df *ABS*	00000000 sw.c
200000c0 l     O .data	00000001 jici.5300
00000000 l    df *ABS*	00000000 step.c
00000000 l    df *ABS*	00000000 lcd.c
00000000 l    df *ABS*	00000000 ir.c
200001de l     O .bss	00000001 state.5258
00000000 l    df *ABS*	00000000 bldc.c
00000000 l    df *ABS*	00000000 uart.c
00000000 l    df *ABS*	00000000 uart_dma.c
00000000 l    df *ABS*	00000000 tim.c
00000000 l    df *ABS*	00000000 sw_gpio.c
00000000 l    df *ABS*	00000000 exti.c
00000000 l    df *ABS*	00000000 can.c
00000000 l    df *ABS*	00000000 s_cos.c
00000000 l    df *ABS*	00000000 s_sin.c
00000000 l    df *ABS*	00000000 sf_cos.c
00000000 l    df *ABS*	00000000 wf_atan2.c
00000000 l    df *ABS*	00000000 wf_sqrt.c
00000000 l    df *ABS*	00000000 e_rem_pio2.c
0000c2d8 l     O .text	00000080 npio2_hw
0000c358 l     O .text	00000108 two_over_pi
00000000 l    df *ABS*	00000000 ef_atan2.c
00000000 l    df *ABS*	00000000 ef_rem_pio2.c
0000c498 l     O .text	00000080 npio2_hw
0000c518 l     O .text	00000318 two_over_pi
00000000 l    df *ABS*	00000000 ef_sqrt.c
00000000 l    df *ABS*	00000000 k_cos.c
00000000 l    df *ABS*	00000000 k_rem_pio2.c
0000c878 l     O .text	00000040 PIo2
0000c8d0 l     O .text	00000010 init_jk
00000000 l    df *ABS*	00000000 k_sin.c
00000000 l    df *ABS*	00000000 kf_cos.c
00000000 l    df *ABS*	00000000 kf_rem_pio2.c
0000c930 l     O .text	0000002c PIo2
0000c968 l     O .text	0000000c init_jk
00000000 l    df *ABS*	00000000 kf_sin.c
00000000 l    df *ABS*	00000000 s_fabs.c
00000000 l    df *ABS*	00000000 s_floor.c
00000000 l    df *ABS*	00000000 s_matherr.c
00000000 l    df *ABS*	00000000 s_scalbn.c
00000000 l    df *ABS*	00000000 sf_atan.c
0000c9e4 l     O .text	00000010 atanhi
0000c9f4 l     O .text	00000010 atanlo
00000000 l    df *ABS*	00000000 sf_fabs.c
00000000 l    df *ABS*	00000000 sf_floor.c
00000000 l    df *ABS*	00000000 sf_scalbn.c
00000000 l    df *ABS*	00000000 s_copysign.c
00000000 l    df *ABS*	00000000 sf_copysign.c
00000000 l    df *ABS*	00000000 printfloat.c
00000000 l    df *ABS*	00000000 libgcc2.c
00000000 l    df *ABS*	00000000 libgcc2.c
00000000 l    df *ABS*	00000000 adddf3.c
00000000 l    df *ABS*	00000000 divdf3.c
00000000 l    df *ABS*	00000000 eqdf2.c
00000000 l    df *ABS*	00000000 gedf2.c
00000000 l    df *ABS*	00000000 ledf2.c
00000000 l    df *ABS*	00000000 muldf3.c
00000000 l    df *ABS*	00000000 subdf3.c
00000000 l    df *ABS*	00000000 fixdfsi.c
00000000 l    df *ABS*	00000000 floatsidf.c
00000000 l    df *ABS*	00000000 fixdfdi.c
00000000 l    df *ABS*	00000000 floatdidf.c
00000000 l    df *ABS*	00000000 extendsfdf2.c
00000000 l    df *ABS*	00000000 truncdfsf2.c
00000000 l    df *ABS*	00000000 libgcc2.c
00000000 l    df *ABS*	00000000 errno.c
00000000 l    df *ABS*	00000000 memcpy.c
00000000 l    df *ABS*	00000000 strlen.c
00000000 l    df *ABS*	00000000 libgcc2.c
00000000 l    df *ABS*	00000000 impure.c
20000020 l     O .data	00000060 impure_data
00000000 l    df *ABS*	00000000 s_lib_ver.c
0000800c  w    F .text	00000100 printDouble
000005d8  w      .text	00000000 EXTI2_IRQHandler
000005d8  w      .text	00000000 TIM8_TRG_COM_IRQHandler
000046d2 g     F .text	0000009e CAN_BLDC_POS_CONTROL
000005d8  w      .text	00000000 TIM8_CC_IRQHandler
00004770 g     F .text	0000010a USART23_CFG
2000008d g     O .data	00000001 RGB_LED_MODE_BACKUP
200001a4 g     O .bss	00000001 direction_5
00007638 g     F .text	00000006 fabs
00000e5e g     F .text	00000014 DMA_Cmd
00003b2c g     F .text	000000ac filtered_tof
000005d8  w      .text	00000000 UART8_IRQHandler
00009e10 g     F .text	00000098 .hidden __eqdf2
0000810c  w    F .text	00000358 print
0000b36e g     F .text	0000021c .hidden __floatdidf
00008464  w    F .text	00000024 printf
20000880 g       .data	00000000 __global_pointer$
000001c8 g     F .text	00000028 .hidden __riscv_save_8
000005d8  w      .text	00000000 TIM1_CC_IRQHandler
200000d8 g     O .data	00000001 direction_1
000002ca g     F .text	00000010 HardFault_Handler
00000b4c g     F .text	000000d0 CAN_GetITStatus
00000c1c g     F .text	00000094 CAN_ClearITPendingBit
20000200 g     O .bss	000000f0 points
00007dfa  w    F .text	000000f2 printInt
000019cc g     F .text	00000036 update_range_status
00000214 g     F .text	0000000c .hidden __riscv_restore_3
000005d8  w      .text	00000000 TIM6_IRQHandler
000005d8  w      .text	00000000 SysTick_Handler
200001f0 g     O .bss	00000004 time_125us
00001126 g     F .text	0000005c NVIC_Init
000005d8  w      .text	00000000 PVD_IRQHandler
000005d8  w      .text	00000000 SDIO_IRQHandler
000005d8  w      .text	00000000 TIM9_BRK_IRQHandler
00000200 g     F .text	00000020 .hidden __riscv_restore_10
00008488 g     F .text	0000002a snprintf
000005d8  w      .text	00000000 DMA2_Channel8_IRQHandler
000002c8 g     F .text	00000002 NMI_Handler
00000a20 g     F .text	00000062 CAN_TransmitStatus
200001cc g     O .bss	00000004 n7
000005d8  w      .text	00000000 CAN2_RX1_IRQHandler
000005d8  w      .text	00000000 EXTI3_IRQHandler
200000dc g     O .data	00000002 speed_4
00001b12 g     F .text	0000016c yunyin_run
000001c8 g     F .text	00000028 .hidden __riscv_save_11
00000cb0 g     F .text	0000000a DBGMCU_GetCHIPID
00009ea8 g     F .text	000000b6 .hidden __gtdf2
0000b9fe g     F .text	00000008 __errno
200008e8 g     O .bss	00000018 CANFilterStruct
00005c32 g     F .text	000002b6 __ieee754_rem_pio2f
200000b4 g     O .data	00000004 bu_chang
000005d8  w      .text	00000000 USBHS_IRQHandler
200001e0 g     O .bss	00000004 frame_ready
200000d0 g     O .data	00000004 angle_to_pulse_5
0000159a g     F .text	0000000a USART_GetFlagStatus
000005d8  w      .text	00000000 DMA2_Channel9_IRQHandler
000005d8  w      .text	00000000 TIM10_CC_IRQHandler
0000763e g     F .text	00000158 floor
200000f0 g       .bss	00000000 _sbss
00000800 g       *ABS*	00000000 __stack_size
200001dc g     O .bss	00000001 ir_command_inv
00003390 g     F .text	00000060 USART_Printf_Init
00000b0e g     F .text	00000016 CAN_FIFORelease
00000e26 g     F .text	00000038 DMA_Init
000005d8  w      .text	00000000 USBFS_IRQHandler
000050a4 g     F .text	00000094 CAN_ReceiveViaSoftFilter
200000c3 g     O .data	00000001 acceleration_5
00001fb8 g     F .text	0000005e RUN_TIME_MINUS
20000178 g     O .bss	00000004 Z_IN
00005560 g     F .text	000000a8 sqrtf
00000214 g     F .text	0000000c .hidden __riscv_restore_2
00004656 g     F .text	0000001a float_to_bytes
00004e14 g     F .text	00000074 TIM1_INT_Init
00004b72 g     F .text	0000003e ring_buffer_pop
20000460 g     O .bss	00000080 g_rx_data_buffer
00005608 g     F .text	00000466 __ieee754_rem_pio2
00001f5c g     F .text	0000005c RUN_TIME_ADD
0000ba06 g     F .text	000000b2 memcpy
200000a4 g     O .data	00000004 A3
200001b8 g     O .bss	00000004 n2
200001b4 g     O .bss	00000004 n11
00001024 g     F .text	000000d6 GPIO_PinRemapConfig
0000b1ce g     F .text	00000070 .hidden __floatsidf
00007eec  w    F .text	00000120 printLongLongInt
00009f5e g     F .text	000000b6 .hidden __ltdf2
00000664 g     F .text	00000038 CAN_SlaveStartBank
000005d8  w      .text	00000000 EXTI0_IRQHandler
000005d8  w      .text	00000000 I2C2_EV_IRQHandler
000005d8  w      .text	00000000 TIM10_TRG_COM_IRQHandler
2000035c g     O .bss	00000101 USART_DMA_CTRL
00001440 g     F .text	00000018 TIM_Cmd
000084b2  w    F .text	0000004a puts
200000d9 g     O .data	00000001 direction_4
20000164 g     O .bss	00000004 J3_global
20000080 g     O .data	00000004 SystemCoreClock
00001592 g     F .text	00000008 USART_ReceiveData
000039e6 g     F .text	00000054 crc16_modbus
00000004 g       .init	00000000 _einit
200001c8 g     O .bss	00000004 n6
200001f4 g     O .bss	00000008 canexbuf_interrupt
00001492 g     F .text	0000000c TIM_ClearITPendingBit
00000e84 g     F .text	00000004 DMA_SetCurrDataCounter
00005fb4 g     F .text	000002b8 __kernel_cos
00001316 g     F .text	0000001e RCC_APB2PeriphClockCmd
000001c0 g     F .text	00000030 .hidden __riscv_save_12
000005d8  w      .text	00000000 CAN2_SCE_IRQHandler
000005d8  w      .text	00000000 ADC1_2_IRQHandler
00000f50 g     F .text	000000c0 GPIO_Init
000005d8  w      .text	00000000 Break_Point_Handler
00002016 g     F .text	00000056 PID_five_motor
200000de g     O .data	00000002 speed_5
00000200 g     F .text	00000020 .hidden __riscv_restore_11
200000f0 g     O .bss	00000004 NVIC_Priority_Group
000005d8  w      .text	00000000 SPI1_IRQHandler
0000152c g     F .text	00000016 USART_Cmd
20000300 g     O .bss	00000020 bits
00004fd6 g     F .text	0000006c EXTI0_INT_INIT
000005d8  w      .text	00000000 TAMPER_IRQHandler
000001f0 g     F .text	0000000c .hidden __riscv_save_1
00000214 g     F .text	0000000c .hidden __riscv_restore_0
00007ade g     F .text	0000000e fabsf
2000016c g     O .bss	00000004 J5_global
000001d6 g     F .text	0000001a .hidden __riscv_save_7
00003a3a g     F .text	00000044 verify_crc16_modbus
000005d8  w      .text	00000000 CAN2_RX0_IRQHandler
00001a32 g     F .text	000000e0 RGB_RUN
00000eb4 g     F .text	0000000a DMA_ClearITPendingBit
00004486 g     F .text	0000007c LCD_ReceiveTask
200000c4 g     O .data	00000001 acceleration_6
00006bc0 g     F .text	0000019a __kernel_sin
0000b58a g     F .text	000000e8 .hidden __extendsfdf2
000005d8  w      .text	00000000 TIM8_UP_IRQHandler
00001334 g     F .text	0000001e RCC_APB1PeriphClockCmd
00008c18 g     F .text	00000a0e .hidden __adddf3
000005d8  w      .text	00000000 Ecall_M_Mode_Handler
20007800 g       .stack	00000000 _heap_end
0000888e g     F .text	0000038a .hidden __umoddi3
200000e8 g     O .data	00000004 __fdlib_version
00003c8a g     F .text	000000a2 delay_850ns
00003324 g     F .text	00000036 Delay_Us
0000020a g     F .text	00000016 .hidden __riscv_restore_5
00007596 g     F .text	000000a2 __kernel_sinf
200000ac g     O .data	00000004 A5
000005d8  w      .text	00000000 DMA2_Channel2_IRQHandler
000012f8 g     F .text	0000001e RCC_AHBPeriphClockCmd
000084fc g     F .text	00000392 .hidden __udivdi3
000005d8  w      .text	00000000 DMA1_Channel4_IRQHandler
20000190 g     O .bss	00000004 Pitch_angle
00003e86 g     F .text	00000060 ws2812_write_byte
00001ed8 g     F .text	00000084 RUN_START
000054e2 g     F .text	0000007c cosf
200001dd g     O .bss	00000001 ir_frame_ready
000005d8  w      .text	00000000 TIM9_UP_IRQHandler
0000020a g     F .text	00000016 .hidden __riscv_restore_6
0000487a g     F .text	0000007e USART3_IRQHandler
00000f46 g     F .text	0000000a EXTI_ClearITPendingBit
200001d4 g     O .bss	00000004 n9
200001b0 g     O .bss	00000004 n10
0000626c g     F .text	00000954 __kernel_rem_pio2
000005d8  w      .text	00000000 RTC_IRQHandler
20000900 g       .bss	00000000 _ebss
00001916 g     F .text	00000064 clamp_coordinates
000015a4 g     F .text	0000003c USART_GetITStatus
000005d8  w      .text	00000000 DMA1_Channel7_IRQHandler
000005d8  w      .text	00000000 CAN1_RX1_IRQHandler
000043f4 g     F .text	00000092 LCD_SendTask
0000b0f6 g     F .text	000000d8 .hidden __fixdfsi
000032fa g     F .text	0000002a Delay_Init
200000da g     O .data	00000002 speed_1
000005d8  w      .text	00000000 DVP_IRQHandler
000005d8  w      .text	00000000 UART5_IRQHandler
0000197a g     F .text	00000052 check_coordinate_range
00006d5a g     F .text	00000140 __kernel_cosf
00001a02 g     F .text	00000030 smooth_s_curve
000005d8  w      .text	00000000 TIM4_IRQHandler
00009f5e g     F .text	000000b6 .hidden __ledf2
000001c8 g     F .text	00000028 .hidden __riscv_save_9
0000101a g     F .text	0000000a GPIO_WriteBit
000005d8  w      .text	00000000 DMA2_Channel1_IRQHandler
000001d6 g     F .text	0000001a .hidden __riscv_save_4
000005d8  w      .text	00000000 I2C1_EV_IRQHandler
000052da g     F .text	00000048 CAN_Receive_Msg
0000147a g     F .text	00000018 TIM_GetITStatus
200001a5 g     O .bss	00000001 direction_6
00001182 g     F .text	00000176 RCC_GetClocksFreq
000038be g     F .text	000000c4 parse_wt_protocol
000005d8  w      .text	00000000 DMA1_Channel6_IRQHandler
0000b990 g     F .text	0000006e .hidden __clzsi2
000053c0 g     F .text	00000090 cos
000005d8  w      .text	00000000 UART4_IRQHandler
000005d8  w      .text	00000000 DMA2_Channel4_IRQHandler
0000149e g     F .text	0000008e USART_Init
00001c7e g     F .text	000001e2 TIM3_IRQHandler
000005d8  w      .text	00000000 RCC_IRQHandler
00000a82 g     F .text	0000008c CAN_Receive
000001f0 g     F .text	0000000c .hidden __riscv_save_3
000005d8  w      .text	00000000 TIM1_TRG_COM_IRQHandler
0000069c g     F .text	000002c8 CAN_Init
00004a3c g     F .text	0000009a DMA_INIT
000005d8  w      .text	00000000 DMA1_Channel1_IRQHandler
00000000 g       .init	00000000 _start
000005d8  w      .text	00000000 DMA2_Channel7_IRQHandler
20000000 g     O .data	00000010 AHBPrescTable
00005450 g     F .text	00000092 sin
200000d4 g     O .data	00000004 angle_to_pulse_6
00007d1a  w    F .text	000000e0 prints
00004f2c g     F .text	000000aa EXTI15_10_IRQHandler
20000118 g     O .bss	00000004 cebai_angle
00001458 g     F .text	00000012 TIM_ITConfig
200001da g     O .bss	00000001 ir_address_inv
200000bc g     O .data	00000004 tolerance
200001ac g     O .bss	00000004 n1
00001542 g     F .text	00000036 USART_ITConfig
00000ebe g     F .text	0000006a EXTI_Init
20000168 g     O .bss	00000004 J4_global
200000c2 g     O .data	00000001 acceleration_4
200000c1 g     O .data	00000001 acceleration_1
200001c0 g     O .bss	00000004 n4
00003f0a g     F .text	000000e2 yuyin_gpio
00001e60 g     F .text	00000078 RUN_ZERO
000005d8  w      .text	00000000 TIM7_IRQHandler
000005d8  w      .text	00000000 CAN2_TX_IRQHandler
00003e26 g     F .text	00000040 GPIO_Init2812
20000000 g       .dalign	00000000 _data_vma
0000499a g     F .text	000000a2 USARTx_CFG
000005d8  w      .text	00000000 TIM5_IRQHandler
200000a8 g     O .data	00000004 A4
00000b3a g     F .text	00000012 CAN_ITConfig
000005d8  w      .text	00000000 EXTI9_5_IRQHandler
00009626 g     F .text	000007ea .hidden __divdf3
000010fa g     F .text	0000002c GPIO_EXTILineConfig
0000a014 g     F .text	00000656 .hidden __muldf3
000001c8 g     F .text	00000028 .hidden __riscv_save_10
20000134 g     O .bss	00000001 out_of_range_flag
00003d2c g     F .text	000000fa delay_us
000005d8  w      .text	00000000 ETH_WKUP_IRQHandler
20000135 g     O .bss	00000001 point_count
0000020a g     F .text	00000016 .hidden __riscv_restore_4
2000011f g     O .bss	00000001 flame_flag
00000200 g     F .text	00000020 .hidden __riscv_restore_8
00007b9e g     F .text	00000100 scalbnf
000001d6 g     F .text	0000001a .hidden __riscv_save_6
00000f28 g     F .text	0000001e EXTI_GetITStatus
000005d8  w      .text	00000000 SPI2_IRQHandler
00005138 g     F .text	00000114 CAN_Mode_Init
00004096 g     F .text	00000076 GPIO_fan_flame_light
00000220 g     F .text	000000a8 memset
00005ee8 g     F .text	000000cc __ieee754_sqrtf
00000200 g     F .text	00000020 .hidden __riscv_restore_9
0000020a g     F .text	00000016 .hidden __riscv_restore_7
000002da g     F .text	000000d6 main
00004e88 g     F .text	0000006e TIM3_Init
20000160 g     O .bss	00000004 J2_global
20000170 g     O .bss	00000004 X_IN
200000a0 g     O .data	00000004 A2
000005d8  w      .text	00000000 TIM10_BRK_IRQHandler
000005d8  w      .text	00000000 TIM9_CC_IRQHandler
20000174 g     O .bss	00000004 Y_IN
00004ad6 g     F .text	0000009c ring_buffer_push_huge
00007796 g     F .text	00000004 matherr
000005d8  w      .text	00000000 DMA2_Channel5_IRQHandler
0000b672 g     F .text	0000031e .hidden __truncdfsf2
200001a8 g     O .bss	00000004 n0
0000146a g     F .text	00000010 TIM_InternalClockConfig
200001fc g     O .bss	00000001 interrupt_rx_flag
00004c90 g     F .text	000000ba DMA1_Channel5_IRQHandler
00000b24 g     F .text	00000016 CAN_MessagePending
2000015c g     O .bss	00000004 J1_global
000005d8  w      .text	00000000 EXTI4_IRQHandler
0000335a g     F .text	00000036 Delay_Ms
00005322 g     F .text	0000009e USB_LP_CAN1_RX0_IRQHandler
00004d4a g     F .text	00000046 UART_SendBytes
000041be g     F .text	00000100 Control_Motor_new
0000524c g     F .text	0000008e CAN_Send_Msg
000003b0 g     F .text	000000fa SystemInit
000005d8  w      .text	00000000 RNG_IRQHandler
00007c9e g     F .text	00000016 copysign
00009e10 g     F .text	00000098 .hidden __nedf2
00007cd0  w    F .text	0000004a printchar
00007cb4 g     F .text	0000001c copysignf
000005d8  w      .text	00000000 USB_HP_CAN1_TX_IRQHandler
0000ca98 g     O .text	00000100 .hidden __clz_tab
00000000 g       .init	00000000 _sinit
0000b23e g     F .text	00000130 .hidden __fixdfdi
000005d8  w      .text	00000000 DMA1_Channel3_IRQHandler
20000098 g     O .data	00000004 point_duration
000005d8  w      .text	00000000 ETH_IRQHandler
200000ec g     O .data	00000004 _impure_ptr
00004d90 g     F .text	00000084 TIM1_UP_IRQHandler
0000779a g     F .text	00000140 scalbn
0000555e g     F .text	00000002 atan2f
200000f4 g     O .bss	00000001 YUYIN_FLAG
200000cc g     O .data	00000004 angle_to_pulse_4
000005d8  w      .text	00000000 WWDG_IRQHandler
000005d8  w      .text	00000000 USBHSWakeup_IRQHandler
000005d8  w      .text	00000000 DMA2_Channel11_IRQHandler
000005d8  w      .text	00000000 Ecall_U_Mode_Handler
200001d0 g     O .bss	00000004 n8
00000e72 g     F .text	00000012 DMA_ITConfig
000042be g     F .text	00000136 Control_Motor
000005d8  w      .text	00000000 DMA2_Channel6_IRQHandler
000005d8  w      .text	00000000 TIM2_IRQHandler
20008000 g       .stack	00000000 _eusrstack
000001f0 g     F .text	0000000c .hidden __riscv_save_2
000005d8  w      .text	00000000 SW_Handler
00004670 g     F .text	00000062 CAN_MOTOR_MODE_SET
00004ef6 g     F .text	00000036 GPIO_bsp_init
200000e4 g     O .data	00000004 CAN2FilterStartBank
20000320 g     O .bss	0000003c rx_buffer_uart2
000005d8  w      .text	00000000 TIM1_BRK_IRQHandler
0000158a g     F .text	00000008 USART_SendData
00003a7e g     F .text	000000ae new_tof
000005d8  w      .text	00000000 DMA2_Channel10_IRQHandler
000005d8  w      .text	00000000 EXTI1_IRQHandler
00003c2c g     F .text	00000034 SW_Release
000001d6 g     F .text	0000001a .hidden __riscv_save_5
000033f0 g     F .text	0000003e _write
200000f0 g       .data	00000000 _edata
00003c60 g     F .text	0000002a delay_320ns
20000900 g       .bss	00000000 _end
200001d9 g     O .bss	00000001 ir_address
00001352 g     F .text	000000ee TIM_TimeBaseInit
000005d8  w      .text	00000000 RTCAlarm_IRQHandler
200000c8 g     O .data	00000004 angle_to_pulse_1
20000194 g     O .bss	00000004 Roll_angle
0000cb98 g       .dlalign	00000000 _data_lma
000005d8  w      .text	00000000 TIM10_UP_IRQHandler
000005d8  w      .text	00000000 TIM9_TRG_COM_IRQHandler
000005d8  w      .text	00000000 UART7_IRQHandler
20000198 g     O .bss	00000004 Yaw_angle
000048f8 g     F .text	000000a2 USART2_IRQHandler
000005d8  w      .text	00000000 UART6_IRQHandler
200001c4 g     O .bss	00000004 n5
200000e0 g     O .data	00000002 speed_6
000004aa g     F .text	0000012e SystemCoreClockUpdate
0000350c g     F .text	000003b2 robot_arm_5dof_method2
200001d8 g     O .bss	00000001 bitCount
000005d8  w      .text	00000000 I2C2_ER_IRQHandler
000005d8  w      .text	00000000 DMA1_Channel2_IRQHandler
0000410c g     F .text	000000b2 CAN_Send_Position_Mode
000078da g     F .text	00000204 atanf
200001bc g     O .bss	00000004 n3
0000206c g     F .text	0000128e rb_test08
000001fc g     F .text	00000024 .hidden __riscv_restore_12
000005d8  w      .text	00000000 TIM8_BRK_IRQHandler
00000e88 g     F .text	0000002c DMA_ClearFlag
00004502 g     F .text	00000154 IR_EXTI_Callback
000005da  w      .text	00000000 handle_reset
000005d8  w      .text	00000000 CAN1_SCE_IRQHandler
200001e4 g     O .bss	00000001 lcd_cmd
000001f0 g     F .text	0000000c .hidden __riscv_save_0
000005d8  w      .text	00000000 FLASH_IRQHandler
00003e66 g     F .text	00000020 WS2812B_Reset
00006e9a g     F .text	000006fc __kernel_rem_pio2f
00004bb0 g     F .text	000000e0 USART1_IRQHandler
200001e8 g     O .bss	00000004 rx_len_uart2
0000bab8 g     F .text	00000012 strlen
00003982 g     F .text	00000064 get_angle
000005d8  w      .text	00000000 SPI3_IRQHandler
00009ea8 g     F .text	000000b6 .hidden __gedf2
000005d8  w      .text	00000000 I2C1_ER_IRQHandler
00007aec g     F .text	000000b2 floorf
2000008c g     O .data	00000001 RGB_LED_MODE
200001ec g     O .bss	00000002 g_rx_data_len
00000cba g     F .text	0000016c DMA_DeInit
00003ee6 g     F .text	00000024 WS2812B_WriteColor
00000214 g     F .text	0000000c .hidden __riscv_restore_1
0000a66a g     F .text	00000a8c .hidden __subdf3
00003bd8 g     F .text	00000054 GPIO_SW_INIT
00001010 g     F .text	0000000a GPIO_ReadInputDataBit
200000b0 g     O .data	00000004 P
00001578 g     F .text	00000012 USART_DMACmd
2000009c g     O .data	00000004 A1
00000964 g     F .text	000000bc CAN_Transmit
200004e0 g     O .bss	00000406 ring_buffer
000005d8  w      .text	00000000 USBWakeUp_IRQHandler
00005042 g     F .text	00000062 CAN_SoftFilterInit
200001db g     O .bss	00000001 ir_command
000005d8  w      .text	00000000 DMA2_Channel3_IRQHandler
00003fec g     F .text	000000aa RGB_huxi
00005a6e g     F .text	000001c4 __ieee754_atan2f



Disassembly of section .init:

00000000 <_sinit>:
   0:	5da0006f          	j	5da <handle_reset>

Disassembly of section .vector:

00000004 <_vector_base>:
	...
   c:	02c8                	addi	a0,sp,324
   e:	0000                	unimp
  10:	02ca                	slli	t0,t0,0x12
  12:	0000                	unimp
  14:	0000                	unimp
  16:	0000                	unimp
  18:	05d8                	addi	a4,sp,708
	...
  22:	0000                	unimp
  24:	05d8                	addi	a4,sp,708
  26:	0000                	unimp
  28:	05d8                	addi	a4,sp,708
	...
  32:	0000                	unimp
  34:	05d8                	addi	a4,sp,708
  36:	0000                	unimp
  38:	0000                	unimp
  3a:	0000                	unimp
  3c:	05d8                	addi	a4,sp,708
  3e:	0000                	unimp
  40:	0000                	unimp
  42:	0000                	unimp
  44:	05d8                	addi	a4,sp,708
  46:	0000                	unimp
  48:	05d8                	addi	a4,sp,708
  4a:	0000                	unimp
  4c:	05d8                	addi	a4,sp,708
  4e:	0000                	unimp
  50:	05d8                	addi	a4,sp,708
  52:	0000                	unimp
  54:	05d8                	addi	a4,sp,708
  56:	0000                	unimp
  58:	05d8                	addi	a4,sp,708
  5a:	0000                	unimp
  5c:	05d8                	addi	a4,sp,708
  5e:	0000                	unimp
  60:	05d8                	addi	a4,sp,708
  62:	0000                	unimp
  64:	05d8                	addi	a4,sp,708
  66:	0000                	unimp
  68:	05d8                	addi	a4,sp,708
  6a:	0000                	unimp
  6c:	05d8                	addi	a4,sp,708
  6e:	0000                	unimp
  70:	05d8                	addi	a4,sp,708
  72:	0000                	unimp
  74:	05d8                	addi	a4,sp,708
  76:	0000                	unimp
  78:	05d8                	addi	a4,sp,708
  7a:	0000                	unimp
  7c:	05d8                	addi	a4,sp,708
  7e:	0000                	unimp
  80:	4c90                	lw	a2,24(s1)
  82:	0000                	unimp
  84:	05d8                	addi	a4,sp,708
  86:	0000                	unimp
  88:	05d8                	addi	a4,sp,708
  8a:	0000                	unimp
  8c:	05d8                	addi	a4,sp,708
  8e:	0000                	unimp
  90:	05d8                	addi	a4,sp,708
  92:	0000                	unimp
  94:	5322                	lw	t1,40(sp)
  96:	0000                	unimp
  98:	05d8                	addi	a4,sp,708
  9a:	0000                	unimp
  9c:	05d8                	addi	a4,sp,708
  9e:	0000                	unimp
  a0:	05d8                	addi	a4,sp,708
  a2:	0000                	unimp
  a4:	05d8                	addi	a4,sp,708
  a6:	0000                	unimp
  a8:	4d90                	lw	a2,24(a1)
  aa:	0000                	unimp
  ac:	05d8                	addi	a4,sp,708
  ae:	0000                	unimp
  b0:	05d8                	addi	a4,sp,708
  b2:	0000                	unimp
  b4:	05d8                	addi	a4,sp,708
  b6:	0000                	unimp
  b8:	1c7e                	slli	s8,s8,0x3f
  ba:	0000                	unimp
  bc:	05d8                	addi	a4,sp,708
  be:	0000                	unimp
  c0:	05d8                	addi	a4,sp,708
  c2:	0000                	unimp
  c4:	05d8                	addi	a4,sp,708
  c6:	0000                	unimp
  c8:	05d8                	addi	a4,sp,708
  ca:	0000                	unimp
  cc:	05d8                	addi	a4,sp,708
  ce:	0000                	unimp
  d0:	05d8                	addi	a4,sp,708
  d2:	0000                	unimp
  d4:	05d8                	addi	a4,sp,708
  d6:	0000                	unimp
  d8:	4bb0                	lw	a2,80(a5)
  da:	0000                	unimp
  dc:	48f8                	lw	a4,84(s1)
  de:	0000                	unimp
  e0:	487a                	lw	a6,156(sp)
  e2:	0000                	unimp
  e4:	4f2c                	lw	a1,88(a4)
  e6:	0000                	unimp
  e8:	05d8                	addi	a4,sp,708
  ea:	0000                	unimp
  ec:	05d8                	addi	a4,sp,708
  ee:	0000                	unimp
  f0:	05d8                	addi	a4,sp,708
  f2:	0000                	unimp
  f4:	05d8                	addi	a4,sp,708
  f6:	0000                	unimp
  f8:	05d8                	addi	a4,sp,708
  fa:	0000                	unimp
  fc:	05d8                	addi	a4,sp,708
  fe:	0000                	unimp
 100:	05d8                	addi	a4,sp,708
 102:	0000                	unimp
 104:	0000                	unimp
 106:	0000                	unimp
 108:	05d8                	addi	a4,sp,708
 10a:	0000                	unimp
 10c:	05d8                	addi	a4,sp,708
 10e:	0000                	unimp
 110:	05d8                	addi	a4,sp,708
 112:	0000                	unimp
 114:	05d8                	addi	a4,sp,708
 116:	0000                	unimp
 118:	05d8                	addi	a4,sp,708
 11a:	0000                	unimp
 11c:	05d8                	addi	a4,sp,708
 11e:	0000                	unimp
 120:	05d8                	addi	a4,sp,708
 122:	0000                	unimp
 124:	05d8                	addi	a4,sp,708
 126:	0000                	unimp
 128:	05d8                	addi	a4,sp,708
 12a:	0000                	unimp
 12c:	05d8                	addi	a4,sp,708
 12e:	0000                	unimp
 130:	05d8                	addi	a4,sp,708
 132:	0000                	unimp
 134:	05d8                	addi	a4,sp,708
 136:	0000                	unimp
 138:	05d8                	addi	a4,sp,708
 13a:	0000                	unimp
 13c:	05d8                	addi	a4,sp,708
 13e:	0000                	unimp
 140:	05d8                	addi	a4,sp,708
 142:	0000                	unimp
 144:	05d8                	addi	a4,sp,708
 146:	0000                	unimp
 148:	05d8                	addi	a4,sp,708
 14a:	0000                	unimp
 14c:	05d8                	addi	a4,sp,708
 14e:	0000                	unimp
 150:	05d8                	addi	a4,sp,708
 152:	0000                	unimp
 154:	05d8                	addi	a4,sp,708
 156:	0000                	unimp
 158:	05d8                	addi	a4,sp,708
 15a:	0000                	unimp
 15c:	05d8                	addi	a4,sp,708
 15e:	0000                	unimp
 160:	05d8                	addi	a4,sp,708
 162:	0000                	unimp
 164:	05d8                	addi	a4,sp,708
 166:	0000                	unimp
 168:	05d8                	addi	a4,sp,708
 16a:	0000                	unimp
 16c:	05d8                	addi	a4,sp,708
 16e:	0000                	unimp
 170:	05d8                	addi	a4,sp,708
 172:	0000                	unimp
 174:	05d8                	addi	a4,sp,708
 176:	0000                	unimp
 178:	05d8                	addi	a4,sp,708
 17a:	0000                	unimp
 17c:	05d8                	addi	a4,sp,708
 17e:	0000                	unimp
 180:	05d8                	addi	a4,sp,708
 182:	0000                	unimp
 184:	05d8                	addi	a4,sp,708
 186:	0000                	unimp
 188:	05d8                	addi	a4,sp,708
 18a:	0000                	unimp
 18c:	05d8                	addi	a4,sp,708
 18e:	0000                	unimp
 190:	05d8                	addi	a4,sp,708
 192:	0000                	unimp
 194:	05d8                	addi	a4,sp,708
 196:	0000                	unimp
 198:	05d8                	addi	a4,sp,708
 19a:	0000                	unimp
 19c:	05d8                	addi	a4,sp,708
 19e:	0000                	unimp
 1a0:	05d8                	addi	a4,sp,708
	...

Disassembly of section .text:

000001c0 <__riscv_save_12>:
     1c0:	7139                	addi	sp,sp,-64
     1c2:	4301                	li	t1,0
     1c4:	c66e                	sw	s11,12(sp)
     1c6:	a019                	j	1cc <__riscv_save_10+0x4>

000001c8 <__riscv_save_10>:
     1c8:	7139                	addi	sp,sp,-64
     1ca:	5341                	li	t1,-16
     1cc:	c86a                	sw	s10,16(sp)
     1ce:	ca66                	sw	s9,20(sp)
     1d0:	cc62                	sw	s8,24(sp)
     1d2:	ce5e                	sw	s7,28(sp)
     1d4:	a019                	j	1da <__riscv_save_4+0x4>

000001d6 <__riscv_save_4>:
     1d6:	7139                	addi	sp,sp,-64
     1d8:	5301                	li	t1,-32
     1da:	d05a                	sw	s6,32(sp)
     1dc:	d256                	sw	s5,36(sp)
     1de:	d452                	sw	s4,40(sp)
     1e0:	d64e                	sw	s3,44(sp)
     1e2:	d84a                	sw	s2,48(sp)
     1e4:	da26                	sw	s1,52(sp)
     1e6:	dc22                	sw	s0,56(sp)
     1e8:	de06                	sw	ra,60(sp)
     1ea:	40610133          	sub	sp,sp,t1
     1ee:	8282                	jr	t0

000001f0 <__riscv_save_0>:
     1f0:	1141                	addi	sp,sp,-16
     1f2:	c04a                	sw	s2,0(sp)
     1f4:	c226                	sw	s1,4(sp)
     1f6:	c422                	sw	s0,8(sp)
     1f8:	c606                	sw	ra,12(sp)
     1fa:	8282                	jr	t0

000001fc <__riscv_restore_12>:
     1fc:	4db2                	lw	s11,12(sp)
     1fe:	0141                	addi	sp,sp,16

00000200 <__riscv_restore_10>:
     200:	4d02                	lw	s10,0(sp)
     202:	4c92                	lw	s9,4(sp)
     204:	4c22                	lw	s8,8(sp)
     206:	4bb2                	lw	s7,12(sp)
     208:	0141                	addi	sp,sp,16

0000020a <__riscv_restore_4>:
     20a:	4b02                	lw	s6,0(sp)
     20c:	4a92                	lw	s5,4(sp)
     20e:	4a22                	lw	s4,8(sp)
     210:	49b2                	lw	s3,12(sp)
     212:	0141                	addi	sp,sp,16

00000214 <__riscv_restore_0>:
     214:	4902                	lw	s2,0(sp)
     216:	4492                	lw	s1,4(sp)
     218:	4422                	lw	s0,8(sp)
     21a:	40b2                	lw	ra,12(sp)
     21c:	0141                	addi	sp,sp,16
     21e:	8082                	ret

00000220 <memset>:
     220:	433d                	li	t1,15
     222:	872a                	mv	a4,a0
     224:	02c37363          	bgeu	t1,a2,24a <memset+0x2a>
     228:	00f77793          	andi	a5,a4,15
     22c:	efbd                	bnez	a5,2aa <memset+0x8a>
     22e:	e5ad                	bnez	a1,298 <memset+0x78>
     230:	ff067693          	andi	a3,a2,-16
     234:	8a3d                	andi	a2,a2,15
     236:	96ba                	add	a3,a3,a4
     238:	c30c                	sw	a1,0(a4)
     23a:	c34c                	sw	a1,4(a4)
     23c:	c70c                	sw	a1,8(a4)
     23e:	c74c                	sw	a1,12(a4)
     240:	0741                	addi	a4,a4,16
     242:	fed76be3          	bltu	a4,a3,238 <memset+0x18>
     246:	e211                	bnez	a2,24a <memset+0x2a>
     248:	8082                	ret
     24a:	40c306b3          	sub	a3,t1,a2
     24e:	068a                	slli	a3,a3,0x2
     250:	00000297          	auipc	t0,0x0
     254:	9696                	add	a3,a3,t0
     256:	00a68067          	jr	10(a3)
     25a:	00b70723          	sb	a1,14(a4)
     25e:	00b706a3          	sb	a1,13(a4)
     262:	00b70623          	sb	a1,12(a4)
     266:	00b705a3          	sb	a1,11(a4)
     26a:	00b70523          	sb	a1,10(a4)
     26e:	00b704a3          	sb	a1,9(a4)
     272:	00b70423          	sb	a1,8(a4)
     276:	00b703a3          	sb	a1,7(a4)
     27a:	00b70323          	sb	a1,6(a4)
     27e:	00b702a3          	sb	a1,5(a4)
     282:	00b70223          	sb	a1,4(a4)
     286:	00b701a3          	sb	a1,3(a4)
     28a:	00b70123          	sb	a1,2(a4)
     28e:	00b700a3          	sb	a1,1(a4)
     292:	00b70023          	sb	a1,0(a4)
     296:	8082                	ret
     298:	0ff5f593          	andi	a1,a1,255
     29c:	00859693          	slli	a3,a1,0x8
     2a0:	8dd5                	or	a1,a1,a3
     2a2:	01059693          	slli	a3,a1,0x10
     2a6:	8dd5                	or	a1,a1,a3
     2a8:	b761                	j	230 <memset+0x10>
     2aa:	00279693          	slli	a3,a5,0x2
     2ae:	00000297          	auipc	t0,0x0
     2b2:	9696                	add	a3,a3,t0
     2b4:	8286                	mv	t0,ra
     2b6:	fa8680e7          	jalr	-88(a3)
     2ba:	8096                	mv	ra,t0
     2bc:	17c1                	addi	a5,a5,-16
     2be:	8f1d                	sub	a4,a4,a5
     2c0:	963e                	add	a2,a2,a5
     2c2:	f8c374e3          	bgeu	t1,a2,24a <memset+0x2a>
     2c6:	b7a5                	j	22e <memset+0xe>

000002c8 <NMI_Handler>:
     2c8:	a001                	j	2c8 <NMI_Handler>

000002ca <HardFault_Handler>:
     2ca:	beef07b7          	lui	a5,0xbeef0
     2ce:	e000e737          	lui	a4,0xe000e
     2d2:	08078793          	addi	a5,a5,128 # beef0080 <_eusrstack+0x9eee8080>
     2d6:	c73c                	sw	a5,72(a4)
     2d8:	a001                	j	2d8 <HardFault_Handler+0xe>

000002da <main>:
     2da:	f17ff2ef          	jal	t0,1f0 <__riscv_save_0>
     2de:	22f1                	jal	4aa <SystemCoreClockUpdate>
     2e0:	6471                	lui	s0,0x1c
     2e2:	018030ef          	jal	ra,32fa <Delay_Init>
     2e6:	425030ef          	jal	ra,3f0a <yuyin_gpio>
     2ea:	0ef030ef          	jal	ra,3bd8 <GPIO_SW_INIT>
     2ee:	20040513          	addi	a0,s0,512 # 1c200 <_data_lma+0xf668>
     2f2:	09e030ef          	jal	ra,3390 <USART_Printf_Init>
     2f6:	200007b7          	lui	a5,0x20000
     2fa:	0807a583          	lw	a1,128(a5) # 20000080 <SystemCoreClock>
     2fe:	0000c537          	lui	a0,0xc
     302:	b2050513          	addi	a0,a0,-1248 # bb20 <strlen+0x68>
     306:	15e080ef          	jal	ra,8464 <printf>
     30a:	1a7000ef          	jal	ra,cb0 <DBGMCU_GetCHIPID>
     30e:	85aa                	mv	a1,a0
     310:	0000c537          	lui	a0,0xc
     314:	b3050513          	addi	a0,a0,-1232 # bb30 <strlen+0x78>
     318:	14c080ef          	jal	ra,8464 <printf>
     31c:	20040513          	addi	a0,s0,512
     320:	67a040ef          	jal	ra,499a <USARTx_CFG>
     324:	44c040ef          	jal	ra,4770 <USART23_CFG>
     328:	714040ef          	jal	ra,4a3c <DMA_INIT>
     32c:	4581                	li	a1,0
     32e:	0ef00513          	li	a0,239
     332:	2e3040ef          	jal	ra,4e14 <TIM1_INT_Init>
     336:	4a1040ef          	jal	ra,4fd6 <EXTI0_INT_INIT>
     33a:	40013537          	lui	a0,0x40013
     33e:	4585                	li	a1,1
     340:	c0050513          	addi	a0,a0,-1024 # 40012c00 <_eusrstack+0x2000ac00>
     344:	0fc010ef          	jal	ra,1440 <TIM_Cmd>
     348:	341040ef          	jal	ra,4e88 <TIM3_Init>
     34c:	40000537          	lui	a0,0x40000
     350:	4585                	li	a1,1
     352:	40050513          	addi	a0,a0,1024 # 40000400 <_eusrstack+0x1fff8400>
     356:	0ea010ef          	jal	ra,1440 <TIM_Cmd>
     35a:	39d040ef          	jal	ra,4ef6 <GPIO_bsp_init>
     35e:	2c9030ef          	jal	ra,3e26 <GPIO_Init2812>
     362:	535030ef          	jal	ra,4096 <GPIO_fan_flame_light>
     366:	4701                	li	a4,0
     368:	46c1                	li	a3,16
     36a:	4615                	li	a2,5
     36c:	4591                	li	a1,4
     36e:	4501                	li	a0,0
     370:	5c9040ef          	jal	ra,5138 <CAN_Mode_Init>
     374:	6561                	lui	a0,0x18
     376:	6a050513          	addi	a0,a0,1696 # 186a0 <_data_lma+0xbb08>
     37a:	1b3030ef          	jal	ra,3d2c <delay_us>
     37e:	2f2040ef          	jal	ra,4670 <CAN_MOTOR_MODE_SET>
     382:	0007a537          	lui	a0,0x7a
     386:	12050513          	addi	a0,a0,288 # 7a120 <_data_lma+0x6d588>
     38a:	1a3030ef          	jal	ra,3d2c <delay_us>
     38e:	2e2040ef          	jal	ra,4670 <CAN_MOTOR_MODE_SET>
     392:	1f400513          	li	a0,500
     396:	7c5020ef          	jal	ra,335a <Delay_Ms>
     39a:	3e800513          	li	a0,1000
     39e:	7bd020ef          	jal	ra,335a <Delay_Ms>
     3a2:	1f400513          	li	a0,500
     3a6:	7b5020ef          	jal	ra,335a <Delay_Ms>
     3aa:	4c3010ef          	jal	ra,206c <rb_test08>
     3ae:	a001                	j	3ae <main+0xd4>

000003b0 <SystemInit>:
     3b0:	400217b7          	lui	a5,0x40021
     3b4:	4398                	lw	a4,0(a5)
     3b6:	f0ff06b7          	lui	a3,0xf0ff0
     3ba:	1141                	addi	sp,sp,-16
     3bc:	00176713          	ori	a4,a4,1
     3c0:	c398                	sw	a4,0(a5)
     3c2:	43d8                	lw	a4,4(a5)
     3c4:	00020637          	lui	a2,0x20
     3c8:	8f75                	and	a4,a4,a3
     3ca:	c3d8                	sw	a4,4(a5)
     3cc:	4398                	lw	a4,0(a5)
     3ce:	fef706b7          	lui	a3,0xfef70
     3d2:	16fd                	addi	a3,a3,-1
     3d4:	8f75                	and	a4,a4,a3
     3d6:	c398                	sw	a4,0(a5)
     3d8:	4398                	lw	a4,0(a5)
     3da:	fffc06b7          	lui	a3,0xfffc0
     3de:	16fd                	addi	a3,a3,-1
     3e0:	8f75                	and	a4,a4,a3
     3e2:	c398                	sw	a4,0(a5)
     3e4:	43d8                	lw	a4,4(a5)
     3e6:	ff0106b7          	lui	a3,0xff010
     3ea:	16fd                	addi	a3,a3,-1
     3ec:	8f75                	and	a4,a4,a3
     3ee:	c3d8                	sw	a4,4(a5)
     3f0:	4398                	lw	a4,0(a5)
     3f2:	ec0006b7          	lui	a3,0xec000
     3f6:	16fd                	addi	a3,a3,-1
     3f8:	8f75                	and	a4,a4,a3
     3fa:	c398                	sw	a4,0(a5)
     3fc:	00ff0737          	lui	a4,0xff0
     400:	c798                	sw	a4,8(a5)
     402:	0207a623          	sw	zero,44(a5) # 4002102c <_eusrstack+0x2001902c>
     406:	c402                	sw	zero,8(sp)
     408:	c602                	sw	zero,12(sp)
     40a:	4398                	lw	a4,0(a5)
     40c:	66c1                	lui	a3,0x10
     40e:	8f55                	or	a4,a4,a3
     410:	c398                	sw	a4,0(a5)
     412:	400216b7          	lui	a3,0x40021
     416:	6705                	lui	a4,0x1
     418:	429c                	lw	a5,0(a3)
     41a:	8ff1                	and	a5,a5,a2
     41c:	c63e                	sw	a5,12(sp)
     41e:	47a2                	lw	a5,8(sp)
     420:	0785                	addi	a5,a5,1
     422:	c43e                	sw	a5,8(sp)
     424:	47b2                	lw	a5,12(sp)
     426:	e781                	bnez	a5,42e <SystemInit+0x7e>
     428:	47a2                	lw	a5,8(sp)
     42a:	fee797e3          	bne	a5,a4,418 <SystemInit+0x68>
     42e:	400217b7          	lui	a5,0x40021
     432:	439c                	lw	a5,0(a5)
     434:	00e79713          	slli	a4,a5,0xe
     438:	06075763          	bgez	a4,4a6 <SystemInit+0xf6>
     43c:	4785                	li	a5,1
     43e:	c63e                	sw	a5,12(sp)
     440:	4732                	lw	a4,12(sp)
     442:	4785                	li	a5,1
     444:	04f71f63          	bne	a4,a5,4a2 <SystemInit+0xf2>
     448:	400217b7          	lui	a5,0x40021
     44c:	43d8                	lw	a4,4(a5)
     44e:	ffc106b7          	lui	a3,0xffc10
     452:	16fd                	addi	a3,a3,-1
     454:	c3d8                	sw	a4,4(a5)
     456:	43d8                	lw	a4,4(a5)
     458:	c3d8                	sw	a4,4(a5)
     45a:	43d8                	lw	a4,4(a5)
     45c:	40076713          	ori	a4,a4,1024
     460:	c3d8                	sw	a4,4(a5)
     462:	43d8                	lw	a4,4(a5)
     464:	8f75                	and	a4,a4,a3
     466:	c3d8                	sw	a4,4(a5)
     468:	43d8                	lw	a4,4(a5)
     46a:	002906b7          	lui	a3,0x290
     46e:	8f55                	or	a4,a4,a3
     470:	c3d8                	sw	a4,4(a5)
     472:	4398                	lw	a4,0(a5)
     474:	010006b7          	lui	a3,0x1000
     478:	8f55                	or	a4,a4,a3
     47a:	c398                	sw	a4,0(a5)
     47c:	4398                	lw	a4,0(a5)
     47e:	00671693          	slli	a3,a4,0x6
     482:	fe06dde3          	bgez	a3,47c <SystemInit+0xcc>
     486:	43d8                	lw	a4,4(a5)
     488:	400216b7          	lui	a3,0x40021
     48c:	9b71                	andi	a4,a4,-4
     48e:	c3d8                	sw	a4,4(a5)
     490:	43d8                	lw	a4,4(a5)
     492:	00276713          	ori	a4,a4,2
     496:	c3d8                	sw	a4,4(a5)
     498:	4721                	li	a4,8
     49a:	42dc                	lw	a5,4(a3)
     49c:	8bb1                	andi	a5,a5,12
     49e:	fee79ee3          	bne	a5,a4,49a <SystemInit+0xea>
     4a2:	0141                	addi	sp,sp,16
     4a4:	8082                	ret
     4a6:	c602                	sw	zero,12(sp)
     4a8:	bf61                	j	440 <SystemInit+0x90>

000004aa <SystemCoreClockUpdate>:
     4aa:	400216b7          	lui	a3,0x40021
     4ae:	42d8                	lw	a4,4(a3)
     4b0:	200007b7          	lui	a5,0x20000
     4b4:	4611                	li	a2,4
     4b6:	8b31                	andi	a4,a4,12
     4b8:	08078793          	addi	a5,a5,128 # 20000080 <SystemCoreClock>
     4bc:	00c70563          	beq	a4,a2,4c6 <SystemCoreClockUpdate+0x1c>
     4c0:	4621                	li	a2,8
     4c2:	02c70863          	beq	a4,a2,4f2 <SystemCoreClockUpdate+0x48>
     4c6:	007a1737          	lui	a4,0x7a1
     4ca:	20070713          	addi	a4,a4,512 # 7a1200 <_data_lma+0x794668>
     4ce:	c398                	sw	a4,0(a5)
     4d0:	40021737          	lui	a4,0x40021
     4d4:	4358                	lw	a4,4(a4)
     4d6:	8311                	srli	a4,a4,0x4
     4d8:	00f77693          	andi	a3,a4,15
     4dc:	20000737          	lui	a4,0x20000
     4e0:	00070713          	mv	a4,a4
     4e4:	9736                	add	a4,a4,a3
     4e6:	2314                	lbu	a3,0(a4)
     4e8:	4398                	lw	a4,0(a5)
     4ea:	00d75733          	srl	a4,a4,a3
     4ee:	c398                	sw	a4,0(a5)
     4f0:	8082                	ret
     4f2:	42d8                	lw	a4,4(a3)
     4f4:	42d4                	lw	a3,4(a3)
     4f6:	6641                	lui	a2,0x10
     4f8:	8349                	srli	a4,a4,0x12
     4fa:	8b3d                	andi	a4,a4,15
     4fc:	8ef1                	and	a3,a3,a2
     4fe:	00270613          	addi	a2,a4,2 # 20000002 <_data_vma+0x2>
     502:	cf15                	beqz	a4,53e <SystemCoreClockUpdate+0x94>
     504:	473d                	li	a4,15
     506:	02e60f63          	beq	a2,a4,544 <SystemCoreClockUpdate+0x9a>
     50a:	4741                	li	a4,16
     50c:	02e60f63          	beq	a2,a4,54a <SystemCoreClockUpdate+0xa0>
     510:	4745                	li	a4,17
     512:	4581                	li	a1,0
     514:	00e61363          	bne	a2,a4,51a <SystemCoreClockUpdate+0x70>
     518:	4641                	li	a2,16
     51a:	e2a1                	bnez	a3,55a <SystemCoreClockUpdate+0xb0>
     51c:	40024737          	lui	a4,0x40024
     520:	80072703          	lw	a4,-2048(a4) # 40023800 <_eusrstack+0x2001b800>
     524:	8b41                	andi	a4,a4,16
     526:	c70d                	beqz	a4,550 <SystemCoreClockUpdate+0xa6>
     528:	007a1737          	lui	a4,0x7a1
     52c:	20070713          	addi	a4,a4,512 # 7a1200 <_data_lma+0x794668>
     530:	02c70633          	mul	a2,a4,a2
     534:	c390                	sw	a2,0(a5)
     536:	ddc9                	beqz	a1,4d0 <SystemCoreClockUpdate+0x26>
     538:	4398                	lw	a4,0(a5)
     53a:	8305                	srli	a4,a4,0x1
     53c:	bf49                	j	4ce <SystemCoreClockUpdate+0x24>
     53e:	4581                	li	a1,0
     540:	4649                	li	a2,18
     542:	bfe1                	j	51a <SystemCoreClockUpdate+0x70>
     544:	4585                	li	a1,1
     546:	4635                	li	a2,13
     548:	bfc9                	j	51a <SystemCoreClockUpdate+0x70>
     54a:	4581                	li	a1,0
     54c:	463d                	li	a2,15
     54e:	b7f1                	j	51a <SystemCoreClockUpdate+0x70>
     550:	003d1737          	lui	a4,0x3d1
     554:	90070713          	addi	a4,a4,-1792 # 3d0900 <_data_lma+0x3c3d68>
     558:	bfe1                	j	530 <SystemCoreClockUpdate+0x86>
     55a:	40021537          	lui	a0,0x40021
     55e:	5558                	lw	a4,44(a0)
     560:	00f71693          	slli	a3,a4,0xf
     564:	5558                	lw	a4,44(a0)
     566:	0406df63          	bgez	a3,5c4 <SystemCoreClockUpdate+0x11a>
     56a:	8311                	srli	a4,a4,0x4
     56c:	8b3d                	andi	a4,a4,15
     56e:	00170693          	addi	a3,a4,1
     572:	007a1737          	lui	a4,0x7a1
     576:	20070713          	addi	a4,a4,512 # 7a1200 <_data_lma+0x794668>
     57a:	02d75733          	divu	a4,a4,a3
     57e:	c398                	sw	a4,0(a5)
     580:	5554                	lw	a3,44(a0)
     582:	82a1                	srli	a3,a3,0x8
     584:	8abd                	andi	a3,a3,15
     586:	e28d                	bnez	a3,5a8 <SystemCoreClockUpdate+0xfe>
     588:	4695                	li	a3,5
     58a:	02d70733          	mul	a4,a4,a3
     58e:	8305                	srli	a4,a4,0x1
     590:	c398                	sw	a4,0(a5)
     592:	40021737          	lui	a4,0x40021
     596:	5758                	lw	a4,44(a4)
     598:	4394                	lw	a3,0(a5)
     59a:	8b3d                	andi	a4,a4,15
     59c:	0705                	addi	a4,a4,1
     59e:	02e6d733          	divu	a4,a3,a4
     5a2:	c398                	sw	a4,0(a5)
     5a4:	4398                	lw	a4,0(a5)
     5a6:	b769                	j	530 <SystemCoreClockUpdate+0x86>
     5a8:	4505                	li	a0,1
     5aa:	00a69463          	bne	a3,a0,5b2 <SystemCoreClockUpdate+0x108>
     5ae:	46e5                	li	a3,25
     5b0:	bfe9                	j	58a <SystemCoreClockUpdate+0xe0>
     5b2:	453d                	li	a0,15
     5b4:	00a69663          	bne	a3,a0,5c0 <SystemCoreClockUpdate+0x116>
     5b8:	46d1                	li	a3,20
     5ba:	02e68733          	mul	a4,a3,a4
     5be:	bfc9                	j	590 <SystemCoreClockUpdate+0xe6>
     5c0:	0689                	addi	a3,a3,2
     5c2:	bfe5                	j	5ba <SystemCoreClockUpdate+0x110>
     5c4:	8b3d                	andi	a4,a4,15
     5c6:	00170693          	addi	a3,a4,1 # 40021001 <_eusrstack+0x20019001>
     5ca:	007a1737          	lui	a4,0x7a1
     5ce:	20070713          	addi	a4,a4,512 # 7a1200 <_data_lma+0x794668>
     5d2:	02d75733          	divu	a4,a4,a3
     5d6:	b7f1                	j	5a2 <SystemCoreClockUpdate+0xf8>

000005d8 <ADC1_2_IRQHandler>:
     5d8:	a001                	j	5d8 <ADC1_2_IRQHandler>

000005da <handle_reset>:
     5da:	20000197          	auipc	gp,0x20000
     5de:	2a618193          	addi	gp,gp,678 # 20000880 <__global_pointer$>
     5e2:	20008117          	auipc	sp,0x20008
     5e6:	a1e10113          	addi	sp,sp,-1506 # 20008000 <_eusrstack>
     5ea:	0000c517          	auipc	a0,0xc
     5ee:	5ae50513          	addi	a0,a0,1454 # cb98 <_data_lma>
     5f2:	20000597          	auipc	a1,0x20000
     5f6:	a0e58593          	addi	a1,a1,-1522 # 20000000 <_data_vma>
     5fa:	87018613          	addi	a2,gp,-1936 # 200000f0 <_edata>
     5fe:	00c5fa63          	bgeu	a1,a2,612 <handle_reset+0x38>
     602:	00052283          	lw	t0,0(a0)
     606:	0055a023          	sw	t0,0(a1)
     60a:	0511                	addi	a0,a0,4
     60c:	0591                	addi	a1,a1,4
     60e:	fec5eae3          	bltu	a1,a2,602 <handle_reset+0x28>
     612:	87018513          	addi	a0,gp,-1936 # 200000f0 <_edata>
     616:	08018593          	addi	a1,gp,128 # 20000900 <_ebss>
     61a:	00b57763          	bgeu	a0,a1,628 <handle_reset+0x4e>
     61e:	00052023          	sw	zero,0(a0)
     622:	0511                	addi	a0,a0,4
     624:	feb56de3          	bltu	a0,a1,61e <handle_reset+0x44>
     628:	42fd                	li	t0,31
     62a:	bc029073          	csrw	0xbc0,t0
     62e:	42ad                	li	t0,11
     630:	80429073          	csrw	0x804,t0
     634:	000062b7          	lui	t0,0x6
     638:	08828293          	addi	t0,t0,136 # 6088 <__kernel_cos+0xd4>
     63c:	30029073          	csrw	mstatus,t0
     640:	00000297          	auipc	t0,0x0
     644:	9c428293          	addi	t0,t0,-1596 # 4 <_einit>
     648:	0032e293          	ori	t0,t0,3
     64c:	30529073          	csrw	mtvec,t0
     650:	d61ff0ef          	jal	ra,3b0 <SystemInit>
     654:	00000297          	auipc	t0,0x0
     658:	c8628293          	addi	t0,t0,-890 # 2da <main>
     65c:	34129073          	csrw	mepc,t0
     660:	30200073          	mret

00000664 <CAN_SlaveStartBank>:
     664:	400067b7          	lui	a5,0x40006
     668:	6007a703          	lw	a4,1536(a5) # 40006600 <_eusrstack+0x1fffe600>
     66c:	76f1                	lui	a3,0xffffc
     66e:	0f168693          	addi	a3,a3,241 # ffffc0f1 <_eusrstack+0xdfff40f1>
     672:	00176713          	ori	a4,a4,1
     676:	60e7a023          	sw	a4,1536(a5)
     67a:	6007a703          	lw	a4,1536(a5)
     67e:	0522                	slli	a0,a0,0x8
     680:	8f75                	and	a4,a4,a3
     682:	60e7a023          	sw	a4,1536(a5)
     686:	6007a703          	lw	a4,1536(a5)
     68a:	8d59                	or	a0,a0,a4
     68c:	60a7a023          	sw	a0,1536(a5)
     690:	6007a703          	lw	a4,1536(a5)
     694:	9b79                	andi	a4,a4,-2
     696:	60e7a023          	sw	a4,1536(a5)
     69a:	8082                	ret

0000069c <CAN_Init>:
     69c:	b55ff2ef          	jal	t0,1f0 <__riscv_save_0>
     6a0:	842a                	mv	s0,a0
     6a2:	892e                	mv	s2,a1
     6a4:	2531                	jal	cb0 <DBGMCU_GetCHIPID>
     6a6:	8111                	srli	a0,a0,0x4
     6a8:	893d                	andi	a0,a0,15
     6aa:	1571                	addi	a0,a0,-4
     6ac:	478d                	li	a5,3
     6ae:	16a7ec63          	bltu	a5,a0,826 <__stack_size+0x26>
     6b2:	400067b7          	lui	a5,0x40006
     6b6:	40078793          	addi	a5,a5,1024 # 40006400 <_eusrstack+0x1fffe400>
     6ba:	04f41263          	bne	s0,a5,6fe <CAN_Init+0x62>
     6be:	400217b7          	lui	a5,0x40021
     6c2:	4b98                	lw	a4,16(a5)
     6c4:	020006b7          	lui	a3,0x2000
     6c8:	8f55                	or	a4,a4,a3
     6ca:	cb98                	sw	a4,16(a5)
     6cc:	4b98                	lw	a4,16(a5)
     6ce:	fe0006b7          	lui	a3,0xfe000
     6d2:	16fd                	addi	a3,a3,-1
     6d4:	8f75                	and	a4,a4,a3
     6d6:	cb98                	sw	a4,16(a5)
     6d8:	401c                	lw	a5,0(s0)
     6da:	9bf5                	andi	a5,a5,-3
     6dc:	c01c                	sw	a5,0(s0)
     6de:	401c                	lw	a5,0(s0)
     6e0:	0017e793          	ori	a5,a5,1
     6e4:	c01c                	sw	a5,0(s0)
     6e6:	67c1                	lui	a5,0x10
     6e8:	4058                	lw	a4,4(s0)
     6ea:	8b05                	andi	a4,a4,1
     6ec:	e319                	bnez	a4,6f2 <CAN_Init+0x56>
     6ee:	17fd                	addi	a5,a5,-1
     6f0:	ffe5                	bnez	a5,6e8 <CAN_Init+0x4c>
     6f2:	405c                	lw	a5,4(s0)
     6f4:	0017f713          	andi	a4,a5,1
     6f8:	e705                	bnez	a4,720 <CAN_Init+0x84>
     6fa:	4501                	li	a0,0
     6fc:	be21                	j	214 <__riscv_restore_0>
     6fe:	400077b7          	lui	a5,0x40007
     702:	80078793          	addi	a5,a5,-2048 # 40006800 <_eusrstack+0x1fffe800>
     706:	fcf419e3          	bne	s0,a5,6d8 <CAN_Init+0x3c>
     70a:	400217b7          	lui	a5,0x40021
     70e:	4b98                	lw	a4,16(a5)
     710:	040006b7          	lui	a3,0x4000
     714:	8f55                	or	a4,a4,a3
     716:	cb98                	sw	a4,16(a5)
     718:	4b98                	lw	a4,16(a5)
     71a:	fc0006b7          	lui	a3,0xfc000
     71e:	bf55                	j	6d2 <CAN_Init+0x36>
     720:	40021637          	lui	a2,0x40021
     724:	4254                	lw	a3,4(a2)
     726:	200007b7          	lui	a5,0x20000
     72a:	0807a783          	lw	a5,128(a5) # 20000080 <SystemCoreClock>
     72e:	82a1                	srli	a3,a3,0x8
     730:	8a91                	andi	a3,a3,4
     732:	ca81                	beqz	a3,742 <CAN_Init+0xa6>
     734:	4258                	lw	a4,4(a2)
     736:	8321                	srli	a4,a4,0x8
     738:	00377693          	andi	a3,a4,3
     73c:	4709                	li	a4,2
     73e:	00d71733          	sll	a4,a4,a3
     742:	02e7d7b3          	divu	a5,a5,a4
     746:	003d1737          	lui	a4,0x3d1
     74a:	90070713          	addi	a4,a4,-1792 # 3d0900 <_data_lma+0x3c3d68>
     74e:	02e7d7b3          	divu	a5,a5,a4
     752:	c1100737          	lui	a4,0xc1100
     756:	17fd                	addi	a5,a5,-1
     758:	8fd9                	or	a5,a5,a4
     75a:	cc5c                	sw	a5,28(s0)
     75c:	401c                	lw	a5,0(s0)
     75e:	9bf9                	andi	a5,a5,-2
     760:	c01c                	sw	a5,0(s0)
     762:	67c1                	lui	a5,0x10
     764:	4058                	lw	a4,4(s0)
     766:	8b05                	andi	a4,a4,1
     768:	c319                	beqz	a4,76e <CAN_Init+0xd2>
     76a:	17fd                	addi	a5,a5,-1
     76c:	ffe5                	bnez	a5,764 <CAN_Init+0xc8>
     76e:	405c                	lw	a5,4(s0)
     770:	8b85                	andi	a5,a5,1
     772:	f7c1                	bnez	a5,6fa <CAN_Init+0x5e>
     774:	400064b7          	lui	s1,0x40006
     778:	60c4a783          	lw	a5,1548(s1) # 4000660c <_eusrstack+0x1fffe60c>
     77c:	4505                	li	a0,1
     77e:	0037e793          	ori	a5,a5,3
     782:	60f4a623          	sw	a5,1548(s1)
     786:	6404a023          	sw	zero,1600(s1)
     78a:	6404a223          	sw	zero,1604(s1)
     78e:	6404a423          	sw	zero,1608(s1)
     792:	6404a623          	sw	zero,1612(s1)
     796:	61c4a783          	lw	a5,1564(s1)
     79a:	0037e793          	ori	a5,a5,3
     79e:	60f4ae23          	sw	a5,1564(s1)
     7a2:	6004a783          	lw	a5,1536(s1)
     7a6:	9bf9                	andi	a5,a5,-2
     7a8:	60f4a023          	sw	a5,1536(s1)
     7ac:	3d65                	jal	664 <CAN_SlaveStartBank>
     7ae:	40048793          	addi	a5,s1,1024
     7b2:	14f41363          	bne	s0,a5,8f8 <__stack_size+0xf8>
     7b6:	5804a783          	lw	a5,1408(s1)
     7ba:	40006737          	lui	a4,0x40006
     7be:	0037e793          	ori	a5,a5,3
     7c2:	58f4a023          	sw	a5,1408(s1)
     7c6:	40c72783          	lw	a5,1036(a4) # 4000640c <_eusrstack+0x1fffe40c>
     7ca:	8b8d                	andi	a5,a5,3
     7cc:	dfed                	beqz	a5,7c6 <CAN_Init+0x12a>
     7ce:	03800793          	li	a5,56
     7d2:	40f72623          	sw	a5,1036(a4)
     7d6:	400217b7          	lui	a5,0x40021
     7da:	4b98                	lw	a4,16(a5)
     7dc:	020006b7          	lui	a3,0x2000
     7e0:	8f55                	or	a4,a4,a3
     7e2:	cb98                	sw	a4,16(a5)
     7e4:	4b98                	lw	a4,16(a5)
     7e6:	fe0006b7          	lui	a3,0xfe000
     7ea:	16fd                	addi	a3,a3,-1
     7ec:	8f75                	and	a4,a4,a3
     7ee:	cb98                	sw	a4,16(a5)
     7f0:	400067b7          	lui	a5,0x40006
     7f4:	6007a703          	lw	a4,1536(a5) # 40006600 <_eusrstack+0x1fffe600>
     7f8:	4505                	li	a0,1
     7fa:	00176713          	ori	a4,a4,1
     7fe:	60e7a023          	sw	a4,1536(a5)
     802:	60c7a703          	lw	a4,1548(a5)
     806:	00376713          	ori	a4,a4,3
     80a:	60e7a623          	sw	a4,1548(a5)
     80e:	61c7a703          	lw	a4,1564(a5)
     812:	00376713          	ori	a4,a4,3
     816:	60e7ae23          	sw	a4,1564(a5)
     81a:	6007a703          	lw	a4,1536(a5)
     81e:	9b79                	andi	a4,a4,-2
     820:	60e7a023          	sw	a4,1536(a5)
     824:	3581                	jal	664 <CAN_SlaveStartBank>
     826:	401c                	lw	a5,0(s0)
     828:	9bf5                	andi	a5,a5,-3
     82a:	c01c                	sw	a5,0(s0)
     82c:	401c                	lw	a5,0(s0)
     82e:	0017e793          	ori	a5,a5,1
     832:	c01c                	sw	a5,0(s0)
     834:	67c1                	lui	a5,0x10
     836:	4058                	lw	a4,4(s0)
     838:	8b05                	andi	a4,a4,1
     83a:	e319                	bnez	a4,840 <__stack_size+0x40>
     83c:	17fd                	addi	a5,a5,-1
     83e:	ffe5                	bnez	a5,836 <__stack_size+0x36>
     840:	405c                	lw	a5,4(s0)
     842:	8b85                	andi	a5,a5,1
     844:	ea078be3          	beqz	a5,6fa <CAN_Init+0x5e>
     848:	00892703          	lw	a4,8(s2)
     84c:	4785                	li	a5,1
     84e:	0ef71663          	bne	a4,a5,93a <__stack_size+0x13a>
     852:	401c                	lw	a5,0(s0)
     854:	0807e793          	ori	a5,a5,128
     858:	00c92703          	lw	a4,12(s2)
     85c:	c01c                	sw	a5,0(s0)
     85e:	4785                	li	a5,1
     860:	0ef71163          	bne	a4,a5,942 <__stack_size+0x142>
     864:	401c                	lw	a5,0(s0)
     866:	0407e793          	ori	a5,a5,64
     86a:	01092703          	lw	a4,16(s2)
     86e:	c01c                	sw	a5,0(s0)
     870:	4785                	li	a5,1
     872:	0cf71c63          	bne	a4,a5,94a <__stack_size+0x14a>
     876:	401c                	lw	a5,0(s0)
     878:	0207e793          	ori	a5,a5,32
     87c:	01492703          	lw	a4,20(s2)
     880:	c01c                	sw	a5,0(s0)
     882:	4785                	li	a5,1
     884:	0cf71763          	bne	a4,a5,952 <__stack_size+0x152>
     888:	401c                	lw	a5,0(s0)
     88a:	0107e793          	ori	a5,a5,16
     88e:	01892703          	lw	a4,24(s2)
     892:	c01c                	sw	a5,0(s0)
     894:	4785                	li	a5,1
     896:	0cf71163          	bne	a4,a5,958 <__stack_size+0x158>
     89a:	401c                	lw	a5,0(s0)
     89c:	0087e793          	ori	a5,a5,8
     8a0:	01c92703          	lw	a4,28(s2)
     8a4:	c01c                	sw	a5,0(s0)
     8a6:	4785                	li	a5,1
     8a8:	0af71b63          	bne	a4,a5,95e <__stack_size+0x15e>
     8ac:	401c                	lw	a5,0(s0)
     8ae:	0047e793          	ori	a5,a5,4
     8b2:	c01c                	sw	a5,0(s0)
     8b4:	00294783          	lbu	a5,2(s2)
     8b8:	00394703          	lbu	a4,3(s2)
     8bc:	07fa                	slli	a5,a5,0x1e
     8be:	0762                	slli	a4,a4,0x18
     8c0:	8fd9                	or	a5,a5,a4
     8c2:	00494703          	lbu	a4,4(s2)
     8c6:	0742                	slli	a4,a4,0x10
     8c8:	8fd9                	or	a5,a5,a4
     8ca:	00594703          	lbu	a4,5(s2)
     8ce:	0752                	slli	a4,a4,0x14
     8d0:	8fd9                	or	a5,a5,a4
     8d2:	00095703          	lhu	a4,0(s2)
     8d6:	177d                	addi	a4,a4,-1
     8d8:	8fd9                	or	a5,a5,a4
     8da:	cc5c                	sw	a5,28(s0)
     8dc:	401c                	lw	a5,0(s0)
     8de:	9bf9                	andi	a5,a5,-2
     8e0:	c01c                	sw	a5,0(s0)
     8e2:	67c1                	lui	a5,0x10
     8e4:	4058                	lw	a4,4(s0)
     8e6:	8b05                	andi	a4,a4,1
     8e8:	c319                	beqz	a4,8ee <__stack_size+0xee>
     8ea:	17fd                	addi	a5,a5,-1
     8ec:	ffe5                	bnez	a5,8e4 <__stack_size+0xe4>
     8ee:	4048                	lw	a0,4(s0)
     8f0:	fff54513          	not	a0,a0
     8f4:	8905                	andi	a0,a0,1
     8f6:	b519                	j	6fc <CAN_Init+0x60>
     8f8:	400077b7          	lui	a5,0x40007
     8fc:	80078713          	addi	a4,a5,-2048 # 40006800 <_eusrstack+0x1fffe800>
     900:	eee418e3          	bne	s0,a4,7f0 <CAN_Init+0x154>
     904:	9807a703          	lw	a4,-1664(a5)
     908:	00376713          	ori	a4,a4,3
     90c:	98e7a023          	sw	a4,-1664(a5)
     910:	40007737          	lui	a4,0x40007
     914:	80c72783          	lw	a5,-2036(a4) # 4000680c <_eusrstack+0x1fffe80c>
     918:	8b8d                	andi	a5,a5,3
     91a:	dfed                	beqz	a5,914 <__stack_size+0x114>
     91c:	03800793          	li	a5,56
     920:	80f72623          	sw	a5,-2036(a4)
     924:	400217b7          	lui	a5,0x40021
     928:	4b98                	lw	a4,16(a5)
     92a:	040006b7          	lui	a3,0x4000
     92e:	8f55                	or	a4,a4,a3
     930:	cb98                	sw	a4,16(a5)
     932:	4b98                	lw	a4,16(a5)
     934:	fc0006b7          	lui	a3,0xfc000
     938:	bd4d                	j	7ea <CAN_Init+0x14e>
     93a:	401c                	lw	a5,0(s0)
     93c:	f7f7f793          	andi	a5,a5,-129
     940:	bf21                	j	858 <__stack_size+0x58>
     942:	401c                	lw	a5,0(s0)
     944:	fbf7f793          	andi	a5,a5,-65
     948:	b70d                	j	86a <__stack_size+0x6a>
     94a:	401c                	lw	a5,0(s0)
     94c:	fdf7f793          	andi	a5,a5,-33
     950:	b735                	j	87c <__stack_size+0x7c>
     952:	401c                	lw	a5,0(s0)
     954:	9bbd                	andi	a5,a5,-17
     956:	bf25                	j	88e <__stack_size+0x8e>
     958:	401c                	lw	a5,0(s0)
     95a:	9bdd                	andi	a5,a5,-9
     95c:	b791                	j	8a0 <__stack_size+0xa0>
     95e:	401c                	lw	a5,0(s0)
     960:	9bed                	andi	a5,a5,-5
     962:	bf81                	j	8b2 <__stack_size+0xb2>

00000964 <CAN_Transmit>:
     964:	451c                	lw	a5,8(a0)
     966:	00579713          	slli	a4,a5,0x5
     96a:	08074e63          	bltz	a4,a06 <CAN_Transmit+0xa2>
     96e:	451c                	lw	a5,8(a0)
     970:	00479713          	slli	a4,a5,0x4
     974:	08074b63          	bltz	a4,a0a <CAN_Transmit+0xa6>
     978:	451c                	lw	a5,8(a0)
     97a:	4691                	li	a3,4
     97c:	00379713          	slli	a4,a5,0x3
     980:	08075163          	bgez	a4,a02 <CAN_Transmit+0x9e>
     984:	4689                	li	a3,2
     986:	00469793          	slli	a5,a3,0x4
     98a:	97aa                	add	a5,a5,a0
     98c:	1807a703          	lw	a4,384(a5) # 40021180 <_eusrstack+0x20019180>
     990:	8b05                	andi	a4,a4,1
     992:	18e7a023          	sw	a4,384(a5)
     996:	2590                	lbu	a2,8(a1)
     998:	3588                	lbu	a0,9(a1)
     99a:	ea35                	bnez	a2,a0e <CAN_Transmit+0xaa>
     99c:	4198                	lw	a4,0(a1)
     99e:	1807a603          	lw	a2,384(a5)
     9a2:	0756                	slli	a4,a4,0x15
     9a4:	8f49                	or	a4,a4,a0
     9a6:	8f51                	or	a4,a4,a2
     9a8:	18e7a023          	sw	a4,384(a5)
     9ac:	25b8                	lbu	a4,10(a1)
     9ae:	8b3d                	andi	a4,a4,15
     9b0:	a5b8                	sb	a4,10(a1)
     9b2:	1847a603          	lw	a2,388(a5)
     9b6:	9a41                	andi	a2,a2,-16
     9b8:	18c7a223          	sw	a2,388(a5)
     9bc:	1847a603          	lw	a2,388(a5)
     9c0:	8f51                	or	a4,a4,a2
     9c2:	18e7a223          	sw	a4,388(a5)
     9c6:	25d0                	lbu	a2,12(a1)
     9c8:	35b8                	lbu	a4,11(a1)
     9ca:	0622                	slli	a2,a2,0x8
     9cc:	8e59                	or	a2,a2,a4
     9ce:	35d8                	lbu	a4,13(a1)
     9d0:	0742                	slli	a4,a4,0x10
     9d2:	8e59                	or	a2,a2,a4
     9d4:	25f8                	lbu	a4,14(a1)
     9d6:	0762                	slli	a4,a4,0x18
     9d8:	8f51                	or	a4,a4,a2
     9da:	18e7a423          	sw	a4,392(a5)
     9de:	2990                	lbu	a2,16(a1)
     9e0:	35f8                	lbu	a4,15(a1)
     9e2:	0622                	slli	a2,a2,0x8
     9e4:	8e59                	or	a2,a2,a4
     9e6:	3998                	lbu	a4,17(a1)
     9e8:	0742                	slli	a4,a4,0x10
     9ea:	8e59                	or	a2,a2,a4
     9ec:	29b8                	lbu	a4,18(a1)
     9ee:	0762                	slli	a4,a4,0x18
     9f0:	8f51                	or	a4,a4,a2
     9f2:	18e7a623          	sw	a4,396(a5)
     9f6:	1807a703          	lw	a4,384(a5)
     9fa:	00176713          	ori	a4,a4,1
     9fe:	18e7a023          	sw	a4,384(a5)
     a02:	8536                	mv	a0,a3
     a04:	8082                	ret
     a06:	4681                	li	a3,0
     a08:	bfbd                	j	986 <CAN_Transmit+0x22>
     a0a:	4685                	li	a3,1
     a0c:	bfad                	j	986 <CAN_Transmit+0x22>
     a0e:	41d8                	lw	a4,4(a1)
     a10:	1807a803          	lw	a6,384(a5)
     a14:	070e                	slli	a4,a4,0x3
     a16:	8f49                	or	a4,a4,a0
     a18:	8f51                	or	a4,a4,a2
     a1a:	01076733          	or	a4,a4,a6
     a1e:	b769                	j	9a8 <CAN_Transmit+0x44>

00000a20 <CAN_TransmitStatus>:
     a20:	4785                	li	a5,1
     a22:	02f58963          	beq	a1,a5,a54 <CAN_TransmitStatus+0x34>
     a26:	c591                	beqz	a1,a32 <CAN_TransmitStatus+0x12>
     a28:	4789                	li	a5,2
     a2a:	02f58b63          	beq	a1,a5,a60 <CAN_TransmitStatus+0x40>
     a2e:	4509                	li	a0,2
     a30:	8082                	ret
     a32:	451c                	lw	a5,8(a0)
     a34:	04000537          	lui	a0,0x4000
     a38:	050d                	addi	a0,a0,3
     a3a:	04000737          	lui	a4,0x4000
     a3e:	8fe9                	and	a5,a5,a0
     a40:	070d                	addi	a4,a4,3
     a42:	4505                	li	a0,1
     a44:	02e78e63          	beq	a5,a4,a80 <CAN_TransmitStatus+0x60>
     a48:	02f76063          	bltu	a4,a5,a68 <CAN_TransmitStatus+0x48>
     a4c:	0017b513          	seqz	a0,a5
     a50:	0506                	slli	a0,a0,0x1
     a52:	8082                	ret
     a54:	451c                	lw	a5,8(a0)
     a56:	08000537          	lui	a0,0x8000
     a5a:	30050513          	addi	a0,a0,768 # 8000300 <_data_lma+0x7ff3768>
     a5e:	bff1                	j	a3a <CAN_TransmitStatus+0x1a>
     a60:	451c                	lw	a5,8(a0)
     a62:	10030537          	lui	a0,0x10030
     a66:	bfd1                	j	a3a <CAN_TransmitStatus+0x1a>
     a68:	08000737          	lui	a4,0x8000
     a6c:	30070713          	addi	a4,a4,768 # 8000300 <_data_lma+0x7ff3768>
     a70:	4505                	li	a0,1
     a72:	00e78763          	beq	a5,a4,a80 <CAN_TransmitStatus+0x60>
     a76:	10030537          	lui	a0,0x10030
     a7a:	8f89                	sub	a5,a5,a0
     a7c:	0017b513          	seqz	a0,a5
     a80:	8082                	ret

00000a82 <CAN_Receive>:
     a82:	00459793          	slli	a5,a1,0x4
     a86:	97aa                	add	a5,a5,a0
     a88:	1b07a703          	lw	a4,432(a5)
     a8c:	8b11                	andi	a4,a4,4
     a8e:	a618                	sb	a4,8(a2)
     a90:	e72d                	bnez	a4,afa <CAN_Receive+0x78>
     a92:	1b07a703          	lw	a4,432(a5)
     a96:	8355                	srli	a4,a4,0x15
     a98:	c218                	sw	a4,0(a2)
     a9a:	1b07a703          	lw	a4,432(a5)
     a9e:	8b09                	andi	a4,a4,2
     aa0:	b618                	sb	a4,9(a2)
     aa2:	1b47a703          	lw	a4,436(a5)
     aa6:	8b3d                	andi	a4,a4,15
     aa8:	a638                	sb	a4,10(a2)
     aaa:	1b47a703          	lw	a4,436(a5)
     aae:	8321                	srli	a4,a4,0x8
     ab0:	ba38                	sb	a4,19(a2)
     ab2:	1b87a703          	lw	a4,440(a5)
     ab6:	b638                	sb	a4,11(a2)
     ab8:	1b87a703          	lw	a4,440(a5)
     abc:	8321                	srli	a4,a4,0x8
     abe:	a658                	sb	a4,12(a2)
     ac0:	1b87a703          	lw	a4,440(a5)
     ac4:	8341                	srli	a4,a4,0x10
     ac6:	b658                	sb	a4,13(a2)
     ac8:	1b87a703          	lw	a4,440(a5)
     acc:	8361                	srli	a4,a4,0x18
     ace:	a678                	sb	a4,14(a2)
     ad0:	1bc7a703          	lw	a4,444(a5)
     ad4:	b678                	sb	a4,15(a2)
     ad6:	1bc7a703          	lw	a4,444(a5)
     ada:	8321                	srli	a4,a4,0x8
     adc:	aa18                	sb	a4,16(a2)
     ade:	1bc7a703          	lw	a4,444(a5)
     ae2:	8341                	srli	a4,a4,0x10
     ae4:	ba18                	sb	a4,17(a2)
     ae6:	1bc7a783          	lw	a5,444(a5)
     aea:	83e1                	srli	a5,a5,0x18
     aec:	aa3c                	sb	a5,18(a2)
     aee:	e999                	bnez	a1,b04 <CAN_Receive+0x82>
     af0:	455c                	lw	a5,12(a0)
     af2:	0207e793          	ori	a5,a5,32
     af6:	c55c                	sw	a5,12(a0)
     af8:	8082                	ret
     afa:	1b07a703          	lw	a4,432(a5)
     afe:	830d                	srli	a4,a4,0x3
     b00:	c258                	sw	a4,4(a2)
     b02:	bf61                	j	a9a <CAN_Receive+0x18>
     b04:	491c                	lw	a5,16(a0)
     b06:	0207e793          	ori	a5,a5,32
     b0a:	c91c                	sw	a5,16(a0)
     b0c:	8082                	ret

00000b0e <CAN_FIFORelease>:
     b0e:	e591                	bnez	a1,b1a <CAN_FIFORelease+0xc>
     b10:	455c                	lw	a5,12(a0)
     b12:	0207e793          	ori	a5,a5,32
     b16:	c55c                	sw	a5,12(a0)
     b18:	8082                	ret
     b1a:	491c                	lw	a5,16(a0)
     b1c:	0207e793          	ori	a5,a5,32
     b20:	c91c                	sw	a5,16(a0)
     b22:	8082                	ret

00000b24 <CAN_MessagePending>:
     b24:	e589                	bnez	a1,b2e <CAN_MessagePending+0xa>
     b26:	455c                	lw	a5,12(a0)
     b28:	8b8d                	andi	a5,a5,3
     b2a:	853e                	mv	a0,a5
     b2c:	8082                	ret
     b2e:	4705                	li	a4,1
     b30:	4781                	li	a5,0
     b32:	fee59ce3          	bne	a1,a4,b2a <CAN_MessagePending+0x6>
     b36:	491c                	lw	a5,16(a0)
     b38:	bfc5                	j	b28 <CAN_MessagePending+0x4>

00000b3a <CAN_ITConfig>:
     b3a:	495c                	lw	a5,20(a0)
     b3c:	c601                	beqz	a2,b44 <CAN_ITConfig+0xa>
     b3e:	8ddd                	or	a1,a1,a5
     b40:	c94c                	sw	a1,20(a0)
     b42:	8082                	ret
     b44:	fff5c593          	not	a1,a1
     b48:	8dfd                	and	a1,a1,a5
     b4a:	bfdd                	j	b40 <CAN_ITConfig+0x6>

00000b4c <CAN_GetITStatus>:
     b4c:	495c                	lw	a5,20(a0)
     b4e:	8fed                	and	a5,a5,a1
     b50:	c395                	beqz	a5,b74 <CAN_GetITStatus+0x28>
     b52:	04000793          	li	a5,64
     b56:	0af58363          	beq	a1,a5,bfc <CAN_GetITStatus+0xb0>
     b5a:	02b7ec63          	bltu	a5,a1,b92 <CAN_GetITStatus+0x46>
     b5e:	4791                	li	a5,4
     b60:	08f58663          	beq	a1,a5,bec <CAN_GetITStatus+0xa0>
     b64:	00b7ea63          	bltu	a5,a1,b78 <CAN_GetITStatus+0x2c>
     b68:	4785                	li	a5,1
     b6a:	06f58663          	beq	a1,a5,bd6 <CAN_GetITStatus+0x8a>
     b6e:	4789                	li	a5,2
     b70:	06f58b63          	beq	a1,a5,be6 <CAN_GetITStatus+0x9a>
     b74:	4501                	li	a0,0
     b76:	8082                	ret
     b78:	47c1                	li	a5,16
     b7a:	06f58d63          	beq	a1,a5,bf4 <CAN_GetITStatus+0xa8>
     b7e:	02000793          	li	a5,32
     b82:	06f58b63          	beq	a1,a5,bf8 <CAN_GetITStatus+0xac>
     b86:	47a1                	li	a5,8
     b88:	fef596e3          	bne	a1,a5,b74 <CAN_GetITStatus+0x28>
     b8c:	4548                	lw	a0,12(a0)
     b8e:	8111                	srli	a0,a0,0x4
     b90:	a085                	j	bf0 <CAN_GetITStatus+0xa4>
     b92:	80058793          	addi	a5,a1,-2048
     b96:	cfbd                	beqz	a5,c14 <CAN_GetITStatus+0xc8>
     b98:	6785                	lui	a5,0x1
     b9a:	80078793          	addi	a5,a5,-2048 # 800 <__stack_size>
     b9e:	02b7e063          	bltu	a5,a1,bbe <CAN_GetITStatus+0x72>
     ba2:	20000793          	li	a5,512
     ba6:	06f58163          	beq	a1,a5,c08 <CAN_GetITStatus+0xbc>
     baa:	40000793          	li	a5,1024
     bae:	06f58063          	beq	a1,a5,c0e <CAN_GetITStatus+0xc2>
     bb2:	10000793          	li	a5,256
     bb6:	faf59fe3          	bne	a1,a5,b74 <CAN_GetITStatus+0x28>
     bba:	4d08                	lw	a0,24(a0)
     bbc:	a815                	j	bf0 <CAN_GetITStatus+0xa4>
     bbe:	67c1                	lui	a5,0x10
     bc0:	04f58063          	beq	a1,a5,c00 <CAN_GetITStatus+0xb4>
     bc4:	000207b7          	lui	a5,0x20
     bc8:	02f58e63          	beq	a1,a5,c04 <CAN_GetITStatus+0xb8>
     bcc:	67a1                	lui	a5,0x8
     bce:	faf593e3          	bne	a1,a5,b74 <CAN_GetITStatus+0x28>
     bd2:	4148                	lw	a0,4(a0)
     bd4:	a835                	j	c10 <CAN_GetITStatus+0xc4>
     bd6:	4508                	lw	a0,8(a0)
     bd8:	67c1                	lui	a5,0x10
     bda:	10178793          	addi	a5,a5,257 # 10101 <_data_lma+0x3569>
     bde:	8d7d                	and	a0,a0,a5
     be0:	00a03533          	snez	a0,a0
     be4:	8082                	ret
     be6:	4548                	lw	a0,12(a0)
     be8:	890d                	andi	a0,a0,3
     bea:	bfdd                	j	be0 <CAN_GetITStatus+0x94>
     bec:	4548                	lw	a0,12(a0)
     bee:	810d                	srli	a0,a0,0x3
     bf0:	8905                	andi	a0,a0,1
     bf2:	8082                	ret
     bf4:	4908                	lw	a0,16(a0)
     bf6:	bfcd                	j	be8 <CAN_GetITStatus+0x9c>
     bf8:	4908                	lw	a0,16(a0)
     bfa:	bfd5                	j	bee <CAN_GetITStatus+0xa2>
     bfc:	4908                	lw	a0,16(a0)
     bfe:	bf41                	j	b8e <CAN_GetITStatus+0x42>
     c00:	4148                	lw	a0,4(a0)
     c02:	b7f5                	j	bee <CAN_GetITStatus+0xa2>
     c04:	4148                	lw	a0,4(a0)
     c06:	b761                	j	b8e <CAN_GetITStatus+0x42>
     c08:	4d08                	lw	a0,24(a0)
     c0a:	8105                	srli	a0,a0,0x1
     c0c:	b7d5                	j	bf0 <CAN_GetITStatus+0xa4>
     c0e:	4d08                	lw	a0,24(a0)
     c10:	8109                	srli	a0,a0,0x2
     c12:	bff9                	j	bf0 <CAN_GetITStatus+0xa4>
     c14:	4d08                	lw	a0,24(a0)
     c16:	07057513          	andi	a0,a0,112
     c1a:	b7d9                	j	be0 <CAN_GetITStatus+0x94>

00000c1c <CAN_ClearITPendingBit>:
     c1c:	10000793          	li	a5,256
     c20:	06f58663          	beq	a1,a5,c8c <CAN_ClearITPendingBit+0x70>
     c24:	02b7e763          	bltu	a5,a1,c52 <CAN_ClearITPendingBit+0x36>
     c28:	47a1                	li	a5,8
     c2a:	06f58863          	beq	a1,a5,c9a <CAN_ClearITPendingBit+0x7e>
     c2e:	00b7e963          	bltu	a5,a1,c40 <CAN_ClearITPendingBit+0x24>
     c32:	4705                	li	a4,1
     c34:	04e58e63          	beq	a1,a4,c90 <CAN_ClearITPendingBit+0x74>
     c38:	4711                	li	a4,4
     c3a:	06e58163          	beq	a1,a4,c9c <CAN_ClearITPendingBit+0x80>
     c3e:	8082                	ret
     c40:	02000713          	li	a4,32
     c44:	04e58f63          	beq	a1,a4,ca2 <CAN_ClearITPendingBit+0x86>
     c48:	04000793          	li	a5,64
     c4c:	04f58a63          	beq	a1,a5,ca0 <CAN_ClearITPendingBit+0x84>
     c50:	8082                	ret
     c52:	80058793          	addi	a5,a1,-2048
     c56:	cb8d                	beqz	a5,c88 <CAN_ClearITPendingBit+0x6c>
     c58:	6785                	lui	a5,0x1
     c5a:	80078793          	addi	a5,a5,-2048 # 800 <__stack_size>
     c5e:	00b7eb63          	bltu	a5,a1,c74 <CAN_ClearITPendingBit+0x58>
     c62:	20000793          	li	a5,512
     c66:	02f58363          	beq	a1,a5,c8c <CAN_ClearITPendingBit+0x70>
     c6a:	40000793          	li	a5,1024
     c6e:	00f58f63          	beq	a1,a5,c8c <CAN_ClearITPendingBit+0x70>
     c72:	8082                	ret
     c74:	67c1                	lui	a5,0x10
     c76:	02f58863          	beq	a1,a5,ca6 <CAN_ClearITPendingBit+0x8a>
     c7a:	000207b7          	lui	a5,0x20
     c7e:	02f58763          	beq	a1,a5,cac <CAN_ClearITPendingBit+0x90>
     c82:	67a1                	lui	a5,0x8
     c84:	02f59363          	bne	a1,a5,caa <CAN_ClearITPendingBit+0x8e>
     c88:	00052c23          	sw	zero,24(a0) # 10030018 <_data_lma+0x10023480>
     c8c:	4791                	li	a5,4
     c8e:	a829                	j	ca8 <CAN_ClearITPendingBit+0x8c>
     c90:	67c1                	lui	a5,0x10
     c92:	10178793          	addi	a5,a5,257 # 10101 <_data_lma+0x3569>
     c96:	c51c                	sw	a5,8(a0)
     c98:	8082                	ret
     c9a:	47c1                	li	a5,16
     c9c:	c55c                	sw	a5,12(a0)
     c9e:	8082                	ret
     ca0:	47c1                	li	a5,16
     ca2:	c91c                	sw	a5,16(a0)
     ca4:	8082                	ret
     ca6:	47a1                	li	a5,8
     ca8:	c15c                	sw	a5,4(a0)
     caa:	8082                	ret
     cac:	47c1                	li	a5,16
     cae:	bfed                	j	ca8 <CAN_ClearITPendingBit+0x8c>

00000cb0 <DBGMCU_GetCHIPID>:
     cb0:	1ffff7b7          	lui	a5,0x1ffff
     cb4:	7047a503          	lw	a0,1796(a5) # 1ffff704 <_data_lma+0x1fff2b6c>
     cb8:	8082                	ret

00000cba <DMA_DeInit>:
     cba:	411c                	lw	a5,0(a0)
     cbc:	6741                	lui	a4,0x10
     cbe:	1779                	addi	a4,a4,-2
     cc0:	8ff9                	and	a5,a5,a4
     cc2:	c11c                	sw	a5,0(a0)
     cc4:	00052023          	sw	zero,0(a0)
     cc8:	00052223          	sw	zero,4(a0)
     ccc:	00052423          	sw	zero,8(a0)
     cd0:	400207b7          	lui	a5,0x40020
     cd4:	00052623          	sw	zero,12(a0)
     cd8:	00878713          	addi	a4,a5,8 # 40020008 <_eusrstack+0x20018008>
     cdc:	00e51763          	bne	a0,a4,cea <DMA_DeInit+0x30>
     ce0:	43d8                	lw	a4,4(a5)
     ce2:	00f76713          	ori	a4,a4,15
     ce6:	c3d8                	sw	a4,4(a5)
     ce8:	8082                	ret
     cea:	01c78713          	addi	a4,a5,28
     cee:	00e51663          	bne	a0,a4,cfa <DMA_DeInit+0x40>
     cf2:	43d8                	lw	a4,4(a5)
     cf4:	0f076713          	ori	a4,a4,240
     cf8:	b7fd                	j	ce6 <DMA_DeInit+0x2c>
     cfa:	03078713          	addi	a4,a5,48
     cfe:	00e51863          	bne	a0,a4,d0e <DMA_DeInit+0x54>
     d02:	43d8                	lw	a4,4(a5)
     d04:	6685                	lui	a3,0x1
     d06:	f0068693          	addi	a3,a3,-256 # f00 <EXTI_Init+0x42>
     d0a:	8f55                	or	a4,a4,a3
     d0c:	bfe9                	j	ce6 <DMA_DeInit+0x2c>
     d0e:	04478713          	addi	a4,a5,68
     d12:	00e51563          	bne	a0,a4,d1c <DMA_DeInit+0x62>
     d16:	43d8                	lw	a4,4(a5)
     d18:	66bd                	lui	a3,0xf
     d1a:	bfc5                	j	d0a <DMA_DeInit+0x50>
     d1c:	05878713          	addi	a4,a5,88
     d20:	00e51663          	bne	a0,a4,d2c <DMA_DeInit+0x72>
     d24:	43d8                	lw	a4,4(a5)
     d26:	000f06b7          	lui	a3,0xf0
     d2a:	b7c5                	j	d0a <DMA_DeInit+0x50>
     d2c:	06c78713          	addi	a4,a5,108
     d30:	00e51663          	bne	a0,a4,d3c <DMA_DeInit+0x82>
     d34:	43d8                	lw	a4,4(a5)
     d36:	00f006b7          	lui	a3,0xf00
     d3a:	bfc1                	j	d0a <DMA_DeInit+0x50>
     d3c:	08078713          	addi	a4,a5,128
     d40:	00e51663          	bne	a0,a4,d4c <DMA_DeInit+0x92>
     d44:	43d8                	lw	a4,4(a5)
     d46:	0f0006b7          	lui	a3,0xf000
     d4a:	b7c1                	j	d0a <DMA_DeInit+0x50>
     d4c:	40878713          	addi	a4,a5,1032
     d50:	00e51963          	bne	a0,a4,d62 <DMA_DeInit+0xa8>
     d54:	4047a703          	lw	a4,1028(a5)
     d58:	00f76713          	ori	a4,a4,15
     d5c:	40e7a223          	sw	a4,1028(a5)
     d60:	8082                	ret
     d62:	41c78713          	addi	a4,a5,1052
     d66:	00e51763          	bne	a0,a4,d74 <DMA_DeInit+0xba>
     d6a:	4047a703          	lw	a4,1028(a5)
     d6e:	0f076713          	ori	a4,a4,240
     d72:	b7ed                	j	d5c <DMA_DeInit+0xa2>
     d74:	43078793          	addi	a5,a5,1072
     d78:	00f51b63          	bne	a0,a5,d8e <DMA_DeInit+0xd4>
     d7c:	400207b7          	lui	a5,0x40020
     d80:	4047a703          	lw	a4,1028(a5) # 40020404 <_eusrstack+0x20018404>
     d84:	6685                	lui	a3,0x1
     d86:	f0068693          	addi	a3,a3,-256 # f00 <EXTI_Init+0x42>
     d8a:	8f55                	or	a4,a4,a3
     d8c:	bfc1                	j	d5c <DMA_DeInit+0xa2>
     d8e:	400207b7          	lui	a5,0x40020
     d92:	44478713          	addi	a4,a5,1092 # 40020444 <_eusrstack+0x20018444>
     d96:	00e51663          	bne	a0,a4,da2 <DMA_DeInit+0xe8>
     d9a:	4047a703          	lw	a4,1028(a5)
     d9e:	66bd                	lui	a3,0xf
     da0:	b7ed                	j	d8a <DMA_DeInit+0xd0>
     da2:	45878713          	addi	a4,a5,1112
     da6:	00e51763          	bne	a0,a4,db4 <DMA_DeInit+0xfa>
     daa:	4047a703          	lw	a4,1028(a5)
     dae:	000f06b7          	lui	a3,0xf0
     db2:	bfe1                	j	d8a <DMA_DeInit+0xd0>
     db4:	46c78713          	addi	a4,a5,1132
     db8:	00e51763          	bne	a0,a4,dc6 <DMA_DeInit+0x10c>
     dbc:	4047a703          	lw	a4,1028(a5)
     dc0:	00f006b7          	lui	a3,0xf00
     dc4:	b7d9                	j	d8a <DMA_DeInit+0xd0>
     dc6:	48078713          	addi	a4,a5,1152
     dca:	00e51763          	bne	a0,a4,dd8 <DMA_DeInit+0x11e>
     dce:	4047a703          	lw	a4,1028(a5)
     dd2:	0f0006b7          	lui	a3,0xf000
     dd6:	bf55                	j	d8a <DMA_DeInit+0xd0>
     dd8:	49078713          	addi	a4,a5,1168
     ddc:	00e51963          	bne	a0,a4,dee <DMA_DeInit+0x134>
     de0:	4d47a703          	lw	a4,1236(a5)
     de4:	00f76713          	ori	a4,a4,15
     de8:	4ce7aa23          	sw	a4,1236(a5)
     dec:	8082                	ret
     dee:	4a078713          	addi	a4,a5,1184
     df2:	00e51763          	bne	a0,a4,e00 <DMA_DeInit+0x146>
     df6:	4d47a703          	lw	a4,1236(a5)
     dfa:	0f076713          	ori	a4,a4,240
     dfe:	b7ed                	j	de8 <DMA_DeInit+0x12e>
     e00:	4b078713          	addi	a4,a5,1200
     e04:	00e51963          	bne	a0,a4,e16 <DMA_DeInit+0x15c>
     e08:	4d47a703          	lw	a4,1236(a5)
     e0c:	6685                	lui	a3,0x1
     e0e:	f0068693          	addi	a3,a3,-256 # f00 <EXTI_Init+0x42>
     e12:	8f55                	or	a4,a4,a3
     e14:	bfd1                	j	de8 <DMA_DeInit+0x12e>
     e16:	4c078713          	addi	a4,a5,1216
     e1a:	fce519e3          	bne	a0,a4,dec <DMA_DeInit+0x132>
     e1e:	4d47a703          	lw	a4,1236(a5)
     e22:	66bd                	lui	a3,0xf
     e24:	b7fd                	j	e12 <DMA_DeInit+0x158>

00000e26 <DMA_Init>:
     e26:	411c                	lw	a5,0(a0)
     e28:	7761                	lui	a4,0xffff8
     e2a:	073d                	addi	a4,a4,15
     e2c:	5194                	lw	a3,32(a1)
     e2e:	8f7d                	and	a4,a4,a5
     e30:	459c                	lw	a5,8(a1)
     e32:	8fd5                	or	a5,a5,a3
     e34:	4994                	lw	a3,16(a1)
     e36:	8fd5                	or	a5,a5,a3
     e38:	49d4                	lw	a3,20(a1)
     e3a:	8fd5                	or	a5,a5,a3
     e3c:	4d94                	lw	a3,24(a1)
     e3e:	8fd5                	or	a5,a5,a3
     e40:	4dd4                	lw	a3,28(a1)
     e42:	8fd5                	or	a5,a5,a3
     e44:	51d4                	lw	a3,36(a1)
     e46:	8fd5                	or	a5,a5,a3
     e48:	5594                	lw	a3,40(a1)
     e4a:	8fd5                	or	a5,a5,a3
     e4c:	8fd9                	or	a5,a5,a4
     e4e:	c11c                	sw	a5,0(a0)
     e50:	45dc                	lw	a5,12(a1)
     e52:	c15c                	sw	a5,4(a0)
     e54:	419c                	lw	a5,0(a1)
     e56:	c51c                	sw	a5,8(a0)
     e58:	41dc                	lw	a5,4(a1)
     e5a:	c55c                	sw	a5,12(a0)
     e5c:	8082                	ret

00000e5e <DMA_Cmd>:
     e5e:	411c                	lw	a5,0(a0)
     e60:	c589                	beqz	a1,e6a <DMA_Cmd+0xc>
     e62:	0017e793          	ori	a5,a5,1
     e66:	c11c                	sw	a5,0(a0)
     e68:	8082                	ret
     e6a:	6741                	lui	a4,0x10
     e6c:	1779                	addi	a4,a4,-2
     e6e:	8ff9                	and	a5,a5,a4
     e70:	bfdd                	j	e66 <DMA_Cmd+0x8>

00000e72 <DMA_ITConfig>:
     e72:	411c                	lw	a5,0(a0)
     e74:	c601                	beqz	a2,e7c <DMA_ITConfig+0xa>
     e76:	8ddd                	or	a1,a1,a5
     e78:	c10c                	sw	a1,0(a0)
     e7a:	8082                	ret
     e7c:	fff5c593          	not	a1,a1
     e80:	8dfd                	and	a1,a1,a5
     e82:	bfdd                	j	e78 <DMA_ITConfig+0x6>

00000e84 <DMA_SetCurrDataCounter>:
     e84:	c14c                	sw	a1,4(a0)
     e86:	8082                	ret

00000e88 <DMA_ClearFlag>:
     e88:	00351793          	slli	a5,a0,0x3
     e8c:	0007d763          	bgez	a5,e9a <DMA_ClearFlag+0x12>
     e90:	400207b7          	lui	a5,0x40020
     e94:	40a7a223          	sw	a0,1028(a5) # 40020404 <_eusrstack+0x20018404>
     e98:	8082                	ret
     e9a:	00251793          	slli	a5,a0,0x2
     e9e:	0007d763          	bgez	a5,eac <DMA_ClearFlag+0x24>
     ea2:	400207b7          	lui	a5,0x40020
     ea6:	4ca7aa23          	sw	a0,1236(a5) # 400204d4 <_eusrstack+0x200184d4>
     eaa:	8082                	ret
     eac:	400207b7          	lui	a5,0x40020
     eb0:	c3c8                	sw	a0,4(a5)
     eb2:	8082                	ret

00000eb4 <DMA_ClearITPendingBit>:
     eb4:	b3cff2ef          	jal	t0,1f0 <__riscv_save_0>
     eb8:	3fc1                	jal	e88 <DMA_ClearFlag>
     eba:	b5aff06f          	j	214 <__riscv_restore_0>

00000ebe <EXTI_Init>:
     ebe:	4158                	lw	a4,4(a0)
     ec0:	00052803          	lw	a6,0(a0)
     ec4:	454c                	lw	a1,12(a0)
     ec6:	40010637          	lui	a2,0x40010
     eca:	40060793          	addi	a5,a2,1024 # 40010400 <_eusrstack+0x20008400>
     ece:	973e                	add	a4,a4,a5
     ed0:	fff84693          	not	a3,a6
     ed4:	c5b1                	beqz	a1,f20 <EXTI_Init+0x62>
     ed6:	40062583          	lw	a1,1024(a2)
     eda:	8df5                	and	a1,a1,a3
     edc:	40b62023          	sw	a1,1024(a2)
     ee0:	43d0                	lw	a2,4(a5)
     ee2:	8ef1                	and	a3,a3,a2
     ee4:	c3d4                	sw	a3,4(a5)
     ee6:	4314                	lw	a3,0(a4)
     ee8:	0106e6b3          	or	a3,a3,a6
     eec:	c314                	sw	a3,0(a4)
     eee:	4118                	lw	a4,0(a0)
     ef0:	4790                	lw	a2,8(a5)
     ef2:	fff74693          	not	a3,a4
     ef6:	8e75                	and	a2,a2,a3
     ef8:	c790                	sw	a2,8(a5)
     efa:	47d0                	lw	a2,12(a5)
     efc:	8ef1                	and	a3,a3,a2
     efe:	c7d4                	sw	a3,12(a5)
     f00:	4514                	lw	a3,8(a0)
     f02:	4641                	li	a2,16
     f04:	00c69963          	bne	a3,a2,f16 <EXTI_Init+0x58>
     f08:	4794                	lw	a3,8(a5)
     f0a:	8ed9                	or	a3,a3,a4
     f0c:	c794                	sw	a3,8(a5)
     f0e:	47d4                	lw	a3,12(a5)
     f10:	8f55                	or	a4,a4,a3
     f12:	c7d8                	sw	a4,12(a5)
     f14:	8082                	ret
     f16:	97b6                	add	a5,a5,a3
     f18:	4394                	lw	a3,0(a5)
     f1a:	8f55                	or	a4,a4,a3
     f1c:	c398                	sw	a4,0(a5)
     f1e:	8082                	ret
     f20:	431c                	lw	a5,0(a4)
     f22:	8ff5                	and	a5,a5,a3
     f24:	c31c                	sw	a5,0(a4)
     f26:	8082                	ret

00000f28 <EXTI_GetITStatus>:
     f28:	400107b7          	lui	a5,0x40010
     f2c:	40078713          	addi	a4,a5,1024 # 40010400 <_eusrstack+0x20008400>
     f30:	4007a783          	lw	a5,1024(a5)
     f34:	4b58                	lw	a4,20(a4)
     f36:	8f69                	and	a4,a4,a0
     f38:	c709                	beqz	a4,f42 <EXTI_GetITStatus+0x1a>
     f3a:	8d7d                	and	a0,a0,a5
     f3c:	00a03533          	snez	a0,a0
     f40:	8082                	ret
     f42:	4501                	li	a0,0
     f44:	8082                	ret

00000f46 <EXTI_ClearITPendingBit>:
     f46:	400107b7          	lui	a5,0x40010
     f4a:	40a7aa23          	sw	a0,1044(a5) # 40010414 <_eusrstack+0x20008414>
     f4e:	8082                	ret

00000f50 <GPIO_Init>:
     f50:	459c                	lw	a5,8(a1)
     f52:	0107f713          	andi	a4,a5,16
     f56:	00f7f813          	andi	a6,a5,15
     f5a:	c701                	beqz	a4,f62 <GPIO_Init+0x12>
     f5c:	41d8                	lw	a4,4(a1)
     f5e:	00e86833          	or	a6,a6,a4
     f62:	218e                	lhu	a1,0(a1)
     f64:	0ff5f713          	andi	a4,a1,255
     f68:	c339                	beqz	a4,fae <GPIO_Init+0x5e>
     f6a:	4118                	lw	a4,0(a0)
     f6c:	4681                	li	a3,0
     f6e:	4e85                	li	t4,1
     f70:	4f3d                	li	t5,15
     f72:	02800f93          	li	t6,40
     f76:	04800293          	li	t0,72
     f7a:	4e21                	li	t3,8
     f7c:	00de9633          	sll	a2,t4,a3
     f80:	00c5f8b3          	and	a7,a1,a2
     f84:	03161163          	bne	a2,a7,fa6 <GPIO_Init+0x56>
     f88:	00269893          	slli	a7,a3,0x2
     f8c:	011f1333          	sll	t1,t5,a7
     f90:	fff34313          	not	t1,t1
     f94:	00e37733          	and	a4,t1,a4
     f98:	011818b3          	sll	a7,a6,a7
     f9c:	00e8e733          	or	a4,a7,a4
     fa0:	05f79f63          	bne	a5,t6,ffe <GPIO_Init+0xae>
     fa4:	c950                	sw	a2,20(a0)
     fa6:	0685                	addi	a3,a3,1
     fa8:	fdc69ae3          	bne	a3,t3,f7c <GPIO_Init+0x2c>
     fac:	c118                	sw	a4,0(a0)
     fae:	0ff00713          	li	a4,255
     fb2:	04b77563          	bgeu	a4,a1,ffc <GPIO_Init+0xac>
     fb6:	4154                	lw	a3,4(a0)
     fb8:	4621                	li	a2,8
     fba:	4e85                	li	t4,1
     fbc:	4f3d                	li	t5,15
     fbe:	02800f93          	li	t6,40
     fc2:	04800293          	li	t0,72
     fc6:	4e41                	li	t3,16
     fc8:	00ce98b3          	sll	a7,t4,a2
     fcc:	0115f733          	and	a4,a1,a7
     fd0:	02e89263          	bne	a7,a4,ff4 <GPIO_Init+0xa4>
     fd4:	00261713          	slli	a4,a2,0x2
     fd8:	1701                	addi	a4,a4,-32
     fda:	00ef1333          	sll	t1,t5,a4
     fde:	fff34313          	not	t1,t1
     fe2:	00d376b3          	and	a3,t1,a3
     fe6:	00e81733          	sll	a4,a6,a4
     fea:	8ed9                	or	a3,a3,a4
     fec:	01f79d63          	bne	a5,t6,1006 <GPIO_Init+0xb6>
     ff0:	01152a23          	sw	a7,20(a0)
     ff4:	0605                	addi	a2,a2,1
     ff6:	fdc619e3          	bne	a2,t3,fc8 <GPIO_Init+0x78>
     ffa:	c154                	sw	a3,4(a0)
     ffc:	8082                	ret
     ffe:	fa5794e3          	bne	a5,t0,fa6 <GPIO_Init+0x56>
    1002:	c910                	sw	a2,16(a0)
    1004:	b74d                	j	fa6 <GPIO_Init+0x56>
    1006:	fe5797e3          	bne	a5,t0,ff4 <GPIO_Init+0xa4>
    100a:	01152823          	sw	a7,16(a0)
    100e:	b7dd                	j	ff4 <GPIO_Init+0xa4>

00001010 <GPIO_ReadInputDataBit>:
    1010:	4508                	lw	a0,8(a0)
    1012:	8d6d                	and	a0,a0,a1
    1014:	00a03533          	snez	a0,a0
    1018:	8082                	ret

0000101a <GPIO_WriteBit>:
    101a:	c219                	beqz	a2,1020 <GPIO_WriteBit+0x6>
    101c:	c90c                	sw	a1,16(a0)
    101e:	8082                	ret
    1020:	c94c                	sw	a1,20(a0)
    1022:	8082                	ret

00001024 <GPIO_PinRemapConfig>:
    1024:	400107b7          	lui	a5,0x40010
    1028:	04055a63          	bgez	a0,107c <GPIO_PinRemapConfig+0x58>
    102c:	4fdc                	lw	a5,28(a5)
    102e:	01055693          	srli	a3,a0,0x10
    1032:	01051813          	slli	a6,a0,0x10
    1036:	00300737          	lui	a4,0x300
    103a:	00f6f613          	andi	a2,a3,15
    103e:	01085813          	srli	a6,a6,0x10
    1042:	00e576b3          	and	a3,a0,a4
    1046:	06055063          	bgez	a0,10a6 <GPIO_PinRemapConfig+0x82>
    104a:	02e69b63          	bne	a3,a4,1080 <GPIO_PinRemapConfig+0x5c>
    104e:	01060693          	addi	a3,a2,16
    1052:	460d                	li	a2,3
    1054:	00d616b3          	sll	a3,a2,a3
    1058:	fff6c693          	not	a3,a3
    105c:	8ff5                	and	a5,a5,a3
    105e:	c999                	beqz	a1,1074 <GPIO_PinRemapConfig+0x50>
    1060:	01555713          	srli	a4,a0,0x15
    1064:	3ff77713          	andi	a4,a4,1023
    1068:	0712                	slli	a4,a4,0x4
    106a:	00e81733          	sll	a4,a6,a4
    106e:	8fd9                	or	a5,a5,a4
    1070:	04055763          	bgez	a0,10be <GPIO_PinRemapConfig+0x9a>
    1074:	40010737          	lui	a4,0x40010
    1078:	cf5c                	sw	a5,28(a4)
    107a:	8082                	ret
    107c:	43dc                	lw	a5,4(a5)
    107e:	bf45                	j	102e <GPIO_PinRemapConfig+0xa>
    1080:	00b51713          	slli	a4,a0,0xb
    1084:	00075663          	bgez	a4,1090 <GPIO_PinRemapConfig+0x6c>
    1088:	468d                	li	a3,3
    108a:	00c696b3          	sll	a3,a3,a2
    108e:	b7e9                	j	1058 <GPIO_PinRemapConfig+0x34>
    1090:	01555713          	srli	a4,a0,0x15
    1094:	3ff77713          	andi	a4,a4,1023
    1098:	0712                	slli	a4,a4,0x4
    109a:	00e81733          	sll	a4,a6,a4
    109e:	fff74713          	not	a4,a4
    10a2:	8ff9                	and	a5,a5,a4
    10a4:	bf6d                	j	105e <GPIO_PinRemapConfig+0x3a>
    10a6:	02e69063          	bne	a3,a4,10c6 <GPIO_PinRemapConfig+0xa2>
    10aa:	40010637          	lui	a2,0x40010
    10ae:	4254                	lw	a3,4(a2)
    10b0:	f1000737          	lui	a4,0xf1000
    10b4:	177d                	addi	a4,a4,-1
    10b6:	8ff9                	and	a5,a5,a4
    10b8:	8f75                	and	a4,a4,a3
    10ba:	c258                	sw	a4,4(a2)
    10bc:	f1d5                	bnez	a1,1060 <GPIO_PinRemapConfig+0x3c>
    10be:	40010737          	lui	a4,0x40010
    10c2:	c35c                	sw	a5,4(a4)
    10c4:	8082                	ret
    10c6:	00b51713          	slli	a4,a0,0xb
    10ca:	00075c63          	bgez	a4,10e2 <GPIO_PinRemapConfig+0xbe>
    10ce:	468d                	li	a3,3
    10d0:	00c696b3          	sll	a3,a3,a2
    10d4:	fff6c693          	not	a3,a3
    10d8:	8efd                	and	a3,a3,a5
    10da:	0f0007b7          	lui	a5,0xf000
    10de:	8fd5                	or	a5,a5,a3
    10e0:	bff1                	j	10bc <GPIO_PinRemapConfig+0x98>
    10e2:	01555713          	srli	a4,a0,0x15
    10e6:	0712                	slli	a4,a4,0x4
    10e8:	00e81733          	sll	a4,a6,a4
    10ec:	fff74713          	not	a4,a4
    10f0:	8f7d                	and	a4,a4,a5
    10f2:	0f0007b7          	lui	a5,0xf000
    10f6:	8fd9                	or	a5,a5,a4
    10f8:	b7d1                	j	10bc <GPIO_PinRemapConfig+0x98>

000010fa <GPIO_EXTILineConfig>:
    10fa:	0fc5f713          	andi	a4,a1,252
    10fe:	0035f793          	andi	a5,a1,3
    1102:	400105b7          	lui	a1,0x40010
    1106:	95ba                	add	a1,a1,a4
    1108:	4594                	lw	a3,8(a1)
    110a:	078a                	slli	a5,a5,0x2
    110c:	473d                	li	a4,15
    110e:	00f71733          	sll	a4,a4,a5
    1112:	fff74713          	not	a4,a4
    1116:	8f75                	and	a4,a4,a3
    1118:	c598                	sw	a4,8(a1)
    111a:	4598                	lw	a4,8(a1)
    111c:	00f51533          	sll	a0,a0,a5
    1120:	8d59                	or	a0,a0,a4
    1122:	c588                	sw	a0,8(a1)
    1124:	8082                	ret

00001126 <NVIC_Init>:
    1126:	8701a703          	lw	a4,-1936(gp) # 200000f0 <_edata>
    112a:	4789                	li	a5,2
    112c:	2110                	lbu	a2,0(a0)
    112e:	02f71163          	bne	a4,a5,1150 <NVIC_Init+0x2a>
    1132:	3114                	lbu	a3,1(a0)
    1134:	478d                	li	a5,3
    1136:	00d7ed63          	bltu	a5,a3,1150 <NVIC_Init+0x2a>
    113a:	213c                	lbu	a5,2(a0)
    113c:	069a                	slli	a3,a3,0x6
    113e:	e000e737          	lui	a4,0xe000e
    1142:	0796                	slli	a5,a5,0x5
    1144:	8fd5                	or	a5,a5,a3
    1146:	0ff7f793          	andi	a5,a5,255
    114a:	9732                	add	a4,a4,a2
    114c:	40f70023          	sb	a5,1024(a4) # e000e400 <_eusrstack+0xc0006400>
    1150:	4154                	lw	a3,4(a0)
    1152:	4705                	li	a4,1
    1154:	00565793          	srli	a5,a2,0x5
    1158:	00c71733          	sll	a4,a4,a2
    115c:	ca89                	beqz	a3,116e <NVIC_Init+0x48>
    115e:	04078793          	addi	a5,a5,64 # f000040 <_data_lma+0xeff34a8>
    1162:	078a                	slli	a5,a5,0x2
    1164:	e000e6b7          	lui	a3,0xe000e
    1168:	97b6                	add	a5,a5,a3
    116a:	c398                	sw	a4,0(a5)
    116c:	8082                	ret
    116e:	06078793          	addi	a5,a5,96
    1172:	e000e6b7          	lui	a3,0xe000e
    1176:	078a                	slli	a5,a5,0x2
    1178:	97b6                	add	a5,a5,a3
    117a:	c398                	sw	a4,0(a5)
    117c:	0000100f          	fence.i
    1180:	8082                	ret

00001182 <RCC_GetClocksFreq>:
    1182:	40021737          	lui	a4,0x40021
    1186:	435c                	lw	a5,4(a4)
    1188:	4691                	li	a3,4
    118a:	8bb1                	andi	a5,a5,12
    118c:	00d78563          	beq	a5,a3,1196 <RCC_GetClocksFreq+0x14>
    1190:	46a1                	li	a3,8
    1192:	06d78263          	beq	a5,a3,11f6 <RCC_GetClocksFreq+0x74>
    1196:	007a17b7          	lui	a5,0x7a1
    119a:	20078793          	addi	a5,a5,512 # 7a1200 <_data_lma+0x794668>
    119e:	c11c                	sw	a5,0(a0)
    11a0:	40021637          	lui	a2,0x40021
    11a4:	425c                	lw	a5,4(a2)
    11a6:	20000737          	lui	a4,0x20000
    11aa:	01070713          	addi	a4,a4,16 # 20000010 <APBAHBPrescTable>
    11ae:	8391                	srli	a5,a5,0x4
    11b0:	8bbd                	andi	a5,a5,15
    11b2:	97ba                	add	a5,a5,a4
    11b4:	2394                	lbu	a3,0(a5)
    11b6:	411c                	lw	a5,0(a0)
    11b8:	00d7d7b3          	srl	a5,a5,a3
    11bc:	c15c                	sw	a5,4(a0)
    11be:	4254                	lw	a3,4(a2)
    11c0:	82a1                	srli	a3,a3,0x8
    11c2:	8a9d                	andi	a3,a3,7
    11c4:	96ba                	add	a3,a3,a4
    11c6:	2294                	lbu	a3,0(a3)
    11c8:	00d7d6b3          	srl	a3,a5,a3
    11cc:	c514                	sw	a3,8(a0)
    11ce:	4254                	lw	a3,4(a2)
    11d0:	82ad                	srli	a3,a3,0xb
    11d2:	8a9d                	andi	a3,a3,7
    11d4:	9736                	add	a4,a4,a3
    11d6:	2318                	lbu	a4,0(a4)
    11d8:	00e7d7b3          	srl	a5,a5,a4
    11dc:	c55c                	sw	a5,12(a0)
    11de:	4258                	lw	a4,4(a2)
    11e0:	8339                	srli	a4,a4,0xe
    11e2:	00377693          	andi	a3,a4,3
    11e6:	80418713          	addi	a4,gp,-2044 # 20000084 <ADCPrescTable>
    11ea:	9736                	add	a4,a4,a3
    11ec:	2318                	lbu	a4,0(a4)
    11ee:	02e7d7b3          	divu	a5,a5,a4
    11f2:	c91c                	sw	a5,16(a0)
    11f4:	8082                	ret
    11f6:	435c                	lw	a5,4(a4)
    11f8:	4358                	lw	a4,4(a4)
    11fa:	66c1                	lui	a3,0x10
    11fc:	83c9                	srli	a5,a5,0x12
    11fe:	8f75                	and	a4,a4,a3
    1200:	1ffff6b7          	lui	a3,0x1ffff
    1204:	70c6a683          	lw	a3,1804(a3) # 1ffff70c <_data_lma+0x1fff2b74>
    1208:	8bbd                	andi	a5,a5,15
    120a:	0789                	addi	a5,a5,2
    120c:	01169613          	slli	a2,a3,0x11
    1210:	00064863          	bltz	a2,1220 <RCC_GetClocksFreq+0x9e>
    1214:	46c5                	li	a3,17
    1216:	4601                	li	a2,0
    1218:	02d79263          	bne	a5,a3,123c <RCC_GetClocksFreq+0xba>
    121c:	47c9                	li	a5,18
    121e:	a839                	j	123c <RCC_GetClocksFreq+0xba>
    1220:	4689                	li	a3,2
    1222:	02d78f63          	beq	a5,a3,1260 <RCC_GetClocksFreq+0xde>
    1226:	46bd                	li	a3,15
    1228:	02d78e63          	beq	a5,a3,1264 <RCC_GetClocksFreq+0xe2>
    122c:	46c1                	li	a3,16
    122e:	02d78e63          	beq	a5,a3,126a <RCC_GetClocksFreq+0xe8>
    1232:	46c5                	li	a3,17
    1234:	4601                	li	a2,0
    1236:	00d79363          	bne	a5,a3,123c <RCC_GetClocksFreq+0xba>
    123a:	47c1                	li	a5,16
    123c:	ef1d                	bnez	a4,127a <RCC_GetClocksFreq+0xf8>
    123e:	40024737          	lui	a4,0x40024
    1242:	80072703          	lw	a4,-2048(a4) # 40023800 <_eusrstack+0x2001b800>
    1246:	8b41                	andi	a4,a4,16
    1248:	c705                	beqz	a4,1270 <RCC_GetClocksFreq+0xee>
    124a:	007a1737          	lui	a4,0x7a1
    124e:	20070713          	addi	a4,a4,512 # 7a1200 <_data_lma+0x794668>
    1252:	02f707b3          	mul	a5,a4,a5
    1256:	c11c                	sw	a5,0(a0)
    1258:	d621                	beqz	a2,11a0 <RCC_GetClocksFreq+0x1e>
    125a:	411c                	lw	a5,0(a0)
    125c:	8385                	srli	a5,a5,0x1
    125e:	b781                	j	119e <RCC_GetClocksFreq+0x1c>
    1260:	4601                	li	a2,0
    1262:	bf6d                	j	121c <RCC_GetClocksFreq+0x9a>
    1264:	4605                	li	a2,1
    1266:	47b5                	li	a5,13
    1268:	bfd1                	j	123c <RCC_GetClocksFreq+0xba>
    126a:	4601                	li	a2,0
    126c:	47bd                	li	a5,15
    126e:	b7f9                	j	123c <RCC_GetClocksFreq+0xba>
    1270:	003d1737          	lui	a4,0x3d1
    1274:	90070713          	addi	a4,a4,-1792 # 3d0900 <_data_lma+0x3c3d68>
    1278:	bfe9                	j	1252 <RCC_GetClocksFreq+0xd0>
    127a:	400215b7          	lui	a1,0x40021
    127e:	55d8                	lw	a4,44(a1)
    1280:	00f71693          	slli	a3,a4,0xf
    1284:	55d8                	lw	a4,44(a1)
    1286:	0406df63          	bgez	a3,12e4 <RCC_GetClocksFreq+0x162>
    128a:	8311                	srli	a4,a4,0x4
    128c:	8b3d                	andi	a4,a4,15
    128e:	00170693          	addi	a3,a4,1
    1292:	007a1737          	lui	a4,0x7a1
    1296:	20070713          	addi	a4,a4,512 # 7a1200 <_data_lma+0x794668>
    129a:	02d75733          	divu	a4,a4,a3
    129e:	c118                	sw	a4,0(a0)
    12a0:	55d4                	lw	a3,44(a1)
    12a2:	82a1                	srli	a3,a3,0x8
    12a4:	8abd                	andi	a3,a3,15
    12a6:	e28d                	bnez	a3,12c8 <RCC_GetClocksFreq+0x146>
    12a8:	4695                	li	a3,5
    12aa:	02d70733          	mul	a4,a4,a3
    12ae:	8305                	srli	a4,a4,0x1
    12b0:	c118                	sw	a4,0(a0)
    12b2:	40021737          	lui	a4,0x40021
    12b6:	5758                	lw	a4,44(a4)
    12b8:	4114                	lw	a3,0(a0)
    12ba:	8b3d                	andi	a4,a4,15
    12bc:	0705                	addi	a4,a4,1
    12be:	02e6d733          	divu	a4,a3,a4
    12c2:	c118                	sw	a4,0(a0)
    12c4:	4118                	lw	a4,0(a0)
    12c6:	b771                	j	1252 <RCC_GetClocksFreq+0xd0>
    12c8:	4585                	li	a1,1
    12ca:	00b69463          	bne	a3,a1,12d2 <RCC_GetClocksFreq+0x150>
    12ce:	46e5                	li	a3,25
    12d0:	bfe9                	j	12aa <RCC_GetClocksFreq+0x128>
    12d2:	45bd                	li	a1,15
    12d4:	00b69663          	bne	a3,a1,12e0 <RCC_GetClocksFreq+0x15e>
    12d8:	46d1                	li	a3,20
    12da:	02e68733          	mul	a4,a3,a4
    12de:	bfc9                	j	12b0 <RCC_GetClocksFreq+0x12e>
    12e0:	0689                	addi	a3,a3,2
    12e2:	bfe5                	j	12da <RCC_GetClocksFreq+0x158>
    12e4:	8b3d                	andi	a4,a4,15
    12e6:	00170693          	addi	a3,a4,1 # 40021001 <_eusrstack+0x20019001>
    12ea:	007a1737          	lui	a4,0x7a1
    12ee:	20070713          	addi	a4,a4,512 # 7a1200 <_data_lma+0x794668>
    12f2:	02d75733          	divu	a4,a4,a3
    12f6:	b7f1                	j	12c2 <RCC_GetClocksFreq+0x140>

000012f8 <RCC_AHBPeriphClockCmd>:
    12f8:	c599                	beqz	a1,1306 <RCC_AHBPeriphClockCmd+0xe>
    12fa:	40021737          	lui	a4,0x40021
    12fe:	4b5c                	lw	a5,20(a4)
    1300:	8d5d                	or	a0,a0,a5
    1302:	cb48                	sw	a0,20(a4)
    1304:	8082                	ret
    1306:	400217b7          	lui	a5,0x40021
    130a:	4bd8                	lw	a4,20(a5)
    130c:	fff54513          	not	a0,a0
    1310:	8d79                	and	a0,a0,a4
    1312:	cbc8                	sw	a0,20(a5)
    1314:	8082                	ret

00001316 <RCC_APB2PeriphClockCmd>:
    1316:	c599                	beqz	a1,1324 <RCC_APB2PeriphClockCmd+0xe>
    1318:	40021737          	lui	a4,0x40021
    131c:	4f1c                	lw	a5,24(a4)
    131e:	8d5d                	or	a0,a0,a5
    1320:	cf08                	sw	a0,24(a4)
    1322:	8082                	ret
    1324:	400217b7          	lui	a5,0x40021
    1328:	4f98                	lw	a4,24(a5)
    132a:	fff54513          	not	a0,a0
    132e:	8d79                	and	a0,a0,a4
    1330:	cf88                	sw	a0,24(a5)
    1332:	8082                	ret

00001334 <RCC_APB1PeriphClockCmd>:
    1334:	c599                	beqz	a1,1342 <RCC_APB1PeriphClockCmd+0xe>
    1336:	40021737          	lui	a4,0x40021
    133a:	4f5c                	lw	a5,28(a4)
    133c:	8d5d                	or	a0,a0,a5
    133e:	cf48                	sw	a0,28(a4)
    1340:	8082                	ret
    1342:	400217b7          	lui	a5,0x40021
    1346:	4fd8                	lw	a4,28(a5)
    1348:	fff54513          	not	a0,a0
    134c:	8d79                	and	a0,a0,a4
    134e:	cfc8                	sw	a0,28(a5)
    1350:	8082                	ret

00001352 <TIM_TimeBaseInit>:
    1352:	1ffff737          	lui	a4,0x1ffff
    1356:	70472703          	lw	a4,1796(a4) # 1ffff704 <_data_lma+0x1fff2b6c>
    135a:	211e                	lhu	a5,0(a0)
    135c:	4691                	li	a3,4
    135e:	8311                	srli	a4,a4,0x4
    1360:	8b3d                	andi	a4,a4,15
    1362:	07c2                	slli	a5,a5,0x10
    1364:	1771                	addi	a4,a4,-4
    1366:	83c1                	srli	a5,a5,0x10
    1368:	02e6e663          	bltu	a3,a4,1394 <TIM_TimeBaseInit+0x42>
    136c:	40013737          	lui	a4,0x40013
    1370:	c0070693          	addi	a3,a4,-1024 # 40012c00 <_eusrstack+0x2000ac00>
    1374:	00d50e63          	beq	a0,a3,1390 <TIM_TimeBaseInit+0x3e>
    1378:	40070713          	addi	a4,a4,1024
    137c:	00e50a63          	beq	a0,a4,1390 <TIM_TimeBaseInit+0x3e>
    1380:	40015737          	lui	a4,0x40015
    1384:	c0070693          	addi	a3,a4,-1024 # 40014c00 <_eusrstack+0x2000cc00>
    1388:	00d50463          	beq	a0,a3,1390 <TIM_TimeBaseInit+0x3e>
    138c:	00e51a63          	bne	a0,a4,13a0 <TIM_TimeBaseInit+0x4e>
    1390:	6709                	lui	a4,0x2
    1392:	8fd9                	or	a5,a5,a4
    1394:	40013737          	lui	a4,0x40013
    1398:	c0070713          	addi	a4,a4,-1024 # 40012c00 <_eusrstack+0x2000ac00>
    139c:	04e50263          	beq	a0,a4,13e0 <TIM_TimeBaseInit+0x8e>
    13a0:	40000737          	lui	a4,0x40000
    13a4:	02e50e63          	beq	a0,a4,13e0 <TIM_TimeBaseInit+0x8e>
    13a8:	40070713          	addi	a4,a4,1024 # 40000400 <_eusrstack+0x1fff8400>
    13ac:	02e50a63          	beq	a0,a4,13e0 <TIM_TimeBaseInit+0x8e>
    13b0:	40001737          	lui	a4,0x40001
    13b4:	80070693          	addi	a3,a4,-2048 # 40000800 <_eusrstack+0x1fff8800>
    13b8:	02d50463          	beq	a0,a3,13e0 <TIM_TimeBaseInit+0x8e>
    13bc:	c0070713          	addi	a4,a4,-1024
    13c0:	02e50063          	beq	a0,a4,13e0 <TIM_TimeBaseInit+0x8e>
    13c4:	40013737          	lui	a4,0x40013
    13c8:	40070713          	addi	a4,a4,1024 # 40013400 <_eusrstack+0x2000b400>
    13cc:	00e50a63          	beq	a0,a4,13e0 <TIM_TimeBaseInit+0x8e>
    13d0:	40015737          	lui	a4,0x40015
    13d4:	c0070693          	addi	a3,a4,-1024 # 40014c00 <_eusrstack+0x2000cc00>
    13d8:	00d50463          	beq	a0,a3,13e0 <TIM_TimeBaseInit+0x8e>
    13dc:	00e51863          	bne	a0,a4,13ec <TIM_TimeBaseInit+0x9a>
    13e0:	f8f7f793          	andi	a5,a5,-113
    13e4:	21ba                	lhu	a4,2(a1)
    13e6:	07c2                	slli	a5,a5,0x10
    13e8:	83c1                	srli	a5,a5,0x10
    13ea:	8fd9                	or	a5,a5,a4
    13ec:	40001737          	lui	a4,0x40001
    13f0:	00e50c63          	beq	a0,a4,1408 <TIM_TimeBaseInit+0xb6>
    13f4:	40070713          	addi	a4,a4,1024 # 40001400 <_eusrstack+0x1fff9400>
    13f8:	00e50863          	beq	a0,a4,1408 <TIM_TimeBaseInit+0xb6>
    13fc:	cff7f793          	andi	a5,a5,-769
    1400:	21fa                	lhu	a4,6(a1)
    1402:	07c2                	slli	a5,a5,0x10
    1404:	83c1                	srli	a5,a5,0x10
    1406:	8fd9                	or	a5,a5,a4
    1408:	a11e                	sh	a5,0(a0)
    140a:	21de                	lhu	a5,4(a1)
    140c:	b55e                	sh	a5,44(a0)
    140e:	219e                	lhu	a5,0(a1)
    1410:	b51e                	sh	a5,40(a0)
    1412:	400137b7          	lui	a5,0x40013
    1416:	c0078713          	addi	a4,a5,-1024 # 40012c00 <_eusrstack+0x2000ac00>
    141a:	00e50e63          	beq	a0,a4,1436 <TIM_TimeBaseInit+0xe4>
    141e:	40078793          	addi	a5,a5,1024
    1422:	00f50a63          	beq	a0,a5,1436 <TIM_TimeBaseInit+0xe4>
    1426:	400157b7          	lui	a5,0x40015
    142a:	c0078713          	addi	a4,a5,-1024 # 40014c00 <_eusrstack+0x2000cc00>
    142e:	00e50463          	beq	a0,a4,1436 <TIM_TimeBaseInit+0xe4>
    1432:	00f51463          	bne	a0,a5,143a <TIM_TimeBaseInit+0xe8>
    1436:	259c                	lbu	a5,8(a1)
    1438:	b91e                	sh	a5,48(a0)
    143a:	4785                	li	a5,1
    143c:	a95e                	sh	a5,20(a0)
    143e:	8082                	ret

00001440 <TIM_Cmd>:
    1440:	211e                	lhu	a5,0(a0)
    1442:	c589                	beqz	a1,144c <TIM_Cmd+0xc>
    1444:	0017e793          	ori	a5,a5,1
    1448:	a11e                	sh	a5,0(a0)
    144a:	8082                	ret
    144c:	07c2                	slli	a5,a5,0x10
    144e:	83c1                	srli	a5,a5,0x10
    1450:	9bf9                	andi	a5,a5,-2
    1452:	07c2                	slli	a5,a5,0x10
    1454:	83c1                	srli	a5,a5,0x10
    1456:	bfcd                	j	1448 <TIM_Cmd+0x8>

00001458 <TIM_ITConfig>:
    1458:	255e                	lhu	a5,12(a0)
    145a:	c601                	beqz	a2,1462 <TIM_ITConfig+0xa>
    145c:	8ddd                	or	a1,a1,a5
    145e:	a54e                	sh	a1,12(a0)
    1460:	8082                	ret
    1462:	fff5c593          	not	a1,a1
    1466:	8dfd                	and	a1,a1,a5
    1468:	bfdd                	j	145e <TIM_ITConfig+0x6>

0000146a <TIM_InternalClockConfig>:
    146a:	251e                	lhu	a5,8(a0)
    146c:	07c2                	slli	a5,a5,0x10
    146e:	83c1                	srli	a5,a5,0x10
    1470:	9be1                	andi	a5,a5,-8
    1472:	07c2                	slli	a5,a5,0x10
    1474:	83c1                	srli	a5,a5,0x10
    1476:	a51e                	sh	a5,8(a0)
    1478:	8082                	ret

0000147a <TIM_GetITStatus>:
    147a:	291e                	lhu	a5,16(a0)
    147c:	254a                	lhu	a0,12(a0)
    147e:	8fed                	and	a5,a5,a1
    1480:	0542                	slli	a0,a0,0x10
    1482:	8141                	srli	a0,a0,0x10
    1484:	c789                	beqz	a5,148e <TIM_GetITStatus+0x14>
    1486:	8d6d                	and	a0,a0,a1
    1488:	00a03533          	snez	a0,a0
    148c:	8082                	ret
    148e:	4501                	li	a0,0
    1490:	8082                	ret

00001492 <TIM_ClearITPendingBit>:
    1492:	fff5c593          	not	a1,a1
    1496:	05c2                	slli	a1,a1,0x10
    1498:	81c1                	srli	a1,a1,0x10
    149a:	a90e                	sh	a1,16(a0)
    149c:	8082                	ret

0000149e <USART_Init>:
    149e:	d53fe2ef          	jal	t0,1f0 <__riscv_save_0>
    14a2:	2916                	lhu	a3,16(a0)
    14a4:	77f5                	lui	a5,0xffffd
    14a6:	17fd                	addi	a5,a5,-1
    14a8:	8ff5                	and	a5,a5,a3
    14aa:	21f6                	lhu	a3,6(a1)
    14ac:	25da                	lhu	a4,12(a1)
    14ae:	7179                	addi	sp,sp,-48
    14b0:	8fd5                	or	a5,a5,a3
    14b2:	a91e                	sh	a5,16(a0)
    14b4:	2556                	lhu	a3,12(a0)
    14b6:	77fd                	lui	a5,0xfffff
    14b8:	9f378793          	addi	a5,a5,-1549 # ffffe9f3 <_eusrstack+0xdfff69f3>
    14bc:	8ff5                	and	a5,a5,a3
    14be:	21d6                	lhu	a3,4(a1)
    14c0:	842a                	mv	s0,a0
    14c2:	c62e                	sw	a1,12(sp)
    14c4:	8fd5                	or	a5,a5,a3
    14c6:	2596                	lhu	a3,8(a1)
    14c8:	8fd5                	or	a5,a5,a3
    14ca:	25b6                	lhu	a3,10(a1)
    14cc:	8fd5                	or	a5,a5,a3
    14ce:	a55e                	sh	a5,12(a0)
    14d0:	295e                	lhu	a5,20(a0)
    14d2:	07c2                	slli	a5,a5,0x10
    14d4:	83c1                	srli	a5,a5,0x10
    14d6:	cff7f793          	andi	a5,a5,-769
    14da:	8fd9                	or	a5,a5,a4
    14dc:	a95e                	sh	a5,20(a0)
    14de:	0868                	addi	a0,sp,28
    14e0:	314d                	jal	1182 <RCC_GetClocksFreq>
    14e2:	400147b7          	lui	a5,0x40014
    14e6:	80078793          	addi	a5,a5,-2048 # 40013800 <_eusrstack+0x2000b800>
    14ea:	45b2                	lw	a1,12(sp)
    14ec:	02f41e63          	bne	s0,a5,1528 <USART_Init+0x8a>
    14f0:	57a2                	lw	a5,40(sp)
    14f2:	4765                	li	a4,25
    14f4:	02e787b3          	mul	a5,a5,a4
    14f8:	4198                	lw	a4,0(a1)
    14fa:	06400693          	li	a3,100
    14fe:	070a                	slli	a4,a4,0x2
    1500:	02e7d7b3          	divu	a5,a5,a4
    1504:	02d7d733          	divu	a4,a5,a3
    1508:	02d7f7b3          	remu	a5,a5,a3
    150c:	0712                	slli	a4,a4,0x4
    150e:	0792                	slli	a5,a5,0x4
    1510:	03278793          	addi	a5,a5,50
    1514:	02d7d7b3          	divu	a5,a5,a3
    1518:	8bbd                	andi	a5,a5,15
    151a:	8fd9                	or	a5,a5,a4
    151c:	07c2                	slli	a5,a5,0x10
    151e:	83c1                	srli	a5,a5,0x10
    1520:	a41e                	sh	a5,8(s0)
    1522:	6145                	addi	sp,sp,48
    1524:	cf1fe06f          	j	214 <__riscv_restore_0>
    1528:	5792                	lw	a5,36(sp)
    152a:	b7e1                	j	14f2 <USART_Init+0x54>

0000152c <USART_Cmd>:
    152c:	c591                	beqz	a1,1538 <USART_Cmd+0xc>
    152e:	255e                	lhu	a5,12(a0)
    1530:	6709                	lui	a4,0x2
    1532:	8fd9                	or	a5,a5,a4
    1534:	a55e                	sh	a5,12(a0)
    1536:	8082                	ret
    1538:	255a                	lhu	a4,12(a0)
    153a:	77f9                	lui	a5,0xffffe
    153c:	17fd                	addi	a5,a5,-1
    153e:	8ff9                	and	a5,a5,a4
    1540:	bfd5                	j	1534 <USART_Cmd+0x8>

00001542 <USART_ITConfig>:
    1542:	0ff5f713          	andi	a4,a1,255
    1546:	4785                	li	a5,1
    1548:	8315                	srli	a4,a4,0x5
    154a:	00b795b3          	sll	a1,a5,a1
    154e:	00f71963          	bne	a4,a5,1560 <USART_ITConfig+0x1e>
    1552:	00c50793          	addi	a5,a0,12
    1556:	4398                	lw	a4,0(a5)
    1558:	ce01                	beqz	a2,1570 <USART_ITConfig+0x2e>
    155a:	8dd9                	or	a1,a1,a4
    155c:	c38c                	sw	a1,0(a5)
    155e:	8082                	ret
    1560:	4689                	li	a3,2
    1562:	01450793          	addi	a5,a0,20
    1566:	fed718e3          	bne	a4,a3,1556 <USART_ITConfig+0x14>
    156a:	01050793          	addi	a5,a0,16
    156e:	b7e5                	j	1556 <USART_ITConfig+0x14>
    1570:	fff5c593          	not	a1,a1
    1574:	8df9                	and	a1,a1,a4
    1576:	b7dd                	j	155c <USART_ITConfig+0x1a>

00001578 <USART_DMACmd>:
    1578:	295e                	lhu	a5,20(a0)
    157a:	c601                	beqz	a2,1582 <USART_DMACmd+0xa>
    157c:	8ddd                	or	a1,a1,a5
    157e:	a94e                	sh	a1,20(a0)
    1580:	8082                	ret
    1582:	fff5c593          	not	a1,a1
    1586:	8dfd                	and	a1,a1,a5
    1588:	bfdd                	j	157e <USART_DMACmd+0x6>

0000158a <USART_SendData>:
    158a:	1ff5f593          	andi	a1,a1,511
    158e:	a14e                	sh	a1,4(a0)
    1590:	8082                	ret

00001592 <USART_ReceiveData>:
    1592:	214a                	lhu	a0,4(a0)
    1594:	1ff57513          	andi	a0,a0,511
    1598:	8082                	ret

0000159a <USART_GetFlagStatus>:
    159a:	210a                	lhu	a0,0(a0)
    159c:	8d6d                	and	a0,a0,a1
    159e:	00a03533          	snez	a0,a0
    15a2:	8082                	ret

000015a4 <USART_GetITStatus>:
    15a4:	0ff5f713          	andi	a4,a1,255
    15a8:	4685                	li	a3,1
    15aa:	8315                	srli	a4,a4,0x5
    15ac:	00b697b3          	sll	a5,a3,a1
    15b0:	02d71163          	bne	a4,a3,15d2 <USART_GetITStatus+0x2e>
    15b4:	255a                	lhu	a4,12(a0)
    15b6:	8ff9                	and	a5,a5,a4
    15b8:	211a                	lhu	a4,0(a0)
    15ba:	4501                	li	a0,0
    15bc:	0742                	slli	a4,a4,0x10
    15be:	8341                	srli	a4,a4,0x10
    15c0:	cb81                	beqz	a5,15d0 <USART_GetITStatus+0x2c>
    15c2:	4505                	li	a0,1
    15c4:	81a1                	srli	a1,a1,0x8
    15c6:	00b515b3          	sll	a1,a0,a1
    15ca:	8f6d                	and	a4,a4,a1
    15cc:	00e03533          	snez	a0,a4
    15d0:	8082                	ret
    15d2:	4689                	li	a3,2
    15d4:	00d71463          	bne	a4,a3,15dc <USART_GetITStatus+0x38>
    15d8:	291a                	lhu	a4,16(a0)
    15da:	bff1                	j	15b6 <USART_GetITStatus+0x12>
    15dc:	295a                	lhu	a4,20(a0)
    15de:	bfe1                	j	15b6 <USART_GetITStatus+0x12>

000015e0 <print_joint_angles>:
    15e0:	c11fe2ef          	jal	t0,1f0 <__riscv_save_0>
    15e4:	8e41a507          	flw	fa0,-1820(gp) # 20000164 <J3_global>
    15e8:	7139                	addi	sp,sp,-64
    15ea:	7a1090ef          	jal	ra,b58a <__extendsfdf2>
    15ee:	8e01a507          	flw	fa0,-1824(gp) # 20000160 <J2_global>
    15f2:	dc2a                	sw	a0,56(sp)
    15f4:	de2e                	sw	a1,60(sp)
    15f6:	795090ef          	jal	ra,b58a <__extendsfdf2>
    15fa:	8dc1a507          	flw	fa0,-1828(gp) # 2000015c <J1_global>
    15fe:	d82a                	sw	a0,48(sp)
    1600:	da2e                	sw	a1,52(sp)
    1602:	789090ef          	jal	ra,b58a <__extendsfdf2>
    1606:	d62e                	sw	a1,44(sp)
    1608:	8981a507          	flw	fa0,-1896(gp) # 20000118 <cebai_angle>
    160c:	d42a                	sw	a0,40(sp)
    160e:	77d090ef          	jal	ra,b58a <__extendsfdf2>
    1612:	ca2e                	sw	a1,20(sp)
    1614:	8ec1a507          	flw	fa0,-1812(gp) # 2000016c <J5_global>
    1618:	c82a                	sw	a0,16(sp)
    161a:	771090ef          	jal	ra,b58a <__extendsfdf2>
    161e:	c62e                	sw	a1,12(sp)
    1620:	8e81a507          	flw	fa0,-1816(gp) # 20000168 <J4_global>
    1624:	c42a                	sw	a0,8(sp)
    1626:	765090ef          	jal	ra,b58a <__extendsfdf2>
    162a:	5862                	lw	a6,56(sp)
    162c:	58f2                	lw	a7,60(sp)
    162e:	5742                	lw	a4,48(sp)
    1630:	57d2                	lw	a5,52(sp)
    1632:	5622                	lw	a2,40(sp)
    1634:	56b2                	lw	a3,44(sp)
    1636:	c02a                	sw	a0,0(sp)
    1638:	0000c537          	lui	a0,0xc
    163c:	c22e                	sw	a1,4(sp)
    163e:	c5c50513          	addi	a0,a0,-932 # bc5c <strlen+0x1a4>
    1642:	623060ef          	jal	ra,8464 <printf>
    1646:	6121                	addi	sp,sp,64
    1648:	bcdfe06f          	j	214 <__riscv_restore_0>

0000164c <start_return_delay>:
    164c:	ba5fe2ef          	jal	t0,1f0 <__riscv_save_0>
    1650:	715d                	addi	sp,sp,-80
    1652:	892e                	mv	s2,a1
    1654:	65b1                	lui	a1,0xc
    1656:	8aa18c23          	sb	a0,-1864(gp) # 20000138 <return_type>
    165a:	842a                	mv	s0,a0
    165c:	4651                	li	a2,20
    165e:	acc58593          	addi	a1,a1,-1332 # bacc <strlen+0x14>
    1662:	1868                	addi	a0,sp,60
    1664:	3a20a0ef          	jal	ra,ba06 <memcpy>
    1668:	089c                	addi	a5,sp,80
    166a:	040a                	slli	s0,s0,0x2
    166c:	943e                	add	s0,s0,a5
    166e:	fec42583          	lw	a1,-20(s0)
    1672:	0000c537          	lui	a0,0xc
    1676:	f9450513          	addi	a0,a0,-108 # bf94 <strlen+0x4dc>
    167a:	5eb060ef          	jal	ra,8464 <printf>
    167e:	8b51c783          	lbu	a5,-1867(gp) # 20000135 <point_count>
    1682:	12f97463          	bgeu	s2,a5,17aa <start_return_delay+0x15e>
    1686:	03000793          	li	a5,48
    168a:	02f907b3          	mul	a5,s2,a5
    168e:	98018493          	addi	s1,gp,-1664 # 20000200 <points>
    1692:	f00007d3          	fmv.w.x	fa5,zero
    1696:	98018413          	addi	s0,gp,-1664 # 20000200 <points>
    169a:	94be                	add	s1,s1,a5
    169c:	64d8                	flw	fa4,12(s1)
    169e:	a0f727d3          	feq.s	a5,fa4,fa5
    16a2:	c7a9                	beqz	a5,16ec <start_return_delay+0xa0>
    16a4:	6898                	flw	fa4,16(s1)
    16a6:	a0f727d3          	feq.s	a5,fa4,fa5
    16aa:	c3a9                	beqz	a5,16ec <start_return_delay+0xa0>
    16ac:	68d8                	flw	fa4,20(s1)
    16ae:	a0f727d3          	feq.s	a5,fa4,fa5
    16b2:	cf8d                	beqz	a5,16ec <start_return_delay+0xa0>
    16b4:	6c98                	flw	fa4,24(s1)
    16b6:	a0f727d3          	feq.s	a5,fa4,fa5
    16ba:	cb8d                	beqz	a5,16ec <start_return_delay+0xa0>
    16bc:	6cd8                	flw	fa4,28(s1)
    16be:	a0f727d3          	feq.s	a5,fa4,fa5
    16c2:	c78d                	beqz	a5,16ec <start_return_delay+0xa0>
    16c4:	6490                	flw	fa2,8(s1)
    16c6:	60cc                	flw	fa1,4(s1)
    16c8:	6088                	flw	fa0,0(s1)
    16ca:	643010ef          	jal	ra,350c <robot_arm_5dof_method2>
    16ce:	8dc1a787          	flw	fa5,-1828(gp) # 2000015c <J1_global>
    16d2:	e4dc                	fsw	fa5,12(s1)
    16d4:	8e01a787          	flw	fa5,-1824(gp) # 20000160 <J2_global>
    16d8:	e89c                	fsw	fa5,16(s1)
    16da:	8e41a787          	flw	fa5,-1820(gp) # 20000164 <J3_global>
    16de:	e8dc                	fsw	fa5,20(s1)
    16e0:	8e81a787          	flw	fa5,-1816(gp) # 20000168 <J4_global>
    16e4:	ec9c                	fsw	fa5,24(s1)
    16e6:	8ec1a787          	flw	fa5,-1812(gp) # 2000016c <J5_global>
    16ea:	ecdc                	fsw	fa5,28(s1)
    16ec:	03000793          	li	a5,48
    16f0:	02f907b3          	mul	a5,s2,a5
    16f4:	4505                	li	a0,1
    16f6:	943e                	add	s0,s0,a5
    16f8:	0000c7b7          	lui	a5,0xc
    16fc:	645c                	flw	fa5,12(s0)
    16fe:	f907a507          	flw	fa0,-112(a5) # bf90 <strlen+0x4d8>
    1702:	08f57553          	fsub.s	fa0,fa0,fa5
    1706:	3b9020ef          	jal	ra,42be <Control_Motor>
    170a:	6808                	flw	fa0,16(s0)
    170c:	4509                	li	a0,2
    170e:	7c5020ef          	jal	ra,46d2 <CAN_BLDC_POS_CONTROL>
    1712:	6848                	flw	fa0,20(s0)
    1714:	450d                	li	a0,3
    1716:	7bd020ef          	jal	ra,46d2 <CAN_BLDC_POS_CONTROL>
    171a:	6c08                	flw	fa0,24(s0)
    171c:	4515                	li	a0,5
    171e:	3a1020ef          	jal	ra,42be <Control_Motor>
    1722:	6c48                	flw	fa0,28(s0)
    1724:	4519                	li	a0,6
    1726:	399020ef          	jal	ra,42be <Control_Motor>
    172a:	6408                	flw	fa0,8(s0)
    172c:	65f090ef          	jal	ra,b58a <__extendsfdf2>
    1730:	6048                	flw	fa0,4(s0)
    1732:	d02a                	sw	a0,32(sp)
    1734:	d22e                	sw	a1,36(sp)
    1736:	655090ef          	jal	ra,b58a <__extendsfdf2>
    173a:	6008                	flw	fa0,0(s0)
    173c:	cc2a                	sw	a0,24(sp)
    173e:	ce2e                	sw	a1,28(sp)
    1740:	64b090ef          	jal	ra,b58a <__extendsfdf2>
    1744:	5802                	lw	a6,32(sp)
    1746:	5892                	lw	a7,36(sp)
    1748:	4762                	lw	a4,24(sp)
    174a:	47f2                	lw	a5,28(sp)
    174c:	862a                	mv	a2,a0
    174e:	0000c537          	lui	a0,0xc
    1752:	86ae                	mv	a3,a1
    1754:	fc050513          	addi	a0,a0,-64 # bfc0 <strlen+0x508>
    1758:	00190593          	addi	a1,s2,1
    175c:	509060ef          	jal	ra,8464 <printf>
    1760:	6848                	flw	fa0,20(s0)
    1762:	629090ef          	jal	ra,b58a <__extendsfdf2>
    1766:	6808                	flw	fa0,16(s0)
    1768:	d42a                	sw	a0,40(sp)
    176a:	d62e                	sw	a1,44(sp)
    176c:	61f090ef          	jal	ra,b58a <__extendsfdf2>
    1770:	6448                	flw	fa0,12(s0)
    1772:	d02a                	sw	a0,32(sp)
    1774:	d22e                	sw	a1,36(sp)
    1776:	615090ef          	jal	ra,b58a <__extendsfdf2>
    177a:	6c48                	flw	fa0,28(s0)
    177c:	cc2a                	sw	a0,24(sp)
    177e:	ce2e                	sw	a1,28(sp)
    1780:	60b090ef          	jal	ra,b58a <__extendsfdf2>
    1784:	c42a                	sw	a0,8(sp)
    1786:	c62e                	sw	a1,12(sp)
    1788:	6c08                	flw	fa0,24(s0)
    178a:	601090ef          	jal	ra,b58a <__extendsfdf2>
    178e:	5822                	lw	a6,40(sp)
    1790:	58b2                	lw	a7,44(sp)
    1792:	5702                	lw	a4,32(sp)
    1794:	5792                	lw	a5,36(sp)
    1796:	4662                	lw	a2,24(sp)
    1798:	46f2                	lw	a3,28(sp)
    179a:	c02a                	sw	a0,0(sp)
    179c:	0000c537          	lui	a0,0xc
    17a0:	c22e                	sw	a1,4(sp)
    17a2:	fe850513          	addi	a0,a0,-24 # bfe8 <strlen+0x530>
    17a6:	4bf060ef          	jal	ra,8464 <printf>
    17aa:	4705                	li	a4,1
    17ac:	0000c537          	lui	a0,0xc
    17b0:	8ae18ba3          	sb	a4,-1865(gp) # 20000137 <return_in_progress>
    17b4:	4599                	li	a1,6
    17b6:	02050513          	addi	a0,a0,32 # c020 <strlen+0x568>
    17ba:	8a018b23          	sb	zero,-1866(gp) # 20000136 <return_delay_flag>
    17be:	4a7060ef          	jal	ra,8464 <printf>
    17c2:	6161                	addi	sp,sp,80
    17c4:	a51fe06f          	j	214 <__riscv_restore_0>

000017c8 <calculate_z_compensation>:
    17c8:	0000c7b7          	lui	a5,0xc
    17cc:	c3c7a787          	flw	fa5,-964(a5) # bc3c <strlen+0x184>
    17d0:	86be                	mv	a3,a5
    17d2:	a0f58753          	fle.s	a4,fa1,fa5
    17d6:	c711                	beqz	a4,17e2 <calculate_z_compensation+0x1a>
    17d8:	f00005d3          	fmv.w.x	fa1,zero
    17dc:	20b58553          	fmv.s	fa0,fa1
    17e0:	8082                	ret
    17e2:	0000c7b7          	lui	a5,0xc
    17e6:	c447a787          	flw	fa5,-956(a5) # bc44 <strlen+0x18c>
    17ea:	a0b787d3          	fle.s	a5,fa5,fa1
    17ee:	f7ed                	bnez	a5,17d8 <calculate_z_compensation+0x10>
    17f0:	a0a787d3          	fle.s	a5,fa5,fa0
    17f4:	f3f5                	bnez	a5,17d8 <calculate_z_compensation+0x10>
    17f6:	f00007d3          	fmv.w.x	fa5,zero
    17fa:	a0f507d3          	fle.s	a5,fa0,fa5
    17fe:	ffe9                	bnez	a5,17d8 <calculate_z_compensation+0x10>
    1800:	81018793          	addi	a5,gp,-2032 # 20000090 <is_first_call.5790>
    1804:	4398                	lw	a4,0(a5)
    1806:	c709                	beqz	a4,1810 <calculate_z_compensation+0x48>
    1808:	8ab1a227          	fsw	fa1,-1884(gp) # 20000124 <last_compensated_jiuli.5789>
    180c:	0007a023          	sw	zero,0(a5)
    1810:	08b577d3          	fsub.s	fa5,fa0,fa1
    1814:	0000c7b7          	lui	a5,0xc
    1818:	c487a707          	flw	fa4,-952(a5) # bc48 <strlen+0x190>
    181c:	20f7a7d3          	fabs.s	fa5,fa5
    1820:	a0e787d3          	fle.s	a5,fa5,fa4
    1824:	fbd5                	bnez	a5,17d8 <calculate_z_compensation+0x10>
    1826:	8a41a787          	flw	fa5,-1884(gp) # 20000124 <last_compensated_jiuli.5789>
    182a:	0000c7b7          	lui	a5,0xc
    182e:	c4c7a707          	flw	fa4,-948(a5) # bc4c <strlen+0x194>
    1832:	08f577d3          	fsub.s	fa5,fa0,fa5
    1836:	8a418713          	addi	a4,gp,-1884 # 20000124 <last_compensated_jiuli.5789>
    183a:	20f7a7d3          	fabs.s	fa5,fa5
    183e:	a0e797d3          	flt.s	a5,fa5,fa4
    1842:	fbd9                	bnez	a5,17d8 <calculate_z_compensation+0x10>
    1844:	08a5f5d3          	fsub.s	fa1,fa1,fa0
    1848:	c3c6a787          	flw	fa5,-964(a3)
    184c:	a0b797d3          	flt.s	a5,fa5,fa1
    1850:	eb81                	bnez	a5,1860 <calculate_z_compensation+0x98>
    1852:	0000c7b7          	lui	a5,0xc
    1856:	c407a787          	flw	fa5,-960(a5) # bc40 <strlen+0x188>
    185a:	a0f597d3          	flt.s	a5,fa1,fa5
    185e:	c399                	beqz	a5,1864 <calculate_z_compensation+0x9c>
    1860:	20f785d3          	fmv.s	fa1,fa5
    1864:	e308                	fsw	fa0,0(a4)
    1866:	bf9d                	j	17dc <calculate_z_compensation+0x14>

00001868 <switch_mode>:
    1868:	96ffe2ef          	jal	t0,1d6 <__riscv_save_4>
    186c:	00153713          	seqz	a4,a0
    1870:	80e18aa3          	sb	a4,-2027(gp) # 20000095 <mode_hover>
    1874:	fff50793          	addi	a5,a0,-1
    1878:	0017b793          	seqz	a5,a5
    187c:	8b118b13          	addi	s6,gp,-1871 # 20000131 <mode_circle>
    1880:	00fb0023          	sb	a5,0(s6)
    1884:	ffe50793          	addi	a5,a0,-2
    1888:	0017b793          	seqz	a5,a5
    188c:	8c918a93          	addi	s5,gp,-1847 # 20000149 <timer_running_circle>
    1890:	8b218a13          	addi	s4,gp,-1870 # 20000132 <mode_lr>
    1894:	1141                	addi	sp,sp,-16
    1896:	000a8023          	sb	zero,0(s5)
    189a:	00fa0023          	sb	a5,0(s4)
    189e:	8ca18993          	addi	s3,gp,-1846 # 2000014a <timer_running_lr>
    18a2:	ffd50793          	addi	a5,a0,-3
    18a6:	65b1                	lui	a1,0xc
    18a8:	0017b793          	seqz	a5,a5
    18ac:	842a                	mv	s0,a0
    18ae:	00098023          	sb	zero,0(s3)
    18b2:	4641                	li	a2,16
    18b4:	ae058593          	addi	a1,a1,-1312 # bae0 <strlen+0x28>
    18b8:	8cb18493          	addi	s1,gp,-1845 # 2000014b <timer_running_ud>
    18bc:	8b318913          	addi	s2,gp,-1869 # 20000133 <mode_ud>
    18c0:	850a                	mv	a0,sp
    18c2:	00f90023          	sb	a5,0(s2)
    18c6:	00048023          	sb	zero,0(s1)
    18ca:	13c0a0ef          	jal	ra,ba06 <memcpy>
    18ce:	081c                	addi	a5,sp,16
    18d0:	040a                	slli	s0,s0,0x2
    18d2:	943e                	add	s0,s0,a5
    18d4:	ff042583          	lw	a1,-16(s0)
    18d8:	0000c537          	lui	a0,0xc
    18dc:	09050513          	addi	a0,a0,144 # c090 <strlen+0x5d8>
    18e0:	385060ef          	jal	ra,8464 <printf>
    18e4:	8c01c783          	lbu	a5,-1856(gp) # 20000140 <start_flag>
    18e8:	cb81                	beqz	a5,18f8 <switch_mode+0x90>
    18ea:	8b51c783          	lbu	a5,-1867(gp) # 20000135 <point_count>
    18ee:	cb81                	beqz	a5,18fe <switch_mode+0x96>
    18f0:	89d1c583          	lbu	a1,-1891(gp) # 2000011d <current_point>
    18f4:	4505                	li	a0,1
    18f6:	3b99                	jal	164c <start_return_delay>
    18f8:	0141                	addi	sp,sp,16
    18fa:	911fe06f          	j	20a <__riscv_restore_4>
    18fe:	000b4783          	lbu	a5,0(s6)
    1902:	00fa8023          	sb	a5,0(s5)
    1906:	000a4783          	lbu	a5,0(s4)
    190a:	00f98023          	sb	a5,0(s3)
    190e:	00094783          	lbu	a5,0(s2)
    1912:	a09c                	sb	a5,0(s1)
    1914:	b7d5                	j	18f8 <switch_mode+0x90>

00001916 <clamp_coordinates>:
    1916:	0000c7b7          	lui	a5,0xc
    191a:	611c                	flw	fa5,0(a0)
    191c:	c507a707          	flw	fa4,-944(a5) # bc50 <strlen+0x198>
    1920:	a0e797d3          	flt.s	a5,fa5,fa4
    1924:	c399                	beqz	a5,192a <clamp_coordinates+0x14>
    1926:	e118                	fsw	fa4,0(a0)
    1928:	a801                	j	1938 <clamp_coordinates+0x22>
    192a:	0000c7b7          	lui	a5,0xc
    192e:	c547a707          	flw	fa4,-940(a5) # bc54 <strlen+0x19c>
    1932:	a0f717d3          	flt.s	a5,fa4,fa5
    1936:	fbe5                	bnez	a5,1926 <clamp_coordinates+0x10>
    1938:	0000c7b7          	lui	a5,0xc
    193c:	619c                	flw	fa5,0(a1)
    193e:	c3c7a707          	flw	fa4,-964(a5) # bc3c <strlen+0x184>
    1942:	a0e79753          	flt.s	a4,fa5,fa4
    1946:	c319                	beqz	a4,194c <clamp_coordinates+0x36>
    1948:	e198                	fsw	fa4,0(a1)
    194a:	a801                	j	195a <clamp_coordinates+0x44>
    194c:	0000c737          	lui	a4,0xc
    1950:	c5872707          	flw	fa4,-936(a4) # bc58 <strlen+0x1a0>
    1954:	a0f71753          	flt.s	a4,fa4,fa5
    1958:	fb65                	bnez	a4,1948 <clamp_coordinates+0x32>
    195a:	621c                	flw	fa5,0(a2)
    195c:	c3c7a707          	flw	fa4,-964(a5)
    1960:	a0e797d3          	flt.s	a5,fa5,fa4
    1964:	c399                	beqz	a5,196a <clamp_coordinates+0x54>
    1966:	e218                	fsw	fa4,0(a2)
    1968:	a801                	j	1978 <clamp_coordinates+0x62>
    196a:	0000c7b7          	lui	a5,0xc
    196e:	c447a707          	flw	fa4,-956(a5) # bc44 <strlen+0x18c>
    1972:	a0f717d3          	flt.s	a5,fa4,fa5
    1976:	fbe5                	bnez	a5,1966 <clamp_coordinates+0x50>
    1978:	8082                	ret

0000197a <check_coordinate_range>:
    197a:	0000c7b7          	lui	a5,0xc
    197e:	c507a787          	flw	fa5,-944(a5) # bc50 <strlen+0x198>
    1982:	4501                	li	a0,0
    1984:	a0f507d3          	fle.s	a5,fa0,fa5
    1988:	e3a9                	bnez	a5,19ca <check_coordinate_range+0x50>
    198a:	0000c7b7          	lui	a5,0xc
    198e:	c547a787          	flw	fa5,-940(a5) # bc54 <strlen+0x19c>
    1992:	a0a787d3          	fle.s	a5,fa5,fa0
    1996:	eb95                	bnez	a5,19ca <check_coordinate_range+0x50>
    1998:	0000c7b7          	lui	a5,0xc
    199c:	c3c7a787          	flw	fa5,-964(a5) # bc3c <strlen+0x184>
    19a0:	a0f587d3          	fle.s	a5,fa1,fa5
    19a4:	e39d                	bnez	a5,19ca <check_coordinate_range+0x50>
    19a6:	0000c7b7          	lui	a5,0xc
    19aa:	c587a707          	flw	fa4,-936(a5) # bc58 <strlen+0x1a0>
    19ae:	a0b707d3          	fle.s	a5,fa4,fa1
    19b2:	ef81                	bnez	a5,19ca <check_coordinate_range+0x50>
    19b4:	a0f607d3          	fle.s	a5,fa2,fa5
    19b8:	eb89                	bnez	a5,19ca <check_coordinate_range+0x50>
    19ba:	0000c7b7          	lui	a5,0xc
    19be:	c447a787          	flw	fa5,-956(a5) # bc44 <strlen+0x18c>
    19c2:	a0c78553          	fle.s	a0,fa5,fa2
    19c6:	00154513          	xori	a0,a0,1
    19ca:	8082                	ret

000019cc <update_range_status>:
    19cc:	825fe2ef          	jal	t0,1f0 <__riscv_save_0>
    19d0:	376d                	jal	197a <check_coordinate_range>
    19d2:	8b418793          	addi	a5,gp,-1868 # 20000134 <out_of_range_flag>
    19d6:	2398                	lbu	a4,0(a5)
    19d8:	ed09                	bnez	a0,19f2 <update_range_status+0x26>
    19da:	eb11                	bnez	a4,19ee <update_range_status+0x22>
    19dc:	4705                	li	a4,1
    19de:	a398                	sb	a4,0(a5)
    19e0:	80c18793          	addi	a5,gp,-2036 # 2000008c <RGB_LED_MODE>
    19e4:	2394                	lbu	a3,0(a5)
    19e6:	80d186a3          	sb	a3,-2035(gp) # 2000008d <RGB_LED_MODE_BACKUP>
    19ea:	4715                	li	a4,5
    19ec:	a398                	sb	a4,0(a5)
    19ee:	827fe06f          	j	214 <__riscv_restore_0>
    19f2:	df75                	beqz	a4,19ee <update_range_status+0x22>
    19f4:	00078023          	sb	zero,0(a5)
    19f8:	80d1c703          	lbu	a4,-2035(gp) # 2000008d <RGB_LED_MODE_BACKUP>
    19fc:	80e18623          	sb	a4,-2036(gp) # 2000008c <RGB_LED_MODE>
    1a00:	b7fd                	j	19ee <update_range_status+0x22>

00001a02 <smooth_s_curve>:
    1a02:	feefe2ef          	jal	t0,1f0 <__riscv_save_0>
    1a06:	0000c7b7          	lui	a5,0xc
    1a0a:	f887a787          	flw	fa5,-120(a5) # bf88 <strlen+0x4d0>
    1a0e:	10f57553          	fmul.s	fa0,fa0,fa5
    1a12:	2d1030ef          	jal	ra,54e2 <cosf>
    1a16:	0000c7b7          	lui	a5,0xc
    1a1a:	c4c7a787          	flw	fa5,-948(a5) # bc4c <strlen+0x194>
    1a1e:	0000c7b7          	lui	a5,0xc
    1a22:	08a7f553          	fsub.s	fa0,fa5,fa0
    1a26:	f8c7a787          	flw	fa5,-116(a5) # bf8c <strlen+0x4d4>
    1a2a:	10f57553          	fmul.s	fa0,fa0,fa5
    1a2e:	fe6fe06f          	j	214 <__riscv_restore_0>

00001a32 <RGB_RUN>:
    1a32:	fbefe2ef          	jal	t0,1f0 <__riscv_save_0>
    1a36:	80c18493          	addi	s1,gp,-2036 # 2000008c <RGB_LED_MODE>
    1a3a:	209c                	lbu	a5,0(s1)
    1a3c:	4711                	li	a4,4
    1a3e:	4505                	li	a0,1
    1a40:	00e78663          	beq	a5,a4,1a4c <RGB_RUN+0x1a>
    1a44:	4719                	li	a4,6
    1a46:	00e79763          	bne	a5,a4,1a54 <RGB_RUN+0x22>
    1a4a:	4501                	li	a0,0
    1a4c:	5a0020ef          	jal	ra,3fec <RGB_huxi>
    1a50:	fc4fe06f          	j	214 <__riscv_restore_0>
    1a54:	87818693          	addi	a3,gp,-1928 # 200000f8 <acc_LED.5799>
    1a58:	4298                	lw	a4,0(a3)
    1a5a:	87818413          	addi	s0,gp,-1928 # 200000f8 <acc_LED.5799>
    1a5e:	06470713          	addi	a4,a4,100
    1a62:	c298                	sw	a4,0(a3)
    1a64:	1f400693          	li	a3,500
    1a68:	00d71d63          	bne	a4,a3,1a82 <RGB_RUN+0x50>
    1a6c:	eb95                	bnez	a5,1aa0 <RGB_RUN+0x6e>
    1a6e:	3f8020ef          	jal	ra,3e66 <WS2812B_Reset>
    1a72:	03200613          	li	a2,50
    1a76:	03200593          	li	a1,50
    1a7a:	03200513          	li	a0,50
    1a7e:	468020ef          	jal	ra,3ee6 <WS2812B_WriteColor>
    1a82:	4018                	lw	a4,0(s0)
    1a84:	3e800793          	li	a5,1000
    1a88:	fcf714e3          	bne	a4,a5,1a50 <RGB_RUN+0x1e>
    1a8c:	00042023          	sw	zero,0(s0)
    1a90:	3d6020ef          	jal	ra,3e66 <WS2812B_Reset>
    1a94:	4601                	li	a2,0
    1a96:	4581                	li	a1,0
    1a98:	4501                	li	a0,0
    1a9a:	44c020ef          	jal	ra,3ee6 <WS2812B_WriteColor>
    1a9e:	bf4d                	j	1a50 <RGB_RUN+0x1e>
    1aa0:	4705                	li	a4,1
    1aa2:	00e79963          	bne	a5,a4,1ab4 <RGB_RUN+0x82>
    1aa6:	3c0020ef          	jal	ra,3e66 <WS2812B_Reset>
    1aaa:	4601                	li	a2,0
    1aac:	03200593          	li	a1,50
    1ab0:	4501                	li	a0,0
    1ab2:	b7f1                	j	1a7e <RGB_RUN+0x4c>
    1ab4:	470d                	li	a4,3
    1ab6:	00e79a63          	bne	a5,a4,1aca <RGB_RUN+0x98>
    1aba:	3ac020ef          	jal	ra,3e66 <WS2812B_Reset>
    1abe:	4601                	li	a2,0
    1ac0:	02800593          	li	a1,40
    1ac4:	03c00513          	li	a0,60
    1ac8:	bf5d                	j	1a7e <RGB_RUN+0x4c>
    1aca:	4715                	li	a4,5
    1acc:	00e79763          	bne	a5,a4,1ada <RGB_RUN+0xa8>
    1ad0:	396020ef          	jal	ra,3e66 <WS2812B_Reset>
    1ad4:	4601                	li	a2,0
    1ad6:	4581                	li	a1,0
    1ad8:	b7f5                	j	1ac4 <RGB_RUN+0x92>
    1ada:	471d                	li	a4,7
    1adc:	f6e79ae3          	bne	a5,a4,1a50 <RGB_RUN+0x1e>
    1ae0:	386020ef          	jal	ra,3e66 <WS2812B_Reset>
    1ae4:	03c00613          	li	a2,60
    1ae8:	4581                	li	a1,0
    1aea:	4501                	li	a0,0
    1aec:	3fa020ef          	jal	ra,3ee6 <WS2812B_WriteColor>
    1af0:	8a018713          	addi	a4,gp,-1888 # 20000120 <lan_jici.5800>
    1af4:	231c                	lbu	a5,0(a4)
    1af6:	4689                	li	a3,2
    1af8:	0785                	addi	a5,a5,1
    1afa:	0ff7f793          	andi	a5,a5,255
    1afe:	00f6e463          	bltu	a3,a5,1b06 <RGB_RUN+0xd4>
    1b02:	a31c                	sb	a5,0(a4)
    1b04:	bfbd                	j	1a82 <RGB_RUN+0x50>
    1b06:	80d1c783          	lbu	a5,-2035(gp) # 2000008d <RGB_LED_MODE_BACKUP>
    1b0a:	00070023          	sb	zero,0(a4)
    1b0e:	a09c                	sb	a5,0(s1)
    1b10:	bf8d                	j	1a82 <RGB_RUN+0x50>

00001b12 <yunyin_run>:
    1b12:	edefe2ef          	jal	t0,1f0 <__riscv_save_0>
    1b16:	81418613          	addi	a2,gp,-2028 # 20000094 <last_yuyin_flag.5805>
    1b1a:	8741c783          	lbu	a5,-1932(gp) # 200000f4 <YUYIN_FLAG>
    1b1e:	2214                	lbu	a3,0(a2)
    1b20:	87418413          	addi	s0,gp,-1932 # 200000f4 <YUYIN_FLAG>
    1b24:	89018713          	addi	a4,gp,-1904 # 20000110 <acc_yuyin.5803>
    1b28:	08f68363          	beq	a3,a5,1bae <yunyin_run+0x9c>
    1b2c:	80818693          	addi	a3,gp,-2040 # 20000088 <OK_flag.5804>
    1b30:	428c                	lw	a1,0(a3)
    1b32:	cdb5                	beqz	a1,1bae <yunyin_run+0x9c>
    1b34:	00072023          	sw	zero,0(a4)
    1b38:	a21c                	sb	a5,0(a2)
    1b3a:	0006a023          	sw	zero,0(a3)
    1b3e:	4721                	li	a4,8
    1b40:	02f76263          	bltu	a4,a5,1b64 <yunyin_run+0x52>
    1b44:	6731                	lui	a4,0xc
    1b46:	078a                	slli	a5,a5,0x2
    1b48:	b4070713          	addi	a4,a4,-1216 # bb40 <strlen+0x88>
    1b4c:	97ba                	add	a5,a5,a4
    1b4e:	439c                	lw	a5,0(a5)
    1b50:	4601                	li	a2,0
    1b52:	8782                	jr	a5
    1b54:	40011537          	lui	a0,0x40011
    1b58:	10000593          	li	a1,256
    1b5c:	80050513          	addi	a0,a0,-2048 # 40010800 <_eusrstack+0x20008800>
    1b60:	cbaff0ef          	jal	ra,101a <GPIO_WriteBit>
    1b64:	201c                	lbu	a5,0(s0)
    1b66:	4705                	li	a4,1
    1b68:	17e9                	addi	a5,a5,-6
    1b6a:	0ff7f793          	andi	a5,a5,255
    1b6e:	00f76463          	bltu	a4,a5,1b76 <yunyin_run+0x64>
    1b72:	57fd                	li	a5,-1
    1b74:	a01c                	sb	a5,0(s0)
    1b76:	e9efe06f          	j	214 <__riscv_restore_0>
    1b7a:	20000593          	li	a1,512
    1b7e:	40011537          	lui	a0,0x40011
    1b82:	bff9                	j	1b60 <yunyin_run+0x4e>
    1b84:	10000593          	li	a1,256
    1b88:	bfdd                	j	1b7e <yunyin_run+0x6c>
    1b8a:	08000593          	li	a1,128
    1b8e:	bfc5                	j	1b7e <yunyin_run+0x6c>
    1b90:	04000593          	li	a1,64
    1b94:	b7ed                	j	1b7e <yunyin_run+0x6c>
    1b96:	65a1                	lui	a1,0x8
    1b98:	40011537          	lui	a0,0x40011
    1b9c:	c0050513          	addi	a0,a0,-1024 # 40010c00 <_eusrstack+0x20008c00>
    1ba0:	b7c1                	j	1b60 <yunyin_run+0x4e>
    1ba2:	6591                	lui	a1,0x4
    1ba4:	bfd5                	j	1b98 <yunyin_run+0x86>
    1ba6:	6589                	lui	a1,0x2
    1ba8:	bfc5                	j	1b98 <yunyin_run+0x86>
    1baa:	6585                	lui	a1,0x1
    1bac:	b7f5                	j	1b98 <yunyin_run+0x86>
    1bae:	4310                	lw	a2,0(a4)
    1bb0:	6685                	lui	a3,0x1
    1bb2:	bb768593          	addi	a1,a3,-1097 # bb7 <CAN_GetITStatus+0x6b>
    1bb6:	00c5e663          	bltu	a1,a2,1bc2 <yunyin_run+0xb0>
    1bba:	06460613          	addi	a2,a2,100 # 40021064 <_eusrstack+0x20019064>
    1bbe:	c310                	sw	a2,0(a4)
    1bc0:	bf5d                	j	1b76 <yunyin_run+0x64>
    1bc2:	bb868593          	addi	a1,a3,-1096
    1bc6:	fab618e3          	bne	a2,a1,1b76 <yunyin_run+0x64>
    1bca:	c1c68693          	addi	a3,a3,-996
    1bce:	c314                	sw	a3,0(a4)
    1bd0:	4705                	li	a4,1
    1bd2:	80e1a423          	sw	a4,-2040(gp) # 20000088 <OK_flag.5804>
    1bd6:	00e79763          	bne	a5,a4,1be4 <yunyin_run+0xd2>
    1bda:	8151c783          	lbu	a5,-2027(gp) # 20000095 <mode_hover>
    1bde:	c3c9                	beqz	a5,1c60 <yunyin_run+0x14e>
    1be0:	4791                	li	a5,4
    1be2:	a01c                	sb	a5,0(s0)
    1be4:	40011437          	lui	s0,0x40011
    1be8:	80040513          	addi	a0,s0,-2048 # 40010800 <_eusrstack+0x20008800>
    1bec:	4605                	li	a2,1
    1bee:	10000593          	li	a1,256
    1bf2:	c28ff0ef          	jal	ra,101a <GPIO_WriteBit>
    1bf6:	4605                	li	a2,1
    1bf8:	20000593          	li	a1,512
    1bfc:	40011537          	lui	a0,0x40011
    1c00:	c1aff0ef          	jal	ra,101a <GPIO_WriteBit>
    1c04:	4605                	li	a2,1
    1c06:	10000593          	li	a1,256
    1c0a:	40011537          	lui	a0,0x40011
    1c0e:	c0cff0ef          	jal	ra,101a <GPIO_WriteBit>
    1c12:	4605                	li	a2,1
    1c14:	08000593          	li	a1,128
    1c18:	40011537          	lui	a0,0x40011
    1c1c:	bfeff0ef          	jal	ra,101a <GPIO_WriteBit>
    1c20:	4605                	li	a2,1
    1c22:	04000593          	li	a1,64
    1c26:	40011537          	lui	a0,0x40011
    1c2a:	bf0ff0ef          	jal	ra,101a <GPIO_WriteBit>
    1c2e:	c0040513          	addi	a0,s0,-1024
    1c32:	4605                	li	a2,1
    1c34:	65a1                	lui	a1,0x8
    1c36:	be4ff0ef          	jal	ra,101a <GPIO_WriteBit>
    1c3a:	c0040513          	addi	a0,s0,-1024
    1c3e:	4605                	li	a2,1
    1c40:	6591                	lui	a1,0x4
    1c42:	bd8ff0ef          	jal	ra,101a <GPIO_WriteBit>
    1c46:	c0040513          	addi	a0,s0,-1024
    1c4a:	4605                	li	a2,1
    1c4c:	6589                	lui	a1,0x2
    1c4e:	bccff0ef          	jal	ra,101a <GPIO_WriteBit>
    1c52:	4605                	li	a2,1
    1c54:	6585                	lui	a1,0x1
    1c56:	c0040513          	addi	a0,s0,-1024
    1c5a:	bc0ff0ef          	jal	ra,101a <GPIO_WriteBit>
    1c5e:	bf21                	j	1b76 <yunyin_run+0x64>
    1c60:	8b21c783          	lbu	a5,-1870(gp) # 20000132 <mode_lr>
    1c64:	c399                	beqz	a5,1c6a <yunyin_run+0x158>
    1c66:	478d                	li	a5,3
    1c68:	bfad                	j	1be2 <yunyin_run+0xd0>
    1c6a:	8b31c783          	lbu	a5,-1869(gp) # 20000133 <mode_ud>
    1c6e:	c399                	beqz	a5,1c74 <yunyin_run+0x162>
    1c70:	4789                	li	a5,2
    1c72:	bf85                	j	1be2 <yunyin_run+0xd0>
    1c74:	8b11c783          	lbu	a5,-1871(gp) # 20000131 <mode_circle>
    1c78:	d7b5                	beqz	a5,1be4 <yunyin_run+0xd2>
    1c7a:	4795                	li	a5,5
    1c7c:	b79d                	j	1be2 <yunyin_run+0xd0>

00001c7e <TIM3_IRQHandler>:
    1c7e:	40000537          	lui	a0,0x40000
    1c82:	711d                	addi	sp,sp,-96
    1c84:	4585                	li	a1,1
    1c86:	40050513          	addi	a0,a0,1024 # 40000400 <_eusrstack+0x1fff8400>
    1c8a:	cea2                	sw	s0,92(sp)
    1c8c:	e682                	fsw	ft0,76(sp)
    1c8e:	e486                	fsw	ft1,72(sp)
    1c90:	e28a                	fsw	ft2,68(sp)
    1c92:	e08e                	fsw	ft3,64(sp)
    1c94:	fe12                	fsw	ft4,60(sp)
    1c96:	fc16                	fsw	ft5,56(sp)
    1c98:	fa1a                	fsw	ft6,52(sp)
    1c9a:	f81e                	fsw	ft7,48(sp)
    1c9c:	f62a                	fsw	fa0,44(sp)
    1c9e:	f42e                	fsw	fa1,40(sp)
    1ca0:	f232                	fsw	fa2,36(sp)
    1ca2:	f036                	fsw	fa3,32(sp)
    1ca4:	ee3a                	fsw	fa4,28(sp)
    1ca6:	ec3e                	fsw	fa5,24(sp)
    1ca8:	ea42                	fsw	fa6,20(sp)
    1caa:	e846                	fsw	fa7,16(sp)
    1cac:	e672                	fsw	ft8,12(sp)
    1cae:	e476                	fsw	ft9,8(sp)
    1cb0:	e27a                	fsw	ft10,4(sp)
    1cb2:	e07e                	fsw	ft11,0(sp)
    1cb4:	fc6ff0ef          	jal	ra,147a <TIM_GetITStatus>
    1cb8:	12050863          	beqz	a0,1de8 <TIM3_IRQHandler+0x16a>
    1cbc:	8c418793          	addi	a5,gp,-1852 # 20000144 <t_10ms.5822>
    1cc0:	4398                	lw	a4,0(a5)
    1cc2:	06300693          	li	a3,99
    1cc6:	06470713          	addi	a4,a4,100
    1cca:	c398                	sw	a4,0(a5)
    1ccc:	00e6f763          	bgeu	a3,a4,1cda <TIM3_IRQHandler+0x5c>
    1cd0:	4685                	li	a3,1
    1cd2:	8cd18423          	sb	a3,-1848(gp) # 20000148 <time_delay_100ms>
    1cd6:	0007a023          	sw	zero,0(a5)
    1cda:	89f18713          	addi	a4,gp,-1889 # 2000011f <flame_flag>
    1cde:	231c                	lbu	a5,0(a4)
    1ce0:	c7b1                	beqz	a5,1d2c <TIM3_IRQHandler+0xae>
    1ce2:	88018793          	addi	a5,gp,-1920 # 20000100 <acc_flame.5826>
    1ce6:	4394                	lw	a3,0(a5)
    1ce8:	0003e637          	lui	a2,0x3e
    1cec:	85f60613          	addi	a2,a2,-1953 # 3d85f <_data_lma+0x30cc7>
    1cf0:	06468693          	addi	a3,a3,100
    1cf4:	c394                	sw	a3,0(a5)
    1cf6:	02d67b63          	bgeu	a2,a3,1d2c <TIM3_IRQHandler+0xae>
    1cfa:	4605                	li	a2,1
    1cfc:	02000593          	li	a1,32
    1d00:	40011537          	lui	a0,0x40011
    1d04:	00070023          	sb	zero,0(a4)
    1d08:	0007a023          	sw	zero,0(a5)
    1d0c:	40011437          	lui	s0,0x40011
    1d10:	b0aff0ef          	jal	ra,101a <GPIO_WriteBit>
    1d14:	4605                	li	a2,1
    1d16:	4589                	li	a1,2
    1d18:	c0040513          	addi	a0,s0,-1024 # 40010c00 <_eusrstack+0x20008c00>
    1d1c:	afeff0ef          	jal	ra,101a <GPIO_WriteBit>
    1d20:	4601                	li	a2,0
    1d22:	4585                	li	a1,1
    1d24:	c0040513          	addi	a0,s0,-1024
    1d28:	af2ff0ef          	jal	ra,101a <GPIO_WriteBit>
    1d2c:	3319                	jal	1a32 <RGB_RUN>
    1d2e:	33d5                	jal	1b12 <yunyin_run>
    1d30:	8c91c703          	lbu	a4,-1847(gp) # 20000149 <timer_running_circle>
    1d34:	87c18793          	addi	a5,gp,-1924 # 200000fc <acc_circle.5823>
    1d38:	0ff77713          	andi	a4,a4,255
    1d3c:	0e070463          	beqz	a4,1e24 <TIM3_IRQHandler+0x1a6>
    1d40:	4398                	lw	a4,0(a5)
    1d42:	2bb00693          	li	a3,699
    1d46:	06470713          	addi	a4,a4,100
    1d4a:	0ce6e763          	bltu	a3,a4,1e18 <TIM3_IRQHandler+0x19a>
    1d4e:	c398                	sw	a4,0(a5)
    1d50:	8ca1c703          	lbu	a4,-1846(gp) # 2000014a <timer_running_lr>
    1d54:	88418793          	addi	a5,gp,-1916 # 20000104 <acc_lr.5824>
    1d58:	0ff77713          	andi	a4,a4,255
    1d5c:	0c070d63          	beqz	a4,1e36 <TIM3_IRQHandler+0x1b8>
    1d60:	4398                	lw	a4,0(a5)
    1d62:	4af00693          	li	a3,1199
    1d66:	06470713          	addi	a4,a4,100
    1d6a:	0ce6e063          	bltu	a3,a4,1e2a <TIM3_IRQHandler+0x1ac>
    1d6e:	c398                	sw	a4,0(a5)
    1d70:	8cb1c703          	lbu	a4,-1845(gp) # 2000014b <timer_running_ud>
    1d74:	88c18793          	addi	a5,gp,-1908 # 2000010c <acc_ud.5825>
    1d78:	0ff77713          	andi	a4,a4,255
    1d7c:	c771                	beqz	a4,1e48 <TIM3_IRQHandler+0x1ca>
    1d7e:	4398                	lw	a4,0(a5)
    1d80:	12b00693          	li	a3,299
    1d84:	06470713          	addi	a4,a4,100
    1d88:	0ae6ea63          	bltu	a3,a4,1e3c <TIM3_IRQHandler+0x1be>
    1d8c:	c398                	sw	a4,0(a5)
    1d8e:	8b71c703          	lbu	a4,-1865(gp) # 20000137 <return_in_progress>
    1d92:	88818793          	addi	a5,gp,-1912 # 20000108 <acc_return.5827>
    1d96:	0ff77713          	andi	a4,a4,255
    1d9a:	c361                	beqz	a4,1e5a <TIM3_IRQHandler+0x1dc>
    1d9c:	4398                	lw	a4,0(a5)
    1d9e:	6685                	lui	a3,0x1
    1da0:	76f68693          	addi	a3,a3,1903 # 176f <start_return_delay+0x123>
    1da4:	06470713          	addi	a4,a4,100
    1da8:	0ae6e363          	bltu	a3,a4,1e4e <TIM3_IRQHandler+0x1d0>
    1dac:	c398                	sw	a4,0(a5)
    1dae:	8c01c783          	lbu	a5,-1856(gp) # 20000140 <start_flag>
    1db2:	c785                	beqz	a5,1dda <TIM3_IRQHandler+0x15c>
    1db4:	89e1c783          	lbu	a5,-1890(gp) # 2000011e <cycle_complete>
    1db8:	e38d                	bnez	a5,1dda <TIM3_IRQHandler+0x15c>
    1dba:	8b51c783          	lbu	a5,-1867(gp) # 20000135 <point_count>
    1dbe:	cf91                	beqz	a5,1dda <TIM3_IRQHandler+0x15c>
    1dc0:	89d1c783          	lbu	a5,-1891(gp) # 2000011d <current_point>
    1dc4:	03000713          	li	a4,48
    1dc8:	02e78733          	mul	a4,a5,a4
    1dcc:	98018793          	addi	a5,gp,-1664 # 20000200 <points>
    1dd0:	97ba                	add	a5,a5,a4
    1dd2:	5398                	lw	a4,32(a5)
    1dd4:	06470713          	addi	a4,a4,100
    1dd8:	d398                	sw	a4,32(a5)
    1dda:	40000537          	lui	a0,0x40000
    1dde:	4585                	li	a1,1
    1de0:	40050513          	addi	a0,a0,1024 # 40000400 <_eusrstack+0x1fff8400>
    1de4:	eaeff0ef          	jal	ra,1492 <TIM_ClearITPendingBit>
    1de8:	4476                	lw	s0,92(sp)
    1dea:	6036                	flw	ft0,76(sp)
    1dec:	60a6                	flw	ft1,72(sp)
    1dee:	6116                	flw	ft2,68(sp)
    1df0:	6186                	flw	ft3,64(sp)
    1df2:	7272                	flw	ft4,60(sp)
    1df4:	72e2                	flw	ft5,56(sp)
    1df6:	7352                	flw	ft6,52(sp)
    1df8:	73c2                	flw	ft7,48(sp)
    1dfa:	7532                	flw	fa0,44(sp)
    1dfc:	75a2                	flw	fa1,40(sp)
    1dfe:	7612                	flw	fa2,36(sp)
    1e00:	7682                	flw	fa3,32(sp)
    1e02:	6772                	flw	fa4,28(sp)
    1e04:	67e2                	flw	fa5,24(sp)
    1e06:	6852                	flw	fa6,20(sp)
    1e08:	68c2                	flw	fa7,16(sp)
    1e0a:	6e32                	flw	ft8,12(sp)
    1e0c:	6ea2                	flw	ft9,8(sp)
    1e0e:	6f12                	flw	ft10,4(sp)
    1e10:	6f82                	flw	ft11,0(sp)
    1e12:	6125                	addi	sp,sp,96
    1e14:	30200073          	mret
    1e18:	0007a023          	sw	zero,0(a5)
    1e1c:	4705                	li	a4,1
    1e1e:	88e18e23          	sb	a4,-1892(gp) # 2000011c <circle_move_flag>
    1e22:	b73d                	j	1d50 <TIM3_IRQHandler+0xd2>
    1e24:	0007a023          	sw	zero,0(a5)
    1e28:	b725                	j	1d50 <TIM3_IRQHandler+0xd2>
    1e2a:	0007a023          	sw	zero,0(a5)
    1e2e:	4705                	li	a4,1
    1e30:	8ae18823          	sb	a4,-1872(gp) # 20000130 <lr_move_flag>
    1e34:	bf35                	j	1d70 <TIM3_IRQHandler+0xf2>
    1e36:	0007a023          	sw	zero,0(a5)
    1e3a:	bf1d                	j	1d70 <TIM3_IRQHandler+0xf2>
    1e3c:	0007a023          	sw	zero,0(a5)
    1e40:	4705                	li	a4,1
    1e42:	8ce18823          	sb	a4,-1840(gp) # 20000150 <ud_move_flag>
    1e46:	b7a1                	j	1d8e <TIM3_IRQHandler+0x110>
    1e48:	0007a023          	sw	zero,0(a5)
    1e4c:	b789                	j	1d8e <TIM3_IRQHandler+0x110>
    1e4e:	0007a023          	sw	zero,0(a5)
    1e52:	4705                	li	a4,1
    1e54:	8ae18b23          	sb	a4,-1866(gp) # 20000136 <return_delay_flag>
    1e58:	bf99                	j	1dae <TIM3_IRQHandler+0x130>
    1e5a:	0007a023          	sw	zero,0(a5)
    1e5e:	bf81                	j	1dae <TIM3_IRQHandler+0x130>

00001e60 <RUN_ZERO>:
    1e60:	b90fe2ef          	jal	t0,1f0 <__riscv_save_0>
    1e64:	00d020ef          	jal	ra,4670 <CAN_MOTOR_MODE_SET>
    1e68:	0000c7b7          	lui	a5,0xc
    1e6c:	c247a507          	flw	fa0,-988(a5) # bc24 <strlen+0x16c>
    1e70:	4509                	li	a0,2
    1e72:	061020ef          	jal	ra,46d2 <CAN_BLDC_POS_CONTROL>
    1e76:	0000c7b7          	lui	a5,0xc
    1e7a:	c287a507          	flw	fa0,-984(a5) # bc28 <strlen+0x170>
    1e7e:	450d                	li	a0,3
    1e80:	053020ef          	jal	ra,46d2 <CAN_BLDC_POS_CONTROL>
    1e84:	f0000553          	fmv.w.x	fa0,zero
    1e88:	4511                	li	a0,4
    1e8a:	434020ef          	jal	ra,42be <Control_Motor>
    1e8e:	0000c7b7          	lui	a5,0xc
    1e92:	c2c7a507          	flw	fa0,-980(a5) # bc2c <strlen+0x174>
    1e96:	4515                	li	a0,5
    1e98:	426020ef          	jal	ra,42be <Control_Motor>
    1e9c:	f0000553          	fmv.w.x	fa0,zero
    1ea0:	4519                	li	a0,6
    1ea2:	41c020ef          	jal	ra,42be <Control_Motor>
    1ea6:	f0000553          	fmv.w.x	fa0,zero
    1eaa:	4505                	li	a0,1
    1eac:	412020ef          	jal	ra,42be <Control_Motor>
    1eb0:	0000c537          	lui	a0,0xc
    1eb4:	c3050513          	addi	a0,a0,-976 # bc30 <strlen+0x178>
    1eb8:	5fa060ef          	jal	ra,84b2 <puts>
    1ebc:	8c01ae23          	sw	zero,-1828(gp) # 2000015c <J1_global>
    1ec0:	8e01a023          	sw	zero,-1824(gp) # 20000160 <J2_global>
    1ec4:	8e01a223          	sw	zero,-1820(gp) # 20000164 <J3_global>
    1ec8:	8e01a423          	sw	zero,-1816(gp) # 20000168 <J4_global>
    1ecc:	8e01a623          	sw	zero,-1812(gp) # 2000016c <J5_global>
    1ed0:	f10ff0ef          	jal	ra,15e0 <print_joint_angles>
    1ed4:	b40fe06f          	j	214 <__riscv_restore_0>

00001ed8 <RUN_START>:
    1ed8:	b18fe2ef          	jal	t0,1f0 <__riscv_save_0>
    1edc:	1141                	addi	sp,sp,-16
    1ede:	0000c7b7          	lui	a5,0xc
    1ee2:	e426                	fsw	fs1,8(sp)
    1ee4:	bf47a487          	flw	fs1,-1036(a5) # bbf4 <strlen+0x13c>
    1ee8:	4509                	li	a0,2
    1eea:	e622                	fsw	fs0,12(sp)
    1eec:	20948553          	fmv.s	fa0,fs1
    1ef0:	7e2020ef          	jal	ra,46d2 <CAN_BLDC_POS_CONTROL>
    1ef4:	0000c7b7          	lui	a5,0xc
    1ef8:	bf87a407          	flw	fs0,-1032(a5) # bbf8 <strlen+0x140>
    1efc:	450d                	li	a0,3
    1efe:	20840553          	fmv.s	fa0,fs0
    1f02:	7d0020ef          	jal	ra,46d2 <CAN_BLDC_POS_CONTROL>
    1f06:	f0000553          	fmv.w.x	fa0,zero
    1f0a:	4511                	li	a0,4
    1f0c:	3b2020ef          	jal	ra,42be <Control_Motor>
    1f10:	f0000553          	fmv.w.x	fa0,zero
    1f14:	4515                	li	a0,5
    1f16:	3a8020ef          	jal	ra,42be <Control_Motor>
    1f1a:	f0000553          	fmv.w.x	fa0,zero
    1f1e:	4519                	li	a0,6
    1f20:	39e020ef          	jal	ra,42be <Control_Motor>
    1f24:	f0000553          	fmv.w.x	fa0,zero
    1f28:	4505                	li	a0,1
    1f2a:	394020ef          	jal	ra,42be <Control_Motor>
    1f2e:	0000c537          	lui	a0,0xc
    1f32:	bfc50513          	addi	a0,a0,-1028 # bbfc <strlen+0x144>
    1f36:	57c060ef          	jal	ra,84b2 <puts>
    1f3a:	8c01ae23          	sw	zero,-1828(gp) # 2000015c <J1_global>
    1f3e:	8e91a027          	fsw	fs1,-1824(gp) # 20000160 <J2_global>
    1f42:	8e81a227          	fsw	fs0,-1820(gp) # 20000164 <J3_global>
    1f46:	8e01a423          	sw	zero,-1816(gp) # 20000168 <J4_global>
    1f4a:	8e01a623          	sw	zero,-1812(gp) # 2000016c <J5_global>
    1f4e:	e92ff0ef          	jal	ra,15e0 <print_joint_angles>
    1f52:	6432                	flw	fs0,12(sp)
    1f54:	64a2                	flw	fs1,8(sp)
    1f56:	0141                	addi	sp,sp,16
    1f58:	abcfe06f          	j	214 <__riscv_restore_0>

00001f5c <RUN_TIME_ADD>:
    1f5c:	81818693          	addi	a3,gp,-2024 # 20000098 <point_duration>
    1f60:	429c                	lw	a5,0(a3)
    1f62:	00092737          	lui	a4,0x92
    1f66:	7bf70713          	addi	a4,a4,1983 # 927bf <_data_lma+0x85c27>
    1f6a:	04f76663          	bltu	a4,a5,1fb6 <RUN_TIME_ADD+0x5a>
    1f6e:	a82fe2ef          	jal	t0,1f0 <__riscv_save_0>
    1f72:	65bd                	lui	a1,0xf
    1f74:	a6058593          	addi	a1,a1,-1440 # ea60 <_data_lma+0x1ec8>
    1f78:	00b78733          	add	a4,a5,a1
    1f7c:	8b51c503          	lbu	a0,-1867(gp) # 20000135 <point_count>
    1f80:	c298                	sw	a4,0(a3)
    1f82:	98018793          	addi	a5,gp,-1664 # 20000200 <points>
    1f86:	4681                	li	a3,0
    1f88:	03078793          	addi	a5,a5,48
    1f8c:	00d51c63          	bne	a0,a3,1fa4 <RUN_TIME_ADD+0x48>
    1f90:	02b755b3          	divu	a1,a4,a1
    1f94:	0000c537          	lui	a0,0xc
    1f98:	c0c50513          	addi	a0,a0,-1012 # bc0c <strlen+0x154>
    1f9c:	4c8060ef          	jal	ra,8464 <printf>
    1fa0:	a74fe06f          	j	214 <__riscv_restore_0>
    1fa4:	ff47a603          	lw	a2,-12(a5)
    1fa8:	0685                	addi	a3,a3,1
    1faa:	0ff6f693          	andi	a3,a3,255
    1fae:	962e                	add	a2,a2,a1
    1fb0:	fec7aa23          	sw	a2,-12(a5)
    1fb4:	bfd1                	j	1f88 <RUN_TIME_ADD+0x2c>
    1fb6:	8082                	ret

00001fb8 <RUN_TIME_MINUS>:
    1fb8:	81818793          	addi	a5,gp,-2024 # 20000098 <point_duration>
    1fbc:	438c                	lw	a1,0(a5)
    1fbe:	6775                	lui	a4,0x1d
    1fc0:	4c070713          	addi	a4,a4,1216 # 1d4c0 <_data_lma+0x10928>
    1fc4:	04b77863          	bgeu	a4,a1,2014 <RUN_TIME_MINUS+0x5c>
    1fc8:	a28fe2ef          	jal	t0,1f0 <__riscv_save_0>
    1fcc:	7445                	lui	s0,0xffff1
    1fce:	5a040413          	addi	s0,s0,1440 # ffff15a0 <_eusrstack+0xdffe95a0>
    1fd2:	95a2                	add	a1,a1,s0
    1fd4:	c38c                	sw	a1,0(a5)
    1fd6:	67bd                	lui	a5,0xf
    1fd8:	a6078793          	addi	a5,a5,-1440 # ea60 <_data_lma+0x1ec8>
    1fdc:	02f5d5b3          	divu	a1,a1,a5
    1fe0:	0000c537          	lui	a0,0xc
    1fe4:	c0c50513          	addi	a0,a0,-1012 # bc0c <strlen+0x154>
    1fe8:	47c060ef          	jal	ra,8464 <printf>
    1fec:	8b51c603          	lbu	a2,-1867(gp) # 20000135 <point_count>
    1ff0:	98018793          	addi	a5,gp,-1664 # 20000200 <points>
    1ff4:	4701                	li	a4,0
    1ff6:	03078793          	addi	a5,a5,48
    1ffa:	00c71463          	bne	a4,a2,2002 <RUN_TIME_MINUS+0x4a>
    1ffe:	a16fe06f          	j	214 <__riscv_restore_0>
    2002:	ff47a683          	lw	a3,-12(a5)
    2006:	0705                	addi	a4,a4,1
    2008:	0ff77713          	andi	a4,a4,255
    200c:	96a2                	add	a3,a3,s0
    200e:	fed7aa23          	sw	a3,-12(a5)
    2012:	b7d5                	j	1ff6 <RUN_TIME_MINUS+0x3e>
    2014:	8082                	ret

00002016 <PID_five_motor>:
    2016:	8a818713          	addi	a4,gp,-1880 # 20000128 <last_error>
    201a:	0000c7b7          	lui	a5,0xc
    201e:	6318                	flw	fa4,0(a4)
    2020:	c487a787          	flw	fa5,-952(a5) # bc48 <strlen+0x190>
    2024:	8ac18793          	addi	a5,gp,-1876 # 2000012c <last_last_error>
    2028:	50f777cb          	fnmsub.s	fa5,fa4,fa5,fa0
    202c:	6394                	flw	fa3,0(a5)
    202e:	0000c6b7          	lui	a3,0xc
    2032:	08e57753          	fsub.s	fa4,fa0,fa4
    2036:	e308                	fsw	fa0,0(a4)
    2038:	00d7f7d3          	fadd.s	fa5,fa5,fa3
    203c:	bf06a687          	flw	fa3,-1040(a3) # bbf0 <strlen+0x138>
    2040:	0000c6b7          	lui	a3,0xc
    2044:	f8c6a607          	flw	fa2,-116(a3) # bf8c <strlen+0x4d4>
    2048:	10d576d3          	fmul.s	fa3,fa0,fa3
    204c:	8bc18693          	addi	a3,gp,-1860 # 2000013c <run_angle>
    2050:	e388                	fsw	fa0,0(a5)
    2052:	68c77743          	fmadd.s	fa4,fa4,fa2,fa3
    2056:	f00006d3          	fmv.w.x	fa3,zero
    205a:	70d7f7c3          	fmadd.s	fa5,fa5,fa3,fa4
    205e:	6298                	flw	fa4,0(a3)
    2060:	00e7f7d3          	fadd.s	fa5,fa5,fa4
    2064:	e29c                	fsw	fa5,0(a3)
    2066:	20f78553          	fmv.s	fa0,fa5
    206a:	8082                	ret

0000206c <rb_test08>:
    206c:	954fe2ef          	jal	t0,1c0 <__riscv_save_12>
    2070:	7175                	addi	sp,sp,-144
    2072:	0000c7b7          	lui	a5,0xc
    2076:	fed2                	fsw	fs4,124(sp)
    2078:	ca07aa07          	flw	fs4,-864(a5) # bca0 <strlen+0x1e8>
    207c:	0000c7b7          	lui	a5,0xc
    2080:	e14e                	fsw	fs3,128(sp)
    2082:	c9c7a987          	flw	fs3,-868(a5) # bc9c <strlen+0x1e4>
    2086:	4799                	li	a5,6
    2088:	80f18623          	sb	a5,-2036(gp) # 2000008c <RGB_LED_MODE>
    208c:	e722                	fsw	fs0,140(sp)
    208e:	e526                	fsw	fs1,136(sp)
    2090:	e34a                	fsw	fs2,132(sp)
    2092:	fcd6                	fsw	fs5,120(sp)
    2094:	fada                	fsw	fs6,116(sp)
    2096:	f8de                	fsw	fs7,112(sp)
    2098:	f6e2                	fsw	fs8,108(sp)
    209a:	f4e6                	fsw	fs9,104(sp)
    209c:	f2ea                	fsw	fs10,100(sp)
    209e:	f0ee                	fsw	fs11,96(sp)
    20a0:	c282                	sw	zero,68(sp)
    20a2:	e4d2                	fsw	fs4,72(sp)
    20a4:	e6ce                	fsw	fs3,76(sp)
    20a6:	387010ef          	jal	ra,3c2c <SW_Release>
    20aa:	8181a583          	lw	a1,-2024(gp) # 20000098 <point_duration>
    20ae:	67bd                	lui	a5,0xf
    20b0:	a6078793          	addi	a5,a5,-1440 # ea60 <_data_lma+0x1ec8>
    20b4:	02f5d5b3          	divu	a1,a1,a5
    20b8:	0000c537          	lui	a0,0xc
    20bc:	d0850513          	addi	a0,a0,-760 # bd08 <strlen+0x250>
    20c0:	f00004d3          	fmv.w.x	fs1,zero
    20c4:	0000cb37          	lui	s6,0xc
    20c8:	0000c9b7          	lui	s3,0xc
    20cc:	20948453          	fmv.s	fs0,fs1
    20d0:	20948ad3          	fmv.s	fs5,fs1
    20d4:	20948953          	fmv.s	fs2,fs1
    20d8:	20948b53          	fmv.s	fs6,fs1
    20dc:	20948c53          	fmv.s	fs8,fs1
    20e0:	4485                	li	s1,1
    20e2:	4405                	li	s0,1
    20e4:	80c18a13          	addi	s4,gp,-2036 # 2000008c <RGB_LED_MODE>
    20e8:	81818b93          	addi	s7,gp,-2024 # 20000098 <point_duration>
    20ec:	0000cab7          	lui	s5,0xc
    20f0:	374060ef          	jal	ra,8464 <printf>
    20f4:	0000c537          	lui	a0,0xc
    20f8:	d2050513          	addi	a0,a0,-736 # bd20 <strlen+0x268>
    20fc:	3b6060ef          	jal	ra,84b2 <puts>
    2100:	0000c7b7          	lui	a5,0xc
    2104:	cd87a803          	lw	a6,-808(a5) # bcd8 <strlen+0x220>
    2108:	cdc7a883          	lw	a7,-804(a5)
    210c:	0000c7b7          	lui	a5,0xc
    2110:	cf07a703          	lw	a4,-784(a5) # bcf0 <strlen+0x238>
    2114:	cf47a783          	lw	a5,-780(a5)
    2118:	0000c6b7          	lui	a3,0xc
    211c:	c83a                	sw	a4,16(sp)
    211e:	ca3e                	sw	a5,20(sp)
    2120:	0000c7b7          	lui	a5,0xc
    2124:	cf87a703          	lw	a4,-776(a5) # bcf8 <strlen+0x240>
    2128:	cfc7a783          	lw	a5,-772(a5)
    212c:	ce86a603          	lw	a2,-792(a3) # bce8 <strlen+0x230>
    2130:	c03a                	sw	a4,0(sp)
    2132:	c23e                	sw	a5,4(sp)
    2134:	0000c7b7          	lui	a5,0xc
    2138:	ce07a703          	lw	a4,-800(a5) # bce0 <strlen+0x228>
    213c:	cec6a683          	lw	a3,-788(a3)
    2140:	ce47a783          	lw	a5,-796(a5)
    2144:	0000c537          	lui	a0,0xc
    2148:	c442                	sw	a6,8(sp)
    214a:	c646                	sw	a7,12(sp)
    214c:	d3850513          	addi	a0,a0,-712 # bd38 <strlen+0x280>
    2150:	314060ef          	jal	ra,8464 <printf>
    2154:	0000c7b7          	lui	a5,0xc
    2158:	c447ad07          	flw	fs10,-956(a5) # bc44 <strlen+0x18c>
    215c:	0000c7b7          	lui	a5,0xc
    2160:	c4cb2b87          	flw	fs7,-948(s6) # bc4c <strlen+0x194>
    2164:	ca49ac87          	flw	fs9,-860(s3) # bca4 <strlen+0x1ec>
    2168:	cbc7ad87          	flw	fs11,-836(a5) # bcbc <strlen+0x204>
    216c:	31a020ef          	jal	ra,4486 <LCD_ReceiveTask>
    2170:	057d                	addi	a0,a0,31
    2172:	0ff57513          	andi	a0,a0,255
    2176:	47f5                	li	a5,29
    2178:	8c018913          	addi	s2,gp,-1856 # 20000140 <start_flag>
    217c:	1aa7e663          	bltu	a5,a0,2328 <rb_test08+0x2bc>
    2180:	67b1                	lui	a5,0xc
    2182:	b6478793          	addi	a5,a5,-1180 # bb64 <strlen+0xac>
    2186:	050a                	slli	a0,a0,0x2
    2188:	953e                	add	a0,a0,a5
    218a:	411c                	lw	a5,0(a0)
    218c:	8782                	jr	a5
    218e:	00094783          	lbu	a5,0(s2)
    2192:	c3c1                	beqz	a5,2212 <rb_test08+0x1a6>
    2194:	89e1c783          	lbu	a5,-1890(gp) # 2000011e <cycle_complete>
    2198:	efad                	bnez	a5,2212 <rb_test08+0x1a6>
    219a:	8b51c783          	lbu	a5,-1867(gp) # 20000135 <point_count>
    219e:	cbb5                	beqz	a5,2212 <rb_test08+0x1a6>
    21a0:	89d18c13          	addi	s8,gp,-1891 # 2000011d <current_point>
    21a4:	000c4703          	lbu	a4,0(s8)
    21a8:	03000c93          	li	s9,48
    21ac:	03970733          	mul	a4,a4,s9
    21b0:	98018413          	addi	s0,gp,-1664 # 20000200 <points>
    21b4:	ca49a707          	flw	fa4,-860(s3)
    21b8:	9722                	add	a4,a4,s0
    21ba:	6710                	flw	fa2,8(a4)
    21bc:	00e67653          	fadd.s	fa2,fa2,fa4
    21c0:	a1a617d3          	flt.s	a5,fa2,fs10
    21c4:	c7a9                	beqz	a5,220e <rb_test08+0x1a2>
    21c6:	634c                	flw	fa1,4(a4)
    21c8:	6308                	flw	fa0,0(a4)
    21ca:	e710                	fsw	fa2,8(a4)
    21cc:	340010ef          	jal	ra,350c <robot_arm_5dof_method2>
    21d0:	000c4783          	lbu	a5,0(s8)
    21d4:	8dc1a787          	flw	fa5,-1828(gp) # 2000015c <J1_global>
    21d8:	039787b3          	mul	a5,a5,s9
    21dc:	97a2                	add	a5,a5,s0
    21de:	e7dc                	fsw	fa5,12(a5)
    21e0:	8e01a787          	flw	fa5,-1824(gp) # 20000160 <J2_global>
    21e4:	eb9c                	fsw	fa5,16(a5)
    21e6:	8e41a787          	flw	fa5,-1820(gp) # 20000164 <J3_global>
    21ea:	ebdc                	fsw	fa5,20(a5)
    21ec:	8e81a787          	flw	fa5,-1816(gp) # 20000168 <J4_global>
    21f0:	ef9c                	fsw	fa5,24(a5)
    21f2:	8ec1a787          	flw	fa5,-1812(gp) # 2000016c <J5_global>
    21f6:	0000c737          	lui	a4,0xc
    21fa:	ca472707          	flw	fa4,-860(a4) # bca4 <strlen+0x1ec>
    21fe:	efdc                	fsw	fa5,28(a5)
    2200:	77dc                	flw	fa5,44(a5)
    2202:	4719                	li	a4,6
    2204:	00e7f7d3          	fadd.s	fa5,fa5,fa4
    2208:	f7dc                	fsw	fa5,44(a5)
    220a:	86e18a23          	sb	a4,-1932(gp) # 200000f4 <YUYIN_FLAG>
    220e:	4405                	li	s0,1
    2210:	aa21                	j	2328 <rb_test08+0x2bc>
    2212:	ca49a707          	flw	fa4,-860(s3)
    2216:	67b6                	flw	fa5,76(sp)
    2218:	00e7f7d3          	fadd.s	fa5,fa5,fa4
    221c:	e6be                	fsw	fa5,76(sp)
    221e:	00f0                	addi	a2,sp,76
    2220:	00ac                	addi	a1,sp,72
    2222:	00c8                	addi	a0,sp,68
    2224:	ef2ff0ef          	jal	ra,1916 <clamp_coordinates>
    2228:	6636                	flw	fa2,76(sp)
    222a:	65a6                	flw	fa1,72(sp)
    222c:	6516                	flw	fa0,68(sp)
    222e:	f9eff0ef          	jal	ra,19cc <update_range_status>
    2232:	bff1                	j	220e <rb_test08+0x1a2>
    2234:	00094783          	lbu	a5,0(s2)
    2238:	cfbd                	beqz	a5,22b6 <rb_test08+0x24a>
    223a:	89e1c783          	lbu	a5,-1890(gp) # 2000011e <cycle_complete>
    223e:	efa5                	bnez	a5,22b6 <rb_test08+0x24a>
    2240:	8b51c783          	lbu	a5,-1867(gp) # 20000135 <point_count>
    2244:	cbad                	beqz	a5,22b6 <rb_test08+0x24a>
    2246:	89d18c13          	addi	s8,gp,-1891 # 2000011d <current_point>
    224a:	000c4703          	lbu	a4,0(s8)
    224e:	03000c93          	li	s9,48
    2252:	98018413          	addi	s0,gp,-1664 # 20000200 <points>
    2256:	039707b3          	mul	a5,a4,s9
    225a:	ca49a687          	flw	fa3,-860(s3)
    225e:	c3caa707          	flw	fa4,-964(s5) # bc3c <strlen+0x184>
    2262:	97a2                	add	a5,a5,s0
    2264:	6790                	flw	fa2,8(a5)
    2266:	08d67653          	fsub.s	fa2,fa2,fa3
    226a:	a0c71753          	flt.s	a4,fa4,fa2
    226e:	d345                	beqz	a4,220e <rb_test08+0x1a2>
    2270:	63cc                	flw	fa1,4(a5)
    2272:	6388                	flw	fa0,0(a5)
    2274:	e790                	fsw	fa2,8(a5)
    2276:	296010ef          	jal	ra,350c <robot_arm_5dof_method2>
    227a:	000c4783          	lbu	a5,0(s8)
    227e:	8dc1a787          	flw	fa5,-1828(gp) # 2000015c <J1_global>
    2282:	039787b3          	mul	a5,a5,s9
    2286:	97a2                	add	a5,a5,s0
    2288:	e7dc                	fsw	fa5,12(a5)
    228a:	8e01a787          	flw	fa5,-1824(gp) # 20000160 <J2_global>
    228e:	eb9c                	fsw	fa5,16(a5)
    2290:	8e41a787          	flw	fa5,-1820(gp) # 20000164 <J3_global>
    2294:	ebdc                	fsw	fa5,20(a5)
    2296:	8e81a787          	flw	fa5,-1816(gp) # 20000168 <J4_global>
    229a:	ef9c                	fsw	fa5,24(a5)
    229c:	8ec1a787          	flw	fa5,-1812(gp) # 2000016c <J5_global>
    22a0:	0000c737          	lui	a4,0xc
    22a4:	ca472687          	flw	fa3,-860(a4) # bca4 <strlen+0x1ec>
    22a8:	efdc                	fsw	fa5,28(a5)
    22aa:	77dc                	flw	fa5,44(a5)
    22ac:	471d                	li	a4,7
    22ae:	08d7f7d3          	fsub.s	fa5,fa5,fa3
    22b2:	f7dc                	fsw	fa5,44(a5)
    22b4:	bf99                	j	220a <rb_test08+0x19e>
    22b6:	ca49a707          	flw	fa4,-860(s3)
    22ba:	67b6                	flw	fa5,76(sp)
    22bc:	08e7f7d3          	fsub.s	fa5,fa5,fa4
    22c0:	bfb1                	j	221c <rb_test08+0x1b0>
    22c2:	ca49a707          	flw	fa4,-860(s3)
    22c6:	6796                	flw	fa5,68(sp)
    22c8:	08e7f7d3          	fsub.s	fa5,fa5,fa4
    22cc:	e2be                	fsw	fa5,68(sp)
    22ce:	bf81                	j	221e <rb_test08+0x1b2>
    22d0:	ca49a707          	flw	fa4,-860(s3)
    22d4:	6796                	flw	fa5,68(sp)
    22d6:	00e7f7d3          	fadd.s	fa5,fa5,fa4
    22da:	bfcd                	j	22cc <rb_test08+0x260>
    22dc:	ca49a707          	flw	fa4,-860(s3)
    22e0:	67a6                	flw	fa5,72(sp)
    22e2:	00e7f7d3          	fadd.s	fa5,fa5,fa4
    22e6:	e4be                	fsw	fa5,72(sp)
    22e8:	bf1d                	j	221e <rb_test08+0x1b2>
    22ea:	67a6                	flw	fa5,72(sp)
    22ec:	0997f7d3          	fsub.s	fa5,fa5,fs9
    22f0:	bfdd                	j	22e6 <rb_test08+0x27a>
    22f2:	89818793          	addi	a5,gp,-1896 # 20000118 <cebai_angle>
    22f6:	6388                	flw	fa0,0(a5)
    22f8:	c3caa787          	flw	fa5,-964(s5)
    22fc:	08f57553          	fsub.s	fa0,fa0,fa5
    2300:	4511                	li	a0,4
    2302:	e388                	fsw	fa0,0(a5)
    2304:	7bb010ef          	jal	ra,42be <Control_Motor>
    2308:	b719                	j	220e <rb_test08+0x1a2>
    230a:	89818793          	addi	a5,gp,-1896 # 20000118 <cebai_angle>
    230e:	6388                	flw	fa0,0(a5)
    2310:	c3caa787          	flw	fa5,-964(s5)
    2314:	00f57553          	fadd.s	fa0,fa0,fa5
    2318:	b7e5                	j	2300 <rb_test08+0x294>
    231a:	b47ff0ef          	jal	ra,1e60 <RUN_ZERO>
    231e:	c4cb2b87          	flw	fs7,-948(s6)
    2322:	b5f5                	j	220e <rb_test08+0x1a2>
    2324:	3e55                	jal	1ed8 <RUN_START>
    2326:	4401                	li	s0,0
    2328:	95b1c783          	lbu	a5,-1701(gp) # 200001db <ir_command>
    232c:	04500713          	li	a4,69
    2330:	d066                	sw	s9,32(sp)
    2332:	0ff7f793          	andi	a5,a5,255
    2336:	74e78363          	beq	a5,a4,2a7c <rb_test08+0xa10>
    233a:	3ef76663          	bltu	a4,a5,2726 <rb_test08+0x6ba>
    233e:	4761                	li	a4,24
    2340:	4ee78063          	beq	a5,a4,2820 <rb_test08+0x7b4>
    2344:	3af76e63          	bltu	a4,a5,2700 <rb_test08+0x694>
    2348:	4755                	li	a4,21
    234a:	58e78b63          	beq	a5,a4,28e0 <rb_test08+0x874>
    234e:	5782                	lw	a5,32(sp)
    2350:	94018da3          	sb	zero,-1701(gp) # 200001db <ir_command>
    2354:	8b718793          	addi	a5,gp,-1865 # 20000137 <return_in_progress>
    2358:	239c                	lbu	a5,0(a5)
    235a:	8b718c93          	addi	s9,gp,-1865 # 20000137 <return_in_progress>
    235e:	0ff7f793          	andi	a5,a5,255
    2362:	060781e3          	beqz	a5,2bc4 <rb_test08+0xb58>
    2366:	8b618793          	addi	a5,gp,-1866 # 20000136 <return_delay_flag>
    236a:	2398                	lbu	a4,0(a5)
    236c:	0ff77713          	andi	a4,a4,255
    2370:	04070ae3          	beqz	a4,2bc4 <rb_test08+0xb58>
    2374:	0000c537          	lui	a0,0xc
    2378:	00078023          	sb	zero,0(a5)
    237c:	e4850513          	addi	a0,a0,-440 # be48 <strlen+0x390>
    2380:	000c8023          	sb	zero,0(s9)
    2384:	12e060ef          	jal	ra,84b2 <puts>
    2388:	8b81c783          	lbu	a5,-1864(gp) # 20000138 <return_type>
    238c:	4711                	li	a4,4
    238e:	8b818c13          	addi	s8,gp,-1864 # 20000138 <return_type>
    2392:	17fd                	addi	a5,a5,-1
    2394:	0ff7f793          	andi	a5,a5,255
    2398:	02f764e3          	bltu	a4,a5,2bc0 <rb_test08+0xb54>
    239c:	6731                	lui	a4,0xc
    239e:	078a                	slli	a5,a5,0x2
    23a0:	bdc70713          	addi	a4,a4,-1060 # bbdc <strlen+0x124>
    23a4:	97ba                	add	a5,a5,a4
    23a6:	439c                	lw	a5,0(a5)
    23a8:	8782                	jr	a5
    23aa:	00094783          	lbu	a5,0(s2)
    23ae:	8b518c13          	addi	s8,gp,-1867 # 20000135 <point_count>
    23b2:	000c4c83          	lbu	s9,0(s8)
    23b6:	12079263          	bnez	a5,24da <rb_test08+0x46e>
    23ba:	4791                	li	a5,4
    23bc:	1397e163          	bltu	a5,s9,24de <rb_test08+0x472>
    23c0:	f00007d3          	fmv.w.x	fa5,zero
    23c4:	a0f927d3          	feq.s	a5,fs2,fa5
    23c8:	f3a5                	bnez	a5,2328 <rb_test08+0x2bc>
    23ca:	e099                	bnez	s1,23d0 <rb_test08+0x364>
    23cc:	7230006f          	j	32ee <rb_test08+0x1282>
    23d0:	6696                	flw	fa3,68(sp)
    23d2:	6726                	flw	fa4,72(sp)
    23d4:	67b6                	flw	fa5,76(sp)
    23d6:	20d68553          	fmv.s	fa0,fa3
    23da:	20e705d3          	fmv.s	fa1,fa4
    23de:	20f78653          	fmv.s	fa2,fa5
    23e2:	f83e                	fsw	fa5,48(sp)
    23e4:	f43a                	fsw	fa4,40(sp)
    23e6:	f036                	fsw	fa3,32(sp)
    23e8:	d92ff0ef          	jal	ra,197a <check_coordinate_range>
    23ec:	7682                	flw	fa3,32(sp)
    23ee:	7722                	flw	fa4,40(sp)
    23f0:	77c2                	flw	fa5,48(sp)
    23f2:	d91d                	beqz	a0,2328 <rb_test08+0x2bc>
    23f4:	03000d93          	li	s11,48
    23f8:	03bc8cb3          	mul	s9,s9,s11
    23fc:	479d                	li	a5,7
    23fe:	00fa0023          	sb	a5,0(s4)
    2402:	000ba783          	lw	a5,0(s7)
    2406:	98018d13          	addi	s10,gp,-1664 # 20000200 <points>
    240a:	9cea                	add	s9,s9,s10
    240c:	00dca027          	fsw	fa3,0(s9)
    2410:	00eca227          	fsw	fa4,4(s9)
    2414:	00fca427          	fsw	fa5,8(s9)
    2418:	02fca223          	sw	a5,36(s9)
    241c:	020c8423          	sb	zero,40(s9)
    2420:	020ca023          	sw	zero,32(s9)
    2424:	708010ef          	jal	ra,3b2c <filtered_tof>
    2428:	02aca627          	fsw	fa0,44(s9)
    242c:	000c4c83          	lbu	s9,0(s8)
    2430:	8dc1a787          	flw	fa5,-1828(gp) # 2000015c <J1_global>
    2434:	03bc87b3          	mul	a5,s9,s11
    2438:	6536                	flw	fa0,76(sp)
    243a:	0c85                	addi	s9,s9,1
    243c:	0ffcfc93          	andi	s9,s9,255
    2440:	019c0023          	sb	s9,0(s8)
    2444:	97ea                	add	a5,a5,s10
    2446:	e7dc                	fsw	fa5,12(a5)
    2448:	8e01a787          	flw	fa5,-1824(gp) # 20000160 <J2_global>
    244c:	eb9c                	fsw	fa5,16(a5)
    244e:	8e41a787          	flw	fa5,-1820(gp) # 20000164 <J3_global>
    2452:	ebdc                	fsw	fa5,20(a5)
    2454:	8e81a787          	flw	fa5,-1816(gp) # 20000168 <J4_global>
    2458:	ef9c                	fsw	fa5,24(a5)
    245a:	8ec1a787          	flw	fa5,-1812(gp) # 2000016c <J5_global>
    245e:	efdc                	fsw	fa5,28(a5)
    2460:	12a090ef          	jal	ra,b58a <__extendsfdf2>
    2464:	6526                	flw	fa0,72(sp)
    2466:	d82a                	sw	a0,48(sp)
    2468:	da2e                	sw	a1,52(sp)
    246a:	120090ef          	jal	ra,b58a <__extendsfdf2>
    246e:	6516                	flw	fa0,68(sp)
    2470:	d42a                	sw	a0,40(sp)
    2472:	d62e                	sw	a1,44(sp)
    2474:	116090ef          	jal	ra,b58a <__extendsfdf2>
    2478:	d22e                	sw	a1,36(sp)
    247a:	fffc8593          	addi	a1,s9,-1
    247e:	03b585b3          	mul	a1,a1,s11
    2482:	d02a                	sw	a0,32(sp)
    2484:	95ea                	add	a1,a1,s10
    2486:	75c8                	flw	fa0,44(a1)
    2488:	102090ef          	jal	ra,b58a <__extendsfdf2>
    248c:	c42a                	sw	a0,8(sp)
    248e:	000ba503          	lw	a0,0(s7)
    2492:	c62e                	sw	a1,12(sp)
    2494:	65bd                	lui	a1,0xf
    2496:	a6058593          	addi	a1,a1,-1440 # ea60 <_data_lma+0x1ec8>
    249a:	02b555b3          	divu	a1,a0,a1
    249e:	5842                	lw	a6,48(sp)
    24a0:	58d2                	lw	a7,52(sp)
    24a2:	5722                	lw	a4,40(sp)
    24a4:	57b2                	lw	a5,44(sp)
    24a6:	5602                	lw	a2,32(sp)
    24a8:	5692                	lw	a3,36(sp)
    24aa:	0000c537          	lui	a0,0xc
    24ae:	d7450513          	addi	a0,a0,-652 # bd74 <strlen+0x2bc>
    24b2:	c02e                	sw	a1,0(sp)
    24b4:	85e6                	mv	a1,s9
    24b6:	7af050ef          	jal	ra,8464 <printf>
    24ba:	6636                	flw	fa2,76(sp)
    24bc:	65a6                	flw	fa1,72(sp)
    24be:	6516                	flw	fa0,68(sp)
    24c0:	04c010ef          	jal	ra,350c <robot_arm_5dof_method2>
    24c4:	000c4583          	lbu	a1,0(s8)
    24c8:	0000c537          	lui	a0,0xc
    24cc:	db850513          	addi	a0,a0,-584 # bdb8 <strlen+0x300>
    24d0:	795050ef          	jal	ra,8464 <printf>
    24d4:	90cff0ef          	jal	ra,15e0 <print_joint_angles>
    24d8:	bd81                	j	2328 <rb_test08+0x2bc>
    24da:	e40c87e3          	beqz	s9,2328 <rb_test08+0x2bc>
    24de:	f00007d3          	fmv.w.x	fa5,zero
    24e2:	a0f927d3          	feq.s	a5,fs2,fa5
    24e6:	e40791e3          	bnez	a5,2328 <rb_test08+0x2bc>
    24ea:	e2049fe3          	bnez	s1,2328 <rb_test08+0x2bc>
    24ee:	8151c783          	lbu	a5,-2027(gp) # 20000095 <mode_hover>
    24f2:	cb89                	beqz	a5,2504 <rb_test08+0x498>
    24f4:	4509                	li	a0,2
    24f6:	b72ff0ef          	jal	ra,1868 <switch_mode>
    24fa:	470d                	li	a4,3
    24fc:	86e18a23          	sb	a4,-1932(gp) # 200000f4 <YUYIN_FLAG>
    2500:	4481                	li	s1,0
    2502:	b51d                	j	2328 <rb_test08+0x2bc>
    2504:	8b21c783          	lbu	a5,-1870(gp) # 20000132 <mode_lr>
    2508:	c791                	beqz	a5,2514 <rb_test08+0x4a8>
    250a:	450d                	li	a0,3
    250c:	b5cff0ef          	jal	ra,1868 <switch_mode>
    2510:	4709                	li	a4,2
    2512:	b7ed                	j	24fc <rb_test08+0x490>
    2514:	8b31c783          	lbu	a5,-1869(gp) # 20000133 <mode_ud>
    2518:	c791                	beqz	a5,2524 <rb_test08+0x4b8>
    251a:	4505                	li	a0,1
    251c:	b4cff0ef          	jal	ra,1868 <switch_mode>
    2520:	4715                	li	a4,5
    2522:	bfe9                	j	24fc <rb_test08+0x490>
    2524:	8b11c783          	lbu	a5,-1871(gp) # 20000131 <mode_circle>
    2528:	4481                	li	s1,0
    252a:	de078fe3          	beqz	a5,2328 <rb_test08+0x2bc>
    252e:	4501                	li	a0,0
    2530:	b38ff0ef          	jal	ra,1868 <switch_mode>
    2534:	4711                	li	a4,4
    2536:	86e18a23          	sb	a4,-1932(gp) # 200000f4 <YUYIN_FLAG>
    253a:	b3fd                	j	2328 <rb_test08+0x2bc>
    253c:	8b518c13          	addi	s8,gp,-1867 # 20000135 <point_count>
    2540:	000c4783          	lbu	a5,0(s8)
    2544:	de0782e3          	beqz	a5,2328 <rb_test08+0x2bc>
    2548:	00094783          	lbu	a5,0(s2)
    254c:	dc079ee3          	bnez	a5,2328 <rb_test08+0x2bc>
    2550:	40011537          	lui	a0,0x40011
    2554:	4605                	li	a2,1
    2556:	4585                	li	a1,1
    2558:	c0050513          	addi	a0,a0,-1024 # 40010c00 <_eusrstack+0x20008c00>
    255c:	abffe0ef          	jal	ra,101a <GPIO_WriteBit>
    2560:	4785                	li	a5,1
    2562:	88f18fa3          	sb	a5,-1889(gp) # 2000011f <flame_flag>
    2566:	86f18a23          	sb	a5,-1932(gp) # 200000f4 <YUYIN_FLAG>
    256a:	89e18c93          	addi	s9,gp,-1890 # 2000011e <cycle_complete>
    256e:	478d                	li	a5,3
    2570:	00fa0023          	sb	a5,0(s4)
    2574:	80f186a3          	sb	a5,-2035(gp) # 2000008d <RGB_LED_MODE_BACKUP>
    2578:	000cc783          	lbu	a5,0(s9)
    257c:	89d18493          	addi	s1,gp,-1891 # 2000011d <current_point>
    2580:	cba1                	beqz	a5,25d0 <rb_test08+0x564>
    2582:	f00007d3          	fmv.w.x	fa5,zero
    2586:	a0f927d3          	feq.s	a5,fs2,fa5
    258a:	e3b9                	bnez	a5,25d0 <rb_test08+0x564>
    258c:	0000c537          	lui	a0,0xc
    2590:	dcc50513          	addi	a0,a0,-564 # bdcc <strlen+0x314>
    2594:	71f050ef          	jal	ra,84b2 <puts>
    2598:	000c4683          	lbu	a3,0(s8)
    259c:	00048023          	sb	zero,0(s1)
    25a0:	000c8023          	sb	zero,0(s9)
    25a4:	98018793          	addi	a5,gp,-1664 # 20000200 <points>
    25a8:	4701                	li	a4,0
    25aa:	03078793          	addi	a5,a5,48
    25ae:	00d74b63          	blt	a4,a3,25c4 <rb_test08+0x558>
    25b2:	8c01aa23          	sw	zero,-1836(gp) # 20000154 <ud_traj_step>
    25b6:	4581                	li	a1,0
    25b8:	450d                	li	a0,3
    25ba:	8c01a623          	sw	zero,-1844(gp) # 2000014c <ud_interp_count>
    25be:	88eff0ef          	jal	ra,164c <start_return_delay>
    25c2:	bf3d                	j	2500 <rb_test08+0x494>
    25c4:	fe07a823          	sw	zero,-16(a5)
    25c8:	fe078c23          	sb	zero,-8(a5)
    25cc:	0705                	addi	a4,a4,1
    25ce:	bff1                	j	25aa <rb_test08+0x53e>
    25d0:	209c                	lbu	a5,0(s1)
    25d2:	4481                	li	s1,0
    25d4:	d4079ae3          	bnez	a5,2328 <rb_test08+0x2bc>
    25d8:	9a01a783          	lw	a5,-1632(gp) # 20000220 <points+0x20>
    25dc:	d40796e3          	bnez	a5,2328 <rb_test08+0x2bc>
    25e0:	0000c537          	lui	a0,0xc
    25e4:	df450513          	addi	a0,a0,-524 # bdf4 <strlen+0x33c>
    25e8:	6cb050ef          	jal	ra,84b2 <puts>
    25ec:	4581                	li	a1,0
    25ee:	4511                	li	a0,4
    25f0:	85cff0ef          	jal	ra,164c <start_return_delay>
    25f4:	bb15                	j	2328 <rb_test08+0x2bc>
    25f6:	967ff0ef          	jal	ra,1f5c <RUN_TIME_ADD>
    25fa:	b33d                	j	2328 <rb_test08+0x2bc>
    25fc:	9bdff0ef          	jal	ra,1fb8 <RUN_TIME_MINUS>
    2600:	b325                	j	2328 <rb_test08+0x2bc>
    2602:	8c0184a3          	sb	zero,-1847(gp) # 20000149 <timer_running_circle>
    2606:	8c018523          	sb	zero,-1846(gp) # 2000014a <timer_running_lr>
    260a:	8c0185a3          	sb	zero,-1845(gp) # 2000014b <timer_running_ud>
    260e:	88018e23          	sb	zero,-1892(gp) # 2000011c <circle_move_flag>
    2612:	8a018823          	sb	zero,-1872(gp) # 20000130 <lr_move_flag>
    2616:	8c018823          	sb	zero,-1840(gp) # 20000150 <ud_move_flag>
    261a:	8a018ba3          	sb	zero,-1865(gp) # 20000137 <return_in_progress>
    261e:	8a018aa3          	sb	zero,-1867(gp) # 20000135 <point_count>
    2622:	000ba683          	lw	a3,0(s7)
    2626:	98018793          	addi	a5,gp,-1664 # 20000200 <points>
    262a:	00090023          	sb	zero,0(s2)
    262e:	0f078713          	addi	a4,a5,240
    2632:	0007a023          	sw	zero,0(a5)
    2636:	0007a223          	sw	zero,4(a5)
    263a:	0007a423          	sw	zero,8(a5)
    263e:	0007a623          	sw	zero,12(a5)
    2642:	0007a823          	sw	zero,16(a5)
    2646:	0007aa23          	sw	zero,20(a5)
    264a:	0007ac23          	sw	zero,24(a5)
    264e:	0007ae23          	sw	zero,28(a5)
    2652:	0207a023          	sw	zero,32(a5)
    2656:	d3d4                	sw	a3,36(a5)
    2658:	02078423          	sb	zero,40(a5)
    265c:	0207a623          	sw	zero,44(a5)
    2660:	03078793          	addi	a5,a5,48
    2664:	fcf717e3          	bne	a4,a5,2632 <rb_test08+0x5c6>
    2668:	400114b7          	lui	s1,0x40011
    266c:	c0048513          	addi	a0,s1,-1024 # 40010c00 <_eusrstack+0x20008c00>
    2670:	4601                	li	a2,0
    2672:	4585                	li	a1,1
    2674:	9a7fe0ef          	jal	ra,101a <GPIO_WriteBit>
    2678:	c0048513          	addi	a0,s1,-1024
    267c:	4601                	li	a2,0
    267e:	4589                	li	a1,2
    2680:	99bfe0ef          	jal	ra,101a <GPIO_WriteBit>
    2684:	4601                	li	a2,0
    2686:	02000593          	li	a1,32
    268a:	40011537          	lui	a0,0x40011
    268e:	98dfe0ef          	jal	ra,101a <GPIO_WriteBit>
    2692:	0000c537          	lui	a0,0xc
    2696:	4799                	li	a5,6
    2698:	e1c50513          	addi	a0,a0,-484 # be1c <strlen+0x364>
    269c:	00fa0023          	sb	a5,0(s4)
    26a0:	80f186a3          	sb	a5,-2035(gp) # 2000008d <RGB_LED_MODE_BACKUP>
    26a4:	4485                	li	s1,1
    26a6:	60d050ef          	jal	ra,84b2 <puts>
    26aa:	b9bd                	j	2328 <rb_test08+0x2bc>
    26ac:	c3caa787          	flw	fa5,-964(s5)
    26b0:	00f47453          	fadd.s	fs0,fs0,fa5
    26b4:	a029                	j	26be <rb_test08+0x652>
    26b6:	c3caa787          	flw	fa5,-964(s5)
    26ba:	08f47453          	fsub.s	fs0,fs0,fa5
    26be:	20840553          	fmv.s	fa0,fs0
    26c2:	4519                	li	a0,6
    26c4:	3fb010ef          	jal	ra,42be <Control_Motor>
    26c8:	b185                	j	2328 <rb_test08+0x2bc>
    26ca:	c4cb2787          	flw	fa5,-948(s6)
    26ce:	b7cd                	j	26b0 <rb_test08+0x644>
    26d0:	c4cb2787          	flw	fa5,-948(s6)
    26d4:	b7dd                	j	26ba <rb_test08+0x64e>
    26d6:	c3caa787          	flw	fa5,-964(s5)
    26da:	00f4f4d3          	fadd.s	fs1,fs1,fa5
    26de:	4505                	li	a0,1
    26e0:	20948553          	fmv.s	fa0,fs1
    26e4:	b7c5                	j	26c4 <rb_test08+0x658>
    26e6:	0000c7b7          	lui	a5,0xc
    26ea:	c3c7a787          	flw	fa5,-964(a5) # bc3c <strlen+0x184>
    26ee:	08f4f4d3          	fsub.s	fs1,fs1,fa5
    26f2:	b7f5                	j	26de <rb_test08+0x672>
    26f4:	c4cb2787          	flw	fa5,-948(s6)
    26f8:	b7cd                	j	26da <rb_test08+0x66e>
    26fa:	c4cb2787          	flw	fa5,-948(s6)
    26fe:	bfc5                	j	26ee <rb_test08+0x682>
    2700:	4771                	li	a4,28
    2702:	0ee78663          	beq	a5,a4,27ee <rb_test08+0x782>
    2706:	04400713          	li	a4,68
    270a:	c4e792e3          	bne	a5,a4,234e <rb_test08+0x2e2>
    270e:	89818793          	addi	a5,gp,-1896 # 20000118 <cebai_angle>
    2712:	6388                	flw	fa0,0(a5)
    2714:	c3caa787          	flw	fa5,-964(s5)
    2718:	08f57553          	fsub.s	fa0,fa0,fa5
    271c:	4511                	li	a0,4
    271e:	e388                	fsw	fa0,0(a5)
    2720:	39f010ef          	jal	ra,42be <Control_Motor>
    2724:	a0ed                	j	280e <rb_test08+0x7a2>
    2726:	05900713          	li	a4,89
    272a:	0ee78463          	beq	a5,a4,2812 <rb_test08+0x7a6>
    272e:	02f76063          	bltu	a4,a5,274e <rb_test08+0x6e2>
    2732:	04700713          	li	a4,71
    2736:	0ee78b63          	beq	a5,a4,282c <rb_test08+0x7c0>
    273a:	05500713          	li	a4,85
    273e:	c0e798e3          	bne	a5,a4,234e <rb_test08+0x2e2>
    2742:	ca49a707          	flw	fa4,-860(s3)
    2746:	67a6                	flw	fa5,72(sp)
    2748:	08e7f7d3          	fsub.s	fa5,fa5,fa4
    274c:	a075                	j	27f8 <rb_test08+0x78c>
    274e:	05c00713          	li	a4,92
    2752:	16e78f63          	beq	a5,a4,28d0 <rb_test08+0x864>
    2756:	05d00713          	li	a4,93
    275a:	bee79ae3          	bne	a5,a4,234e <rb_test08+0x2e2>
    275e:	00094783          	lbu	a5,0(s2)
    2762:	16078163          	beqz	a5,28c4 <rb_test08+0x858>
    2766:	89e1c783          	lbu	a5,-1890(gp) # 2000011e <cycle_complete>
    276a:	14079d63          	bnez	a5,28c4 <rb_test08+0x858>
    276e:	8b51c783          	lbu	a5,-1867(gp) # 20000135 <point_count>
    2772:	14078963          	beqz	a5,28c4 <rb_test08+0x858>
    2776:	89d1c703          	lbu	a4,-1891(gp) # 2000011d <current_point>
    277a:	03000613          	li	a2,48
    277e:	02c70633          	mul	a2,a4,a2
    2782:	98018693          	addi	a3,gp,-1664 # 20000200 <points>
    2786:	ca49a787          	flw	fa5,-860(s3)
    278a:	89d18c13          	addi	s8,gp,-1891 # 2000011d <current_point>
    278e:	98018413          	addi	s0,gp,-1664 # 20000200 <points>
    2792:	96b2                	add	a3,a3,a2
    2794:	6690                	flw	fa2,8(a3)
    2796:	08f67653          	fsub.s	fa2,fa2,fa5
    279a:	c3caa787          	flw	fa5,-964(s5)
    279e:	a0c796d3          	flt.s	a3,fa5,fa2
    27a2:	c6b5                	beqz	a3,280e <rb_test08+0x7a2>
    27a4:	00c40733          	add	a4,s0,a2
    27a8:	634c                	flw	fa1,4(a4)
    27aa:	6308                	flw	fa0,0(a4)
    27ac:	e710                	fsw	fa2,8(a4)
    27ae:	03000d13          	li	s10,48
    27b2:	55b000ef          	jal	ra,350c <robot_arm_5dof_method2>
    27b6:	000c4783          	lbu	a5,0(s8)
    27ba:	8dc1a787          	flw	fa5,-1828(gp) # 2000015c <J1_global>
    27be:	03a787b3          	mul	a5,a5,s10
    27c2:	ca49a707          	flw	fa4,-860(s3)
    27c6:	97a2                	add	a5,a5,s0
    27c8:	e7dc                	fsw	fa5,12(a5)
    27ca:	8e01a787          	flw	fa5,-1824(gp) # 20000160 <J2_global>
    27ce:	eb9c                	fsw	fa5,16(a5)
    27d0:	8e41a787          	flw	fa5,-1820(gp) # 20000164 <J3_global>
    27d4:	ebdc                	fsw	fa5,20(a5)
    27d6:	8e81a787          	flw	fa5,-1816(gp) # 20000168 <J4_global>
    27da:	ef9c                	fsw	fa5,24(a5)
    27dc:	8ec1a787          	flw	fa5,-1812(gp) # 2000016c <J5_global>
    27e0:	471d                	li	a4,7
    27e2:	efdc                	fsw	fa5,28(a5)
    27e4:	77dc                	flw	fa5,44(a5)
    27e6:	08e7f7d3          	fsub.s	fa5,fa5,fa4
    27ea:	f7dc                	fsw	fa5,44(a5)
    27ec:	a0d1                	j	28b0 <rb_test08+0x844>
    27ee:	ca49a707          	flw	fa4,-860(s3)
    27f2:	67a6                	flw	fa5,72(sp)
    27f4:	00e7f7d3          	fadd.s	fa5,fa5,fa4
    27f8:	e4be                	fsw	fa5,72(sp)
    27fa:	00f0                	addi	a2,sp,76
    27fc:	00ac                	addi	a1,sp,72
    27fe:	00c8                	addi	a0,sp,68
    2800:	916ff0ef          	jal	ra,1916 <clamp_coordinates>
    2804:	6636                	flw	fa2,76(sp)
    2806:	65a6                	flw	fa1,72(sp)
    2808:	6516                	flw	fa0,68(sp)
    280a:	9c2ff0ef          	jal	ra,19cc <update_range_status>
    280e:	4405                	li	s0,1
    2810:	be3d                	j	234e <rb_test08+0x2e2>
    2812:	ca49a707          	flw	fa4,-860(s3)
    2816:	6796                	flw	fa5,68(sp)
    2818:	08e7f7d3          	fsub.s	fa5,fa5,fa4
    281c:	e2be                	fsw	fa5,68(sp)
    281e:	bff1                	j	27fa <rb_test08+0x78e>
    2820:	ca49a707          	flw	fa4,-860(s3)
    2824:	6796                	flw	fa5,68(sp)
    2826:	00e7f7d3          	fadd.s	fa5,fa5,fa4
    282a:	bfcd                	j	281c <rb_test08+0x7b0>
    282c:	00094783          	lbu	a5,0(s2)
    2830:	c3d9                	beqz	a5,28b6 <rb_test08+0x84a>
    2832:	89e1c783          	lbu	a5,-1890(gp) # 2000011e <cycle_complete>
    2836:	e3c1                	bnez	a5,28b6 <rb_test08+0x84a>
    2838:	8b51c783          	lbu	a5,-1867(gp) # 20000135 <point_count>
    283c:	cfad                	beqz	a5,28b6 <rb_test08+0x84a>
    283e:	89d18d13          	addi	s10,gp,-1891 # 2000011d <current_point>
    2842:	000d4703          	lbu	a4,0(s10)
    2846:	03000c13          	li	s8,48
    284a:	03870733          	mul	a4,a4,s8
    284e:	98018413          	addi	s0,gp,-1664 # 20000200 <points>
    2852:	ca49a707          	flw	fa4,-860(s3)
    2856:	0000c7b7          	lui	a5,0xc
    285a:	c447a787          	flw	fa5,-956(a5) # bc44 <strlen+0x18c>
    285e:	9722                	add	a4,a4,s0
    2860:	6710                	flw	fa2,8(a4)
    2862:	00e67653          	fadd.s	fa2,fa2,fa4
    2866:	a0f617d3          	flt.s	a5,fa2,fa5
    286a:	d3d5                	beqz	a5,280e <rb_test08+0x7a2>
    286c:	634c                	flw	fa1,4(a4)
    286e:	6308                	flw	fa0,0(a4)
    2870:	e710                	fsw	fa2,8(a4)
    2872:	49b000ef          	jal	ra,350c <robot_arm_5dof_method2>
    2876:	000d4783          	lbu	a5,0(s10)
    287a:	8dc1a787          	flw	fa5,-1828(gp) # 2000015c <J1_global>
    287e:	038787b3          	mul	a5,a5,s8
    2882:	97a2                	add	a5,a5,s0
    2884:	e7dc                	fsw	fa5,12(a5)
    2886:	8e01a787          	flw	fa5,-1824(gp) # 20000160 <J2_global>
    288a:	eb9c                	fsw	fa5,16(a5)
    288c:	8e41a787          	flw	fa5,-1820(gp) # 20000164 <J3_global>
    2890:	ebdc                	fsw	fa5,20(a5)
    2892:	8e81a787          	flw	fa5,-1816(gp) # 20000168 <J4_global>
    2896:	ef9c                	fsw	fa5,24(a5)
    2898:	8ec1a787          	flw	fa5,-1812(gp) # 2000016c <J5_global>
    289c:	0000c737          	lui	a4,0xc
    28a0:	ca472707          	flw	fa4,-860(a4) # bca4 <strlen+0x1ec>
    28a4:	efdc                	fsw	fa5,28(a5)
    28a6:	77dc                	flw	fa5,44(a5)
    28a8:	4719                	li	a4,6
    28aa:	00e7f7d3          	fadd.s	fa5,fa5,fa4
    28ae:	f7dc                	fsw	fa5,44(a5)
    28b0:	86e18a23          	sb	a4,-1932(gp) # 200000f4 <YUYIN_FLAG>
    28b4:	bfa9                	j	280e <rb_test08+0x7a2>
    28b6:	ca49a707          	flw	fa4,-860(s3)
    28ba:	67b6                	flw	fa5,76(sp)
    28bc:	00e7f7d3          	fadd.s	fa5,fa5,fa4
    28c0:	e6be                	fsw	fa5,76(sp)
    28c2:	bf25                	j	27fa <rb_test08+0x78e>
    28c4:	ca49a707          	flw	fa4,-860(s3)
    28c8:	67b6                	flw	fa5,76(sp)
    28ca:	08e7f7d3          	fsub.s	fa5,fa5,fa4
    28ce:	bfcd                	j	28c0 <rb_test08+0x854>
    28d0:	89818793          	addi	a5,gp,-1896 # 20000118 <cebai_angle>
    28d4:	6388                	flw	fa0,0(a5)
    28d6:	c3caa787          	flw	fa5,-964(s5)
    28da:	00f57553          	fadd.s	fa0,fa0,fa5
    28de:	bd3d                	j	271c <rb_test08+0x6b0>
    28e0:	00094783          	lbu	a5,0(s2)
    28e4:	8b51cd03          	lbu	s10,-1867(gp) # 20000135 <point_count>
    28e8:	8b518c13          	addi	s8,gp,-1867 # 20000135 <point_count>
    28ec:	12079563          	bnez	a5,2a16 <rb_test08+0x9aa>
    28f0:	4791                	li	a5,4
    28f2:	13a7e463          	bltu	a5,s10,2a1a <rb_test08+0x9ae>
    28f6:	f00007d3          	fmv.w.x	fa5,zero
    28fa:	a0f927d3          	feq.s	a5,fs2,fa5
    28fe:	a40798e3          	bnez	a5,234e <rb_test08+0x2e2>
    2902:	1e0482e3          	beqz	s1,32e6 <rb_test08+0x127a>
    2906:	6696                	flw	fa3,68(sp)
    2908:	6726                	flw	fa4,72(sp)
    290a:	67b6                	flw	fa5,76(sp)
    290c:	20d68553          	fmv.s	fa0,fa3
    2910:	20e705d3          	fmv.s	fa1,fa4
    2914:	20f78653          	fmv.s	fa2,fa5
    2918:	fc3e                	fsw	fa5,56(sp)
    291a:	f83a                	fsw	fa4,48(sp)
    291c:	f436                	fsw	fa3,40(sp)
    291e:	85cff0ef          	jal	ra,197a <check_coordinate_range>
    2922:	76a2                	flw	fa3,40(sp)
    2924:	7742                	flw	fa4,48(sp)
    2926:	77e2                	flw	fa5,56(sp)
    2928:	a20503e3          	beqz	a0,234e <rb_test08+0x2e2>
    292c:	03000c93          	li	s9,48
    2930:	039d0d33          	mul	s10,s10,s9
    2934:	479d                	li	a5,7
    2936:	00fa0023          	sb	a5,0(s4)
    293a:	000ba783          	lw	a5,0(s7)
    293e:	98018d93          	addi	s11,gp,-1664 # 20000200 <points>
    2942:	9d6e                	add	s10,s10,s11
    2944:	00dd2027          	fsw	fa3,0(s10)
    2948:	00ed2227          	fsw	fa4,4(s10)
    294c:	00fd2427          	fsw	fa5,8(s10)
    2950:	02fd2223          	sw	a5,36(s10)
    2954:	020d0423          	sb	zero,40(s10)
    2958:	020d2023          	sw	zero,32(s10)
    295c:	1d0010ef          	jal	ra,3b2c <filtered_tof>
    2960:	02ad2627          	fsw	fa0,44(s10)
    2964:	000c4d03          	lbu	s10,0(s8)
    2968:	8dc1a787          	flw	fa5,-1828(gp) # 2000015c <J1_global>
    296c:	039d07b3          	mul	a5,s10,s9
    2970:	6536                	flw	fa0,76(sp)
    2972:	0d05                	addi	s10,s10,1
    2974:	0ffd7d13          	andi	s10,s10,255
    2978:	01ac0023          	sb	s10,0(s8)
    297c:	97ee                	add	a5,a5,s11
    297e:	e7dc                	fsw	fa5,12(a5)
    2980:	8e01a787          	flw	fa5,-1824(gp) # 20000160 <J2_global>
    2984:	eb9c                	fsw	fa5,16(a5)
    2986:	8e41a787          	flw	fa5,-1820(gp) # 20000164 <J3_global>
    298a:	ebdc                	fsw	fa5,20(a5)
    298c:	8e81a787          	flw	fa5,-1816(gp) # 20000168 <J4_global>
    2990:	ef9c                	fsw	fa5,24(a5)
    2992:	8ec1a787          	flw	fa5,-1812(gp) # 2000016c <J5_global>
    2996:	efdc                	fsw	fa5,28(a5)
    2998:	3f3080ef          	jal	ra,b58a <__extendsfdf2>
    299c:	6526                	flw	fa0,72(sp)
    299e:	dc2a                	sw	a0,56(sp)
    29a0:	de2e                	sw	a1,60(sp)
    29a2:	3e9080ef          	jal	ra,b58a <__extendsfdf2>
    29a6:	6516                	flw	fa0,68(sp)
    29a8:	d82a                	sw	a0,48(sp)
    29aa:	da2e                	sw	a1,52(sp)
    29ac:	3df080ef          	jal	ra,b58a <__extendsfdf2>
    29b0:	d62e                	sw	a1,44(sp)
    29b2:	fffd0593          	addi	a1,s10,-1
    29b6:	03958333          	mul	t1,a1,s9
    29ba:	d42a                	sw	a0,40(sp)
    29bc:	936e                	add	t1,t1,s11
    29be:	02c32507          	flw	fa0,44(t1)
    29c2:	3c9080ef          	jal	ra,b58a <__extendsfdf2>
    29c6:	c42a                	sw	a0,8(sp)
    29c8:	000ba503          	lw	a0,0(s7)
    29cc:	c62e                	sw	a1,12(sp)
    29ce:	65bd                	lui	a1,0xf
    29d0:	a6058593          	addi	a1,a1,-1440 # ea60 <_data_lma+0x1ec8>
    29d4:	02b555b3          	divu	a1,a0,a1
    29d8:	5862                	lw	a6,56(sp)
    29da:	58f2                	lw	a7,60(sp)
    29dc:	5742                	lw	a4,48(sp)
    29de:	57d2                	lw	a5,52(sp)
    29e0:	5622                	lw	a2,40(sp)
    29e2:	56b2                	lw	a3,44(sp)
    29e4:	0000c537          	lui	a0,0xc
    29e8:	d7450513          	addi	a0,a0,-652 # bd74 <strlen+0x2bc>
    29ec:	c02e                	sw	a1,0(sp)
    29ee:	85ea                	mv	a1,s10
    29f0:	275050ef          	jal	ra,8464 <printf>
    29f4:	6636                	flw	fa2,76(sp)
    29f6:	65a6                	flw	fa1,72(sp)
    29f8:	6516                	flw	fa0,68(sp)
    29fa:	313000ef          	jal	ra,350c <robot_arm_5dof_method2>
    29fe:	000c4583          	lbu	a1,0(s8)
    2a02:	0000c537          	lui	a0,0xc
    2a06:	db850513          	addi	a0,a0,-584 # bdb8 <strlen+0x300>
    2a0a:	25b050ef          	jal	ra,8464 <printf>
    2a0e:	bd3fe0ef          	jal	ra,15e0 <print_joint_angles>
    2a12:	93dff06f          	j	234e <rb_test08+0x2e2>
    2a16:	920d0ce3          	beqz	s10,234e <rb_test08+0x2e2>
    2a1a:	f00007d3          	fmv.w.x	fa5,zero
    2a1e:	a0f927d3          	feq.s	a5,fs2,fa5
    2a22:	920796e3          	bnez	a5,234e <rb_test08+0x2e2>
    2a26:	920494e3          	bnez	s1,234e <rb_test08+0x2e2>
    2a2a:	8151c783          	lbu	a5,-2027(gp) # 20000095 <mode_hover>
    2a2e:	cb91                	beqz	a5,2a42 <rb_test08+0x9d6>
    2a30:	4509                	li	a0,2
    2a32:	e37fe0ef          	jal	ra,1868 <switch_mode>
    2a36:	470d                	li	a4,3
    2a38:	86e18a23          	sb	a4,-1932(gp) # 200000f4 <YUYIN_FLAG>
    2a3c:	4481                	li	s1,0
    2a3e:	911ff06f          	j	234e <rb_test08+0x2e2>
    2a42:	8b21c783          	lbu	a5,-1870(gp) # 20000132 <mode_lr>
    2a46:	c791                	beqz	a5,2a52 <rb_test08+0x9e6>
    2a48:	450d                	li	a0,3
    2a4a:	e1ffe0ef          	jal	ra,1868 <switch_mode>
    2a4e:	4709                	li	a4,2
    2a50:	b7e5                	j	2a38 <rb_test08+0x9cc>
    2a52:	8b31c783          	lbu	a5,-1869(gp) # 20000133 <mode_ud>
    2a56:	c791                	beqz	a5,2a62 <rb_test08+0x9f6>
    2a58:	4505                	li	a0,1
    2a5a:	e0ffe0ef          	jal	ra,1868 <switch_mode>
    2a5e:	4715                	li	a4,5
    2a60:	bfe1                	j	2a38 <rb_test08+0x9cc>
    2a62:	8b11c783          	lbu	a5,-1871(gp) # 20000131 <mode_circle>
    2a66:	4481                	li	s1,0
    2a68:	8e0783e3          	beqz	a5,234e <rb_test08+0x2e2>
    2a6c:	4501                	li	a0,0
    2a6e:	dfbfe0ef          	jal	ra,1868 <switch_mode>
    2a72:	4711                	li	a4,4
    2a74:	86e18a23          	sb	a4,-1932(gp) # 200000f4 <YUYIN_FLAG>
    2a78:	8d7ff06f          	j	234e <rb_test08+0x2e2>
    2a7c:	8b518c13          	addi	s8,gp,-1867 # 20000135 <point_count>
    2a80:	000c4783          	lbu	a5,0(s8)
    2a84:	8c0785e3          	beqz	a5,234e <rb_test08+0x2e2>
    2a88:	00094783          	lbu	a5,0(s2)
    2a8c:	8c0791e3          	bnez	a5,234e <rb_test08+0x2e2>
    2a90:	40011537          	lui	a0,0x40011
    2a94:	4605                	li	a2,1
    2a96:	4585                	li	a1,1
    2a98:	c0050513          	addi	a0,a0,-1024 # 40010c00 <_eusrstack+0x20008c00>
    2a9c:	d7efe0ef          	jal	ra,101a <GPIO_WriteBit>
    2aa0:	4785                	li	a5,1
    2aa2:	88f18fa3          	sb	a5,-1889(gp) # 2000011f <flame_flag>
    2aa6:	86f18a23          	sb	a5,-1932(gp) # 200000f4 <YUYIN_FLAG>
    2aaa:	89e18d13          	addi	s10,gp,-1890 # 2000011e <cycle_complete>
    2aae:	478d                	li	a5,3
    2ab0:	00fa0023          	sb	a5,0(s4)
    2ab4:	80f186a3          	sb	a5,-2035(gp) # 2000008d <RGB_LED_MODE_BACKUP>
    2ab8:	000d4783          	lbu	a5,0(s10)
    2abc:	89d18493          	addi	s1,gp,-1891 # 2000011d <current_point>
    2ac0:	cba1                	beqz	a5,2b10 <rb_test08+0xaa4>
    2ac2:	f00007d3          	fmv.w.x	fa5,zero
    2ac6:	a0f927d3          	feq.s	a5,fs2,fa5
    2aca:	e3b9                	bnez	a5,2b10 <rb_test08+0xaa4>
    2acc:	0000c537          	lui	a0,0xc
    2ad0:	dcc50513          	addi	a0,a0,-564 # bdcc <strlen+0x314>
    2ad4:	1df050ef          	jal	ra,84b2 <puts>
    2ad8:	000c4683          	lbu	a3,0(s8)
    2adc:	00048023          	sb	zero,0(s1)
    2ae0:	000d0023          	sb	zero,0(s10)
    2ae4:	98018793          	addi	a5,gp,-1664 # 20000200 <points>
    2ae8:	4701                	li	a4,0
    2aea:	03078793          	addi	a5,a5,48
    2aee:	00d74b63          	blt	a4,a3,2b04 <rb_test08+0xa98>
    2af2:	8c01aa23          	sw	zero,-1836(gp) # 20000154 <ud_traj_step>
    2af6:	4581                	li	a1,0
    2af8:	450d                	li	a0,3
    2afa:	8c01a623          	sw	zero,-1844(gp) # 2000014c <ud_interp_count>
    2afe:	b4ffe0ef          	jal	ra,164c <start_return_delay>
    2b02:	bf2d                	j	2a3c <rb_test08+0x9d0>
    2b04:	fe07a823          	sw	zero,-16(a5)
    2b08:	fe078c23          	sb	zero,-8(a5)
    2b0c:	0705                	addi	a4,a4,1
    2b0e:	bff1                	j	2aea <rb_test08+0xa7e>
    2b10:	209c                	lbu	a5,0(s1)
    2b12:	4481                	li	s1,0
    2b14:	82079de3          	bnez	a5,234e <rb_test08+0x2e2>
    2b18:	9a01a783          	lw	a5,-1632(gp) # 20000220 <points+0x20>
    2b1c:	820799e3          	bnez	a5,234e <rb_test08+0x2e2>
    2b20:	0000c537          	lui	a0,0xc
    2b24:	df450513          	addi	a0,a0,-524 # bdf4 <strlen+0x33c>
    2b28:	18b050ef          	jal	ra,84b2 <puts>
    2b2c:	4581                	li	a1,0
    2b2e:	4511                	li	a0,4
    2b30:	b1dfe0ef          	jal	ra,164c <start_return_delay>
    2b34:	81bff06f          	j	234e <rb_test08+0x2e2>
    2b38:	89d18d13          	addi	s10,gp,-1891 # 2000011d <current_point>
    2b3c:	000d4583          	lbu	a1,0(s10)
    2b40:	0000c537          	lui	a0,0xc
    2b44:	e5450513          	addi	a0,a0,-428 # be54 <strlen+0x39c>
    2b48:	0585                	addi	a1,a1,1
    2b4a:	11b050ef          	jal	ra,8464 <printf>
    2b4e:	000d4783          	lbu	a5,0(s10)
    2b52:	03000713          	li	a4,48
    2b56:	02e78733          	mul	a4,a5,a4
    2b5a:	98018793          	addi	a5,gp,-1664 # 20000200 <points>
    2b5e:	97ba                	add	a5,a5,a4
    2b60:	02078423          	sb	zero,40(a5)
    2b64:	8c01aa23          	sw	zero,-1836(gp) # 20000154 <ud_traj_step>
    2b68:	8c01a623          	sw	zero,-1844(gp) # 2000014c <ud_interp_count>
    2b6c:	8b11c703          	lbu	a4,-1871(gp) # 20000131 <mode_circle>
    2b70:	8ce184a3          	sb	a4,-1847(gp) # 20000149 <timer_running_circle>
    2b74:	8b21c703          	lbu	a4,-1870(gp) # 20000132 <mode_lr>
    2b78:	8ce18523          	sb	a4,-1846(gp) # 2000014a <timer_running_lr>
    2b7c:	8b31c703          	lbu	a4,-1869(gp) # 20000133 <mode_ud>
    2b80:	8ce185a3          	sb	a4,-1845(gp) # 2000014b <timer_running_ud>
    2b84:	a835                	j	2bc0 <rb_test08+0xb54>
    2b86:	40011d37          	lui	s10,0x40011
    2b8a:	4601                	li	a2,0
    2b8c:	4585                	li	a1,1
    2b8e:	c00d0513          	addi	a0,s10,-1024 # 40010c00 <_eusrstack+0x20008c00>
    2b92:	c88fe0ef          	jal	ra,101a <GPIO_WriteBit>
    2b96:	4601                	li	a2,0
    2b98:	4589                	li	a1,2
    2b9a:	c00d0513          	addi	a0,s10,-1024
    2b9e:	c7cfe0ef          	jal	ra,101a <GPIO_WriteBit>
    2ba2:	02000593          	li	a1,32
    2ba6:	40011537          	lui	a0,0x40011
    2baa:	4601                	li	a2,0
    2bac:	c6efe0ef          	jal	ra,101a <GPIO_WriteBit>
    2bb0:	8b51c583          	lbu	a1,-1867(gp) # 20000135 <point_count>
    2bb4:	0000c537          	lui	a0,0xc
    2bb8:	e8050513          	addi	a0,a0,-384 # be80 <strlen+0x3c8>
    2bbc:	0a9050ef          	jal	ra,8464 <printf>
    2bc0:	000c0023          	sb	zero,0(s8)
    2bc4:	00094783          	lbu	a5,0(s2)
    2bc8:	0c078263          	beqz	a5,2c8c <rb_test08+0xc20>
    2bcc:	89e18813          	addi	a6,gp,-1890 # 2000011e <cycle_complete>
    2bd0:	00084783          	lbu	a5,0(a6)
    2bd4:	efc5                	bnez	a5,2c8c <rb_test08+0xc20>
    2bd6:	8b518713          	addi	a4,gp,-1867 # 20000135 <point_count>
    2bda:	2310                	lbu	a2,0(a4)
    2bdc:	ca45                	beqz	a2,2c8c <rb_test08+0xc20>
    2bde:	89d18793          	addi	a5,gp,-1891 # 2000011d <current_point>
    2be2:	0007cc03          	lbu	s8,0(a5)
    2be6:	03000d13          	li	s10,48
    2bea:	03ac05b3          	mul	a1,s8,s10
    2bee:	98018513          	addi	a0,gp,-1664 # 20000200 <points>
    2bf2:	98018693          	addi	a3,gp,-1664 # 20000200 <points>
    2bf6:	00b50d33          	add	s10,a0,a1
    2bfa:	020d2583          	lw	a1,32(s10)
    2bfe:	024d2503          	lw	a0,36(s10)
    2c02:	26a5ee63          	bltu	a1,a0,2e7e <rb_test08+0xe12>
    2c06:	001c0593          	addi	a1,s8,1
    2c0a:	0ff5f593          	andi	a1,a1,255
    2c0e:	a38c                	sb	a1,0(a5)
    2c10:	8c918d93          	addi	s11,gp,-1847 # 20000149 <timer_running_circle>
    2c14:	8ca18d13          	addi	s10,gp,-1846 # 2000014a <timer_running_lr>
    2c18:	8cb18c93          	addi	s9,gp,-1845 # 2000014b <timer_running_ud>
    2c1c:	22c5ec63          	bltu	a1,a2,2e54 <rb_test08+0xde8>
    2c20:	40011c37          	lui	s8,0x40011
    2c24:	4601                	li	a2,0
    2c26:	4585                	li	a1,1
    2c28:	c00c0513          	addi	a0,s8,-1024 # 40010c00 <_eusrstack+0x20008c00>
    2c2c:	beefe0ef          	jal	ra,101a <GPIO_WriteBit>
    2c30:	4601                	li	a2,0
    2c32:	4589                	li	a1,2
    2c34:	c00c0513          	addi	a0,s8,-1024
    2c38:	be2fe0ef          	jal	ra,101a <GPIO_WriteBit>
    2c3c:	02000593          	li	a1,32
    2c40:	4601                	li	a2,0
    2c42:	40011537          	lui	a0,0x40011
    2c46:	bd4fe0ef          	jal	ra,101a <GPIO_WriteBit>
    2c4a:	000d8023          	sb	zero,0(s11)
    2c4e:	0000c537          	lui	a0,0xc
    2c52:	4785                	li	a5,1
    2c54:	89e18813          	addi	a6,gp,-1890 # 2000011e <cycle_complete>
    2c58:	000d0023          	sb	zero,0(s10)
    2c5c:	f1450513          	addi	a0,a0,-236 # bf14 <strlen+0x45c>
    2c60:	00f80023          	sb	a5,0(a6)
    2c64:	000a0023          	sb	zero,0(s4)
    2c68:	00090023          	sb	zero,0(s2)
    2c6c:	000c8023          	sb	zero,0(s9)
    2c70:	043050ef          	jal	ra,84b2 <puts>
    2c74:	46a1                	li	a3,8
    2c76:	86d18a23          	sb	a3,-1932(gp) # 200000f4 <YUYIN_FLAG>
    2c7a:	8b518713          	addi	a4,gp,-1867 # 20000135 <point_count>
    2c7e:	230c                	lbu	a1,0(a4)
    2c80:	4509                	li	a0,2
    2c82:	15fd                	addi	a1,a1,-1
    2c84:	0ff5f593          	andi	a1,a1,255
    2c88:	9c5fe0ef          	jal	ra,164c <start_return_delay>
    2c8c:	6a1000ef          	jal	ra,3b2c <filtered_tof>
    2c90:	4f3000ef          	jal	ra,3982 <get_angle>
    2c94:	f00007d3          	fmv.w.x	fa5,zero
    2c98:	a0fba7d3          	feq.s	a5,fs7,fa5
    2c9c:	e399                	bnez	a5,2ca2 <rb_test08+0xc36>
    2c9e:	8ec1ab07          	flw	fs6,-1812(gp) # 2000016c <J5_global>
    2ca2:	8c818793          	addi	a5,gp,-1848 # 20000148 <time_delay_100ms>
    2ca6:	2398                	lbu	a4,0(a5)
    2ca8:	0ff77713          	andi	a4,a4,255
    2cac:	c339                	beqz	a4,2cf2 <rb_test08+0xc86>
    2cae:	c031                	beqz	s0,2cf2 <rb_test08+0xc86>
    2cb0:	f00007d3          	fmv.w.x	fa5,zero
    2cb4:	a0f92753          	feq.s	a4,fs2,fa5
    2cb8:	ef0d                	bnez	a4,2cf2 <rb_test08+0xc86>
    2cba:	00078023          	sb	zero,0(a5)
    2cbe:	0000c7b7          	lui	a5,0xc
    2cc2:	cc87a787          	flw	fa5,-824(a5) # bcc8 <strlen+0x210>
    2cc6:	a15797d3          	flt.s	a5,fa5,fs5
    2cca:	5e078c63          	beqz	a5,32c2 <rb_test08+0x1256>
    2cce:	9101a507          	flw	fa0,-1776(gp) # 20000190 <Pitch_angle>
    2cd2:	0000c7b7          	lui	a5,0xc
    2cd6:	ccc7a787          	flw	fa5,-820(a5) # bccc <strlen+0x214>
    2cda:	08f57553          	fsub.s	fa0,fa0,fa5
    2cde:	b38ff0ef          	jal	ra,2016 <PID_five_motor>
    2ce2:	01657553          	fadd.s	fa0,fa0,fs6
    2ce6:	4601                	li	a2,0
    2ce8:	0dc00593          	li	a1,220
    2cec:	4519                	li	a0,6
    2cee:	4d0010ef          	jal	ra,41be <Control_Motor_new>
    2cf2:	6796                	flw	fa5,68(sp)
    2cf4:	a187a7d3          	feq.s	a5,fa5,fs8
    2cf8:	cb91                	beqz	a5,2d0c <rb_test08+0xca0>
    2cfa:	6726                	flw	fa4,72(sp)
    2cfc:	a14727d3          	feq.s	a5,fa4,fs4
    2d00:	c791                	beqz	a5,2d0c <rb_test08+0xca0>
    2d02:	6736                	flw	fa4,76(sp)
    2d04:	a13727d3          	feq.s	a5,fa4,fs3
    2d08:	c6079263          	bnez	a5,216c <rb_test08+0x100>
    2d0c:	00094783          	lbu	a5,0(s2)
    2d10:	c4079e63          	bnez	a5,216c <rb_test08+0x100>
    2d14:	f0000753          	fmv.w.x	fa4,zero
    2d18:	a0e927d3          	feq.s	a5,fs2,fa4
    2d1c:	e399                	bnez	a5,2d22 <rb_test08+0xcb6>
    2d1e:	20e70bd3          	fmv.s	fs7,fa4
    2d22:	000a4703          	lbu	a4,0(s4)
    2d26:	4795                	li	a5,5
    2d28:	00f70763          	beq	a4,a5,2d36 <rb_test08+0xcca>
    2d2c:	4785                	li	a5,1
    2d2e:	00fa0023          	sb	a5,0(s4)
    2d32:	80f186a3          	sb	a5,-2035(gp) # 2000008d <RGB_LED_MODE_BACKUP>
    2d36:	6a26                	flw	fs4,72(sp)
    2d38:	69b6                	flw	fs3,76(sp)
    2d3a:	20f78553          	fmv.s	fa0,fa5
    2d3e:	214a05d3          	fmv.s	fa1,fs4
    2d42:	21398653          	fmv.s	fa2,fs3
    2d46:	f03e                	fsw	fa5,32(sp)
    2d48:	7c4000ef          	jal	ra,350c <robot_arm_5dof_method2>
    2d4c:	0000c7b7          	lui	a5,0xc
    2d50:	8dc1a707          	flw	fa4,-1828(gp) # 2000015c <J1_global>
    2d54:	f907a507          	flw	fa0,-112(a5) # bf90 <strlen+0x4d8>
    2d58:	4505                	li	a0,1
    2d5a:	08e57553          	fsub.s	fa0,fa0,fa4
    2d5e:	560010ef          	jal	ra,42be <Control_Motor>
    2d62:	8e01a507          	flw	fa0,-1824(gp) # 20000160 <J2_global>
    2d66:	4509                	li	a0,2
    2d68:	16b010ef          	jal	ra,46d2 <CAN_BLDC_POS_CONTROL>
    2d6c:	8e41a507          	flw	fa0,-1820(gp) # 20000164 <J3_global>
    2d70:	450d                	li	a0,3
    2d72:	161010ef          	jal	ra,46d2 <CAN_BLDC_POS_CONTROL>
    2d76:	8e81a507          	flw	fa0,-1816(gp) # 20000168 <J4_global>
    2d7a:	4515                	li	a0,5
    2d7c:	542010ef          	jal	ra,42be <Control_Motor>
    2d80:	6716                	flw	fa4,68(sp)
    2d82:	c01717d3          	fcvt.wu.s	a5,fa4,rtz
    2d86:	6726                	flw	fa4,72(sp)
    2d88:	92f1a423          	sw	a5,-1752(gp) # 200001a8 <n0>
    2d8c:	c01717d3          	fcvt.wu.s	a5,fa4,rtz
    2d90:	6736                	flw	fa4,76(sp)
    2d92:	92f1a623          	sw	a5,-1748(gp) # 200001ac <n1>
    2d96:	c01717d3          	fcvt.wu.s	a5,fa4,rtz
    2d9a:	8dc1a707          	flw	fa4,-1828(gp) # 2000015c <J1_global>
    2d9e:	92f1ac23          	sw	a5,-1736(gp) # 200001b8 <n2>
    2da2:	c01717d3          	fcvt.wu.s	a5,fa4,rtz
    2da6:	8e01a707          	flw	fa4,-1824(gp) # 20000160 <J2_global>
    2daa:	92f1ae23          	sw	a5,-1732(gp) # 200001bc <n3>
    2dae:	c01717d3          	fcvt.wu.s	a5,fa4,rtz
    2db2:	8e41a707          	flw	fa4,-1820(gp) # 20000164 <J3_global>
    2db6:	94f1a023          	sw	a5,-1728(gp) # 200001c0 <n4>
    2dba:	c01717d3          	fcvt.wu.s	a5,fa4,rtz
    2dbe:	8e81a707          	flw	fa4,-1816(gp) # 20000168 <J4_global>
    2dc2:	94f1a223          	sw	a5,-1724(gp) # 200001c4 <n5>
    2dc6:	c01717d3          	fcvt.wu.s	a5,fa4,rtz
    2dca:	94f1a423          	sw	a5,-1720(gp) # 200001c8 <n6>
    2dce:	8ec1a707          	flw	fa4,-1812(gp) # 2000016c <J5_global>
    2dd2:	c01717d3          	fcvt.wu.s	a5,fa4,rtz
    2dd6:	94f1a623          	sw	a5,-1716(gp) # 200001cc <n7>
    2dda:	61a010ef          	jal	ra,43f4 <LCD_SendTask>
    2dde:	0000c537          	lui	a0,0xc
    2de2:	f7450513          	addi	a0,a0,-140 # bf74 <strlen+0x4bc>
    2de6:	67e050ef          	jal	ra,8464 <printf>
    2dea:	ff6fe0ef          	jal	ra,15e0 <print_joint_angles>
    2dee:	7782                	flw	fa5,32(sp)
    2df0:	c4cb2907          	flw	fs2,-948(s6)
    2df4:	20f78c53          	fmv.s	fs8,fa5
    2df8:	b74ff06f          	j	216c <rb_test08+0x100>
    2dfc:	0000c537          	lui	a0,0xc
    2e00:	ea450513          	addi	a0,a0,-348 # bea4 <strlen+0x3ec>
    2e04:	6ae050ef          	jal	ra,84b2 <puts>
    2e08:	4785                	li	a5,1
    2e0a:	00f90023          	sb	a5,0(s2)
    2e0e:	bbb9                	j	2b6c <rb_test08+0xb00>
    2e10:	0000c537          	lui	a0,0xc
    2e14:	ecc50513          	addi	a0,a0,-308 # becc <strlen+0x414>
    2e18:	b7f5                	j	2e04 <rb_test08+0xd98>
    2e1a:	89d18d13          	addi	s10,gp,-1891 # 2000011d <current_point>
    2e1e:	000d4583          	lbu	a1,0(s10)
    2e22:	0000c537          	lui	a0,0xc
    2e26:	ef450513          	addi	a0,a0,-268 # bef4 <strlen+0x43c>
    2e2a:	0585                	addi	a1,a1,1
    2e2c:	638050ef          	jal	ra,8464 <printf>
    2e30:	000d4783          	lbu	a5,0(s10)
    2e34:	03000713          	li	a4,48
    2e38:	02e78733          	mul	a4,a5,a4
    2e3c:	98018793          	addi	a5,gp,-1664 # 20000200 <points>
    2e40:	97ba                	add	a5,a5,a4
    2e42:	02078423          	sb	zero,40(a5)
    2e46:	0207a023          	sw	zero,32(a5)
    2e4a:	8c01aa23          	sw	zero,-1836(gp) # 20000154 <ud_traj_step>
    2e4e:	8c01a623          	sw	zero,-1844(gp) # 2000014c <ud_interp_count>
    2e52:	bf5d                	j	2e08 <rb_test08+0xd9c>
    2e54:	0000c537          	lui	a0,0xc
    2e58:	00158613          	addi	a2,a1,1
    2e5c:	f4050513          	addi	a0,a0,-192 # bf40 <strlen+0x488>
    2e60:	604050ef          	jal	ra,8464 <printf>
    2e64:	000d8023          	sb	zero,0(s11)
    2e68:	000d0023          	sb	zero,0(s10)
    2e6c:	89d18793          	addi	a5,gp,-1891 # 2000011d <current_point>
    2e70:	00090023          	sb	zero,0(s2)
    2e74:	000c8023          	sb	zero,0(s9)
    2e78:	238c                	lbu	a1,0(a5)
    2e7a:	4515                	li	a0,5
    2e7c:	b531                	j	2c88 <rb_test08+0xc1c>
    2e7e:	8151c783          	lbu	a5,-2027(gp) # 20000095 <mode_hover>
    2e82:	c3d9                	beqz	a5,2f08 <rb_test08+0xe9c>
    2e84:	4a9000ef          	jal	ra,3b2c <filtered_tof>
    2e88:	02cd2587          	flw	fa1,44(s10)
    2e8c:	93dfe0ef          	jal	ra,17c8 <calculate_z_compensation>
    2e90:	008d2787          	flw	fa5,8(s10)
    2e94:	000d2707          	flw	fa4,0(s10)
    2e98:	08f0                	addi	a2,sp,92
    2e9a:	00f577d3          	fadd.s	fa5,fa0,fa5
    2e9e:	eaba                	fsw	fa4,84(sp)
    2ea0:	004d2707          	flw	fa4,4(s10)
    2ea4:	08ac                	addi	a1,sp,88
    2ea6:	08c8                	addi	a0,sp,84
    2ea8:	f02a                	fsw	fa0,32(sp)
    2eaa:	eebe                	fsw	fa5,92(sp)
    2eac:	ecba                	fsw	fa4,88(sp)
    2eae:	a69fe0ef          	jal	ra,1916 <clamp_coordinates>
    2eb2:	7502                	flw	fa0,32(sp)
    2eb4:	0000c7b7          	lui	a5,0xc
    2eb8:	ca87a787          	flw	fa5,-856(a5) # bca8 <strlen+0x1f0>
    2ebc:	20a52553          	fabs.s	fa0,fa0
    2ec0:	a0a797d3          	flt.s	a5,fa5,fa0
    2ec4:	dc0784e3          	beqz	a5,2c8c <rb_test08+0xc20>
    2ec8:	6676                	flw	fa2,92(sp)
    2eca:	65e6                	flw	fa1,88(sp)
    2ecc:	6556                	flw	fa0,84(sp)
    2ece:	63e000ef          	jal	ra,350c <robot_arm_5dof_method2>
    2ed2:	8e01a507          	flw	fa0,-1824(gp) # 20000160 <J2_global>
    2ed6:	4509                	li	a0,2
    2ed8:	7fa010ef          	jal	ra,46d2 <CAN_BLDC_POS_CONTROL>
    2edc:	8e41a507          	flw	fa0,-1820(gp) # 20000164 <J3_global>
    2ee0:	450d                	li	a0,3
    2ee2:	7f0010ef          	jal	ra,46d2 <CAN_BLDC_POS_CONTROL>
    2ee6:	8e81a507          	flw	fa0,-1816(gp) # 20000168 <J4_global>
    2eea:	4515                	li	a0,5
    2eec:	3d2010ef          	jal	ra,42be <Control_Motor>
    2ef0:	8dc1a787          	flw	fa5,-1828(gp) # 2000015c <J1_global>
    2ef4:	0000c7b7          	lui	a5,0xc
    2ef8:	f907a507          	flw	fa0,-112(a5) # bf90 <strlen+0x4d8>
    2efc:	4505                	li	a0,1
    2efe:	08f57553          	fsub.s	fa0,fa0,fa5
    2f02:	3bc010ef          	jal	ra,42be <Control_Motor>
    2f06:	b359                	j	2c8c <rb_test08+0xc20>
    2f08:	8b21c783          	lbu	a5,-1870(gp) # 20000132 <mode_lr>
    2f0c:	10078563          	beqz	a5,3016 <rb_test08+0xfaa>
    2f10:	8b018793          	addi	a5,gp,-1872 # 20000130 <lr_move_flag>
    2f14:	239c                	lbu	a5,0(a5)
    2f16:	8b018d93          	addi	s11,gp,-1872 # 20000130 <lr_move_flag>
    2f1a:	0ff7f793          	andi	a5,a5,255
    2f1e:	0e078c63          	beqz	a5,3016 <rb_test08+0xfaa>
    2f22:	000dc783          	lbu	a5,0(s11)
    2f26:	0ff7f793          	andi	a5,a5,255
    2f2a:	d60781e3          	beqz	a5,2c8c <rb_test08+0xc20>
    2f2e:	000cc783          	lbu	a5,0(s9)
    2f32:	0ff7f793          	andi	a5,a5,255
    2f36:	d4079be3          	bnez	a5,2c8c <rb_test08+0xc20>
    2f3a:	028d4783          	lbu	a5,40(s10)
    2f3e:	4705                	li	a4,1
    2f40:	000d2787          	flw	fa5,0(s10)
    2f44:	00e78f63          	beq	a5,a4,2f62 <rb_test08+0xef6>
    2f48:	cbcd                	beqz	a5,2ffa <rb_test08+0xf8e>
    2f4a:	4709                	li	a4,2
    2f4c:	0ae78763          	beq	a5,a4,2ffa <rb_test08+0xf8e>
    2f50:	03000793          	li	a5,48
    2f54:	02fc07b3          	mul	a5,s8,a5
    2f58:	ecbe                	fsw	fa5,88(sp)
    2f5a:	97b6                	add	a5,a5,a3
    2f5c:	02078423          	sb	zero,40(a5)
    2f60:	a005                	j	2f80 <rb_test08+0xf14>
    2f62:	0000c7b7          	lui	a5,0xc
    2f66:	cac7a707          	flw	fa4,-852(a5) # bcac <strlen+0x1f4>
    2f6a:	03000793          	li	a5,48
    2f6e:	02fc07b3          	mul	a5,s8,a5
    2f72:	08e7f7d3          	fsub.s	fa5,fa5,fa4
    2f76:	4709                	li	a4,2
    2f78:	ecbe                	fsw	fa5,88(sp)
    2f7a:	97b6                	add	a5,a5,a3
    2f7c:	02e78423          	sb	a4,40(a5)
    2f80:	3ad000ef          	jal	ra,3b2c <filtered_tof>
    2f84:	03000593          	li	a1,48
    2f88:	02bc0c33          	mul	s8,s8,a1
    2f8c:	98018693          	addi	a3,gp,-1664 # 20000200 <points>
    2f90:	9c36                	add	s8,s8,a3
    2f92:	02cc2587          	flw	fa1,44(s8)
    2f96:	833fe0ef          	jal	ra,17c8 <calculate_z_compensation>
    2f9a:	008c2787          	flw	fa5,8(s8)
    2f9e:	08f0                	addi	a2,sp,92
    2fa0:	088c                	addi	a1,sp,80
    2fa2:	00a7f553          	fadd.s	fa0,fa5,fa0
    2fa6:	004c2787          	flw	fa5,4(s8)
    2faa:	08a8                	addi	a0,sp,88
    2fac:	e8be                	fsw	fa5,80(sp)
    2fae:	eeaa                	fsw	fa0,92(sp)
    2fb0:	967fe0ef          	jal	ra,1916 <clamp_coordinates>
    2fb4:	6676                	flw	fa2,92(sp)
    2fb6:	004c2587          	flw	fa1,4(s8)
    2fba:	6566                	flw	fa0,88(sp)
    2fbc:	550000ef          	jal	ra,350c <robot_arm_5dof_method2>
    2fc0:	8dc1a787          	flw	fa5,-1828(gp) # 2000015c <J1_global>
    2fc4:	0000c7b7          	lui	a5,0xc
    2fc8:	f907a507          	flw	fa0,-112(a5) # bf90 <strlen+0x4d8>
    2fcc:	6585                	lui	a1,0x1
    2fce:	0dc00613          	li	a2,220
    2fd2:	08f57553          	fsub.s	fa0,fa0,fa5
    2fd6:	9c458593          	addi	a1,a1,-1596 # 9c4 <CAN_Transmit+0x60>
    2fda:	4505                	li	a0,1
    2fdc:	1e2010ef          	jal	ra,41be <Control_Motor_new>
    2fe0:	8e01a507          	flw	fa0,-1824(gp) # 20000160 <J2_global>
    2fe4:	4509                	li	a0,2
    2fe6:	6ec010ef          	jal	ra,46d2 <CAN_BLDC_POS_CONTROL>
    2fea:	8e41a507          	flw	fa0,-1820(gp) # 20000164 <J3_global>
    2fee:	450d                	li	a0,3
    2ff0:	6e2010ef          	jal	ra,46d2 <CAN_BLDC_POS_CONTROL>
    2ff4:	000d8023          	sb	zero,0(s11)
    2ff8:	b951                	j	2c8c <rb_test08+0xc20>
    2ffa:	0000c7b7          	lui	a5,0xc
    2ffe:	cac7a707          	flw	fa4,-852(a5) # bcac <strlen+0x1f4>
    3002:	03000793          	li	a5,48
    3006:	02fc07b3          	mul	a5,s8,a5
    300a:	00e7f7d3          	fadd.s	fa5,fa5,fa4
    300e:	4705                	li	a4,1
    3010:	ecbe                	fsw	fa5,88(sp)
    3012:	97b6                	add	a5,a5,a3
    3014:	b7a5                	j	2f7c <rb_test08+0xf10>
    3016:	8b11c783          	lbu	a5,-1871(gp) # 20000131 <mode_circle>
    301a:	16078d63          	beqz	a5,3194 <rb_test08+0x1128>
    301e:	89c18813          	addi	a6,gp,-1892 # 2000011c <circle_move_flag>
    3022:	00084783          	lbu	a5,0(a6)
    3026:	0ff7f793          	andi	a5,a5,255
    302a:	16078563          	beqz	a5,3194 <rb_test08+0x1128>
    302e:	00084783          	lbu	a5,0(a6)
    3032:	0ff7f793          	andi	a5,a5,255
    3036:	c4078be3          	beqz	a5,2c8c <rb_test08+0xc20>
    303a:	000cc783          	lbu	a5,0(s9)
    303e:	0ff7f793          	andi	a5,a5,255
    3042:	c40795e3          	bnez	a5,2c8c <rb_test08+0xc20>
    3046:	89418893          	addi	a7,gp,-1900 # 20000114 <angle_idx.5884>
    304a:	0008c783          	lbu	a5,0(a7)
    304e:	0000ccb7          	lui	s9,0xc
    3052:	d007f7d3          	fcvt.s.w	fa5,a5
    3056:	0000c7b7          	lui	a5,0xc
    305a:	cb07a507          	flw	fa0,-848(a5) # bcb0 <strlen+0x1f8>
    305e:	0000c7b7          	lui	a5,0xc
    3062:	10a7f7d3          	fmul.s	fa5,fa5,fa0
    3066:	cb47a507          	flw	fa0,-844(a5) # bcb4 <strlen+0x1fc>
    306a:	0000c7b7          	lui	a5,0xc
    306e:	10a7f7d3          	fmul.s	fa5,fa5,fa0
    3072:	cb87a507          	flw	fa0,-840(a5) # bcb8 <strlen+0x200>
    3076:	18a7f553          	fdiv.s	fa0,fa5,fa0
    307a:	510080ef          	jal	ra,b58a <__extendsfdf2>
    307e:	d42a                	sw	a0,40(sp)
    3080:	d62e                	sw	a1,44(sp)
    3082:	33e020ef          	jal	ra,53c0 <cos>
    3086:	8dae                	mv	s11,a1
    3088:	03000593          	li	a1,48
    308c:	02bc0c33          	mul	s8,s8,a1
    3090:	98018693          	addi	a3,gp,-1664 # 20000200 <points>
    3094:	8d2a                	mv	s10,a0
    3096:	9c36                	add	s8,s8,a3
    3098:	000c2507          	flw	fa0,0(s8)
    309c:	4ee080ef          	jal	ra,b58a <__extendsfdf2>
    30a0:	d00ca603          	lw	a2,-768(s9) # bd00 <strlen+0x248>
    30a4:	d04ca683          	lw	a3,-764(s9)
    30a8:	d02a                	sw	a0,32(sp)
    30aa:	d22e                	sw	a1,36(sp)
    30ac:	856a                	mv	a0,s10
    30ae:	85ee                	mv	a1,s11
    30b0:	765060ef          	jal	ra,a014 <__muldf3>
    30b4:	5302                	lw	t1,32(sp)
    30b6:	5392                	lw	t2,36(sp)
    30b8:	862a                	mv	a2,a0
    30ba:	86ae                	mv	a3,a1
    30bc:	851a                	mv	a0,t1
    30be:	859e                	mv	a1,t2
    30c0:	359050ef          	jal	ra,8c18 <__adddf3>
    30c4:	5ae080ef          	jal	ra,b672 <__truncdfsf2>
    30c8:	5722                	lw	a4,40(sp)
    30ca:	57b2                	lw	a5,44(sp)
    30cc:	eaaa                	fsw	fa0,84(sp)
    30ce:	853a                	mv	a0,a4
    30d0:	85be                	mv	a1,a5
    30d2:	37e020ef          	jal	ra,5450 <sin>
    30d6:	004c2507          	flw	fa0,4(s8)
    30da:	8d2a                	mv	s10,a0
    30dc:	8dae                	mv	s11,a1
    30de:	4ac080ef          	jal	ra,b58a <__extendsfdf2>
    30e2:	d00ca603          	lw	a2,-768(s9)
    30e6:	d04ca683          	lw	a3,-764(s9)
    30ea:	d02a                	sw	a0,32(sp)
    30ec:	d22e                	sw	a1,36(sp)
    30ee:	856a                	mv	a0,s10
    30f0:	85ee                	mv	a1,s11
    30f2:	723060ef          	jal	ra,a014 <__muldf3>
    30f6:	5702                	lw	a4,32(sp)
    30f8:	5792                	lw	a5,36(sp)
    30fa:	86ae                	mv	a3,a1
    30fc:	862a                	mv	a2,a0
    30fe:	85be                	mv	a1,a5
    3100:	853a                	mv	a0,a4
    3102:	317050ef          	jal	ra,8c18 <__adddf3>
    3106:	56c080ef          	jal	ra,b672 <__truncdfsf2>
    310a:	ecaa                	fsw	fa0,88(sp)
    310c:	221000ef          	jal	ra,3b2c <filtered_tof>
    3110:	02cc2587          	flw	fa1,44(s8)
    3114:	eb4fe0ef          	jal	ra,17c8 <calculate_z_compensation>
    3118:	008c2787          	flw	fa5,8(s8)
    311c:	08f0                	addi	a2,sp,92
    311e:	08ac                	addi	a1,sp,88
    3120:	00a7f553          	fadd.s	fa0,fa5,fa0
    3124:	08c8                	addi	a0,sp,84
    3126:	eeaa                	fsw	fa0,92(sp)
    3128:	feefe0ef          	jal	ra,1916 <clamp_coordinates>
    312c:	6676                	flw	fa2,92(sp)
    312e:	65e6                	flw	fa1,88(sp)
    3130:	6556                	flw	fa0,84(sp)
    3132:	3da000ef          	jal	ra,350c <robot_arm_5dof_method2>
    3136:	8dc1a787          	flw	fa5,-1828(gp) # 2000015c <J1_global>
    313a:	0000c7b7          	lui	a5,0xc
    313e:	f907a507          	flw	fa0,-112(a5) # bf90 <strlen+0x4d8>
    3142:	4601                	li	a2,0
    3144:	09600593          	li	a1,150
    3148:	08f57553          	fsub.s	fa0,fa0,fa5
    314c:	4505                	li	a0,1
    314e:	070010ef          	jal	ra,41be <Control_Motor_new>
    3152:	8e01a507          	flw	fa0,-1824(gp) # 20000160 <J2_global>
    3156:	4509                	li	a0,2
    3158:	57a010ef          	jal	ra,46d2 <CAN_BLDC_POS_CONTROL>
    315c:	8e41a507          	flw	fa0,-1820(gp) # 20000164 <J3_global>
    3160:	450d                	li	a0,3
    3162:	570010ef          	jal	ra,46d2 <CAN_BLDC_POS_CONTROL>
    3166:	8981a507          	flw	fa0,-1896(gp) # 20000118 <cebai_angle>
    316a:	4511                	li	a0,4
    316c:	152010ef          	jal	ra,42be <Control_Motor>
    3170:	8e81a507          	flw	fa0,-1816(gp) # 20000168 <J4_global>
    3174:	4515                	li	a0,5
    3176:	148010ef          	jal	ra,42be <Control_Motor>
    317a:	89418893          	addi	a7,gp,-1900 # 20000114 <angle_idx.5884>
    317e:	0008c783          	lbu	a5,0(a7)
    3182:	0785                	addi	a5,a5,1
    3184:	8b9d                	andi	a5,a5,7
    3186:	00f88023          	sb	a5,0(a7)
    318a:	89c18813          	addi	a6,gp,-1892 # 2000011c <circle_move_flag>
    318e:	00080023          	sb	zero,0(a6)
    3192:	bced                	j	2c8c <rb_test08+0xc20>
    3194:	8b31c783          	lbu	a5,-1869(gp) # 20000133 <mode_ud>
    3198:	ae078ae3          	beqz	a5,2c8c <rb_test08+0xc20>
    319c:	8d018793          	addi	a5,gp,-1840 # 20000150 <ud_move_flag>
    31a0:	239c                	lbu	a5,0(a5)
    31a2:	8d018d93          	addi	s11,gp,-1840 # 20000150 <ud_move_flag>
    31a6:	0ff7f793          	andi	a5,a5,255
    31aa:	ae0781e3          	beqz	a5,2c8c <rb_test08+0xc20>
    31ae:	000dc783          	lbu	a5,0(s11)
    31b2:	0ff7f793          	andi	a5,a5,255
    31b6:	ac078be3          	beqz	a5,2c8c <rb_test08+0xc20>
    31ba:	000cc783          	lbu	a5,0(s9)
    31be:	0ff7f793          	andi	a5,a5,255
    31c2:	ac0795e3          	bnez	a5,2c8c <rb_test08+0xc20>
    31c6:	8d418c93          	addi	s9,gp,-1836 # 20000154 <ud_traj_step>
    31ca:	000ca783          	lw	a5,0(s9)
    31ce:	470d                	li	a4,3
    31d0:	02f707b3          	mul	a5,a4,a5
    31d4:	8cc18d13          	addi	s10,gp,-1844 # 2000014c <ud_interp_count>
    31d8:	000d2703          	lw	a4,0(s10)
    31dc:	97ba                	add	a5,a5,a4
    31de:	d007f553          	fcvt.s.w	fa0,a5
    31e2:	19b57553          	fdiv.s	fa0,fa0,fs11
    31e6:	81dfe0ef          	jal	ra,1a02 <smooth_s_curve>
    31ea:	03000593          	li	a1,48
    31ee:	02bc0c33          	mul	s8,s8,a1
    31f2:	0000c7b7          	lui	a5,0xc
    31f6:	c487a787          	flw	fa5,-952(a5) # bc48 <strlen+0x190>
    31fa:	0000c7b7          	lui	a5,0xc
    31fe:	cc07a707          	flw	fa4,-832(a5) # bcc0 <strlen+0x208>
    3202:	98018693          	addi	a3,gp,-1664 # 20000200 <points>
    3206:	70f577c3          	fmadd.s	fa5,fa0,fa5,fa4
    320a:	0000c7b7          	lui	a5,0xc
    320e:	cc47a707          	flw	fa4,-828(a5) # bcc4 <strlen+0x20c>
    3212:	9c36                	add	s8,s8,a3
    3214:	008c2507          	flw	fa0,8(s8)
    3218:	50e7f7c3          	fmadd.s	fa5,fa5,fa4,fa0
    321c:	f03e                	fsw	fa5,32(sp)
    321e:	10f000ef          	jal	ra,3b2c <filtered_tof>
    3222:	02cc2587          	flw	fa1,44(s8)
    3226:	da2fe0ef          	jal	ra,17c8 <calculate_z_compensation>
    322a:	7782                	flw	fa5,32(sp)
    322c:	08d0                	addi	a2,sp,84
    322e:	08ec                	addi	a1,sp,92
    3230:	00a7f553          	fadd.s	fa0,fa5,fa0
    3234:	000c2787          	flw	fa5,0(s8)
    3238:	08a8                	addi	a0,sp,88
    323a:	ecbe                	fsw	fa5,88(sp)
    323c:	004c2787          	flw	fa5,4(s8)
    3240:	eaaa                	fsw	fa0,84(sp)
    3242:	eebe                	fsw	fa5,92(sp)
    3244:	ed2fe0ef          	jal	ra,1916 <clamp_coordinates>
    3248:	6656                	flw	fa2,84(sp)
    324a:	65f6                	flw	fa1,92(sp)
    324c:	6566                	flw	fa0,88(sp)
    324e:	2c7d                	jal	350c <robot_arm_5dof_method2>
    3250:	8dc1a787          	flw	fa5,-1828(gp) # 2000015c <J1_global>
    3254:	0000c7b7          	lui	a5,0xc
    3258:	f907a507          	flw	fa0,-112(a5) # bf90 <strlen+0x4d8>
    325c:	0c800613          	li	a2,200
    3260:	7d000593          	li	a1,2000
    3264:	08f57553          	fsub.s	fa0,fa0,fa5
    3268:	4505                	li	a0,1
    326a:	755000ef          	jal	ra,41be <Control_Motor_new>
    326e:	8e01a507          	flw	fa0,-1824(gp) # 20000160 <J2_global>
    3272:	4509                	li	a0,2
    3274:	45e010ef          	jal	ra,46d2 <CAN_BLDC_POS_CONTROL>
    3278:	8e41a507          	flw	fa0,-1820(gp) # 20000164 <J3_global>
    327c:	450d                	li	a0,3
    327e:	454010ef          	jal	ra,46d2 <CAN_BLDC_POS_CONTROL>
    3282:	8e81a507          	flw	fa0,-1816(gp) # 20000168 <J4_global>
    3286:	05000613          	li	a2,80
    328a:	0c800593          	li	a1,200
    328e:	4515                	li	a0,5
    3290:	72f000ef          	jal	ra,41be <Control_Motor_new>
    3294:	000d2783          	lw	a5,0(s10)
    3298:	4709                	li	a4,2
    329a:	0785                	addi	a5,a5,1
    329c:	00f74563          	blt	a4,a5,32a6 <rb_test08+0x123a>
    32a0:	00fd2023          	sw	a5,0(s10)
    32a4:	bb81                	j	2ff4 <rb_test08+0xf88>
    32a6:	000ca783          	lw	a5,0(s9)
    32aa:	000d2023          	sw	zero,0(s10)
    32ae:	471d                	li	a4,7
    32b0:	0785                	addi	a5,a5,1
    32b2:	00f74563          	blt	a4,a5,32bc <rb_test08+0x1250>
    32b6:	00fca023          	sw	a5,0(s9)
    32ba:	bb2d                	j	2ff4 <rb_test08+0xf88>
    32bc:	000ca023          	sw	zero,0(s9)
    32c0:	bb15                	j	2ff4 <rb_test08+0xf88>
    32c2:	0000c7b7          	lui	a5,0xc
    32c6:	cd07a787          	flw	fa5,-816(a5) # bcd0 <strlen+0x218>
    32ca:	8c3e                	mv	s8,a5
    32cc:	a0fa9753          	flt.s	a4,fs5,fa5
    32d0:	c711                	beqz	a4,32dc <rb_test08+0x1270>
    32d2:	216b0553          	fmv.s	fa0,fs6
    32d6:	4519                	li	a0,6
    32d8:	7e7000ef          	jal	ra,42be <Control_Motor>
    32dc:	cd0c2787          	flw	fa5,-816(s8)
    32e0:	00fafad3          	fadd.s	fs5,fs5,fa5
    32e4:	b439                	j	2cf2 <rb_test08+0xc86>
    32e6:	f40d1263          	bnez	s10,2a2a <rb_test08+0x9be>
    32ea:	f52ff06f          	j	2a3c <rb_test08+0x9d0>
    32ee:	000c8463          	beqz	s9,32f6 <rb_test08+0x128a>
    32f2:	9fcff06f          	j	24ee <rb_test08+0x482>
    32f6:	832ff06f          	j	2328 <rb_test08+0x2bc>

000032fa <Delay_Init>:
    32fa:	200007b7          	lui	a5,0x20000
    32fe:	0807a783          	lw	a5,128(a5) # 20000080 <SystemCoreClock>
    3302:	007a1737          	lui	a4,0x7a1
    3306:	20070713          	addi	a4,a4,512 # 7a1200 <_data_lma+0x794668>
    330a:	02e7d7b3          	divu	a5,a5,a4
    330e:	0ff7f793          	andi	a5,a5,255
    3312:	8cf18d23          	sb	a5,-1830(gp) # 2000015a <p_us>
    3316:	3e800713          	li	a4,1000
    331a:	02e787b3          	mul	a5,a5,a4
    331e:	8cf19c23          	sh	a5,-1832(gp) # 20000158 <p_ms>
    3322:	8082                	ret

00003324 <Delay_Us>:
    3324:	e000f7b7          	lui	a5,0xe000f
    3328:	43d8                	lw	a4,4(a5)
    332a:	4681                	li	a3,0
    332c:	9b79                	andi	a4,a4,-2
    332e:	c3d8                	sw	a4,4(a5)
    3330:	8da1c703          	lbu	a4,-1830(gp) # 2000015a <p_us>
    3334:	02a70633          	mul	a2,a4,a0
    3338:	cb90                	sw	a2,16(a5)
    333a:	cbd4                	sw	a3,20(a5)
    333c:	4398                	lw	a4,0(a5)
    333e:	01076713          	ori	a4,a4,16
    3342:	c398                	sw	a4,0(a5)
    3344:	4398                	lw	a4,0(a5)
    3346:	02176713          	ori	a4,a4,33
    334a:	c398                	sw	a4,0(a5)
    334c:	43d8                	lw	a4,4(a5)
    334e:	8b05                	andi	a4,a4,1
    3350:	df75                	beqz	a4,334c <Delay_Us+0x28>
    3352:	4398                	lw	a4,0(a5)
    3354:	9b79                	andi	a4,a4,-2
    3356:	c398                	sw	a4,0(a5)
    3358:	8082                	ret

0000335a <Delay_Ms>:
    335a:	e000f7b7          	lui	a5,0xe000f
    335e:	43d8                	lw	a4,4(a5)
    3360:	4681                	li	a3,0
    3362:	9b79                	andi	a4,a4,-2
    3364:	c3d8                	sw	a4,4(a5)
    3366:	8d81d703          	lhu	a4,-1832(gp) # 20000158 <p_ms>
    336a:	02a70633          	mul	a2,a4,a0
    336e:	cb90                	sw	a2,16(a5)
    3370:	cbd4                	sw	a3,20(a5)
    3372:	4398                	lw	a4,0(a5)
    3374:	01076713          	ori	a4,a4,16
    3378:	c398                	sw	a4,0(a5)
    337a:	4398                	lw	a4,0(a5)
    337c:	02176713          	ori	a4,a4,33
    3380:	c398                	sw	a4,0(a5)
    3382:	43d8                	lw	a4,4(a5)
    3384:	8b05                	andi	a4,a4,1
    3386:	df75                	beqz	a4,3382 <Delay_Ms+0x28>
    3388:	4398                	lw	a4,0(a5)
    338a:	9b79                	andi	a4,a4,-2
    338c:	c398                	sw	a4,0(a5)
    338e:	8082                	ret

00003390 <USART_Printf_Init>:
    3390:	e61fc2ef          	jal	t0,1f0 <__riscv_save_0>
    3394:	1101                	addi	sp,sp,-32
    3396:	842a                	mv	s0,a0
    3398:	4585                	li	a1,1
    339a:	00020537          	lui	a0,0x20
    339e:	f97fd0ef          	jal	ra,1334 <RCC_APB1PeriphClockCmd>
    33a2:	4585                	li	a1,1
    33a4:	4511                	li	a0,4
    33a6:	f71fd0ef          	jal	ra,1316 <RCC_APB2PeriphClockCmd>
    33aa:	4791                	li	a5,4
    33ac:	827c                	sh	a5,4(sp)
    33ae:	40011537          	lui	a0,0x40011
    33b2:	478d                	li	a5,3
    33b4:	c43e                	sw	a5,8(sp)
    33b6:	004c                	addi	a1,sp,4
    33b8:	47e1                	li	a5,24
    33ba:	80050513          	addi	a0,a0,-2048 # 40010800 <_eusrstack+0x20008800>
    33be:	c63e                	sw	a5,12(sp)
    33c0:	b91fd0ef          	jal	ra,f50 <GPIO_Init>
    33c4:	c822                	sw	s0,16(sp)
    33c6:	40004437          	lui	s0,0x40004
    33ca:	000807b7          	lui	a5,0x80
    33ce:	080c                	addi	a1,sp,16
    33d0:	40040513          	addi	a0,s0,1024 # 40004400 <_eusrstack+0x1fffc400>
    33d4:	cc3e                	sw	a5,24(sp)
    33d6:	ca02                	sw	zero,20(sp)
    33d8:	00011e23          	sh	zero,28(sp)
    33dc:	8c2fe0ef          	jal	ra,149e <USART_Init>
    33e0:	4585                	li	a1,1
    33e2:	40040513          	addi	a0,s0,1024
    33e6:	946fe0ef          	jal	ra,152c <USART_Cmd>
    33ea:	6105                	addi	sp,sp,32
    33ec:	e29fc06f          	j	214 <__riscv_restore_0>

000033f0 <_write>:
    33f0:	de7fc2ef          	jal	t0,1d6 <__riscv_save_4>
    33f4:	400044b7          	lui	s1,0x40004
    33f8:	89ae                	mv	s3,a1
    33fa:	8932                	mv	s2,a2
    33fc:	4401                	li	s0,0
    33fe:	40048493          	addi	s1,s1,1024 # 40004400 <_eusrstack+0x1fffc400>
    3402:	01244563          	blt	s0,s2,340c <_write+0x1c>
    3406:	854a                	mv	a0,s2
    3408:	e03fc06f          	j	20a <__riscv_restore_4>
    340c:	04000593          	li	a1,64
    3410:	8526                	mv	a0,s1
    3412:	988fe0ef          	jal	ra,159a <USART_GetFlagStatus>
    3416:	d97d                	beqz	a0,340c <_write+0x1c>
    3418:	008987b3          	add	a5,s3,s0
    341c:	00078583          	lb	a1,0(a5) # 80000 <_data_lma+0x73468>
    3420:	8526                	mv	a0,s1
    3422:	0405                	addi	s0,s0,1
    3424:	05c2                	slli	a1,a1,0x10
    3426:	81c1                	srli	a1,a1,0x10
    3428:	962fe0ef          	jal	ra,158a <USART_SendData>
    342c:	bfd9                	j	3402 <_write+0x12>

0000342e <fast_sin_cos>:
    342e:	0000c7b7          	lui	a5,0xc
    3432:	0a47a787          	flw	fa5,164(a5) # c0a4 <strlen+0x5ec>
    3436:	0000c737          	lui	a4,0xc
    343a:	f8872707          	flw	fa4,-120(a4) # bf88 <strlen+0x4d0>
    343e:	10f577d3          	fmul.s	fa5,fa0,fa5
    3442:	c00797d3          	fcvt.w.s	a5,fa5,rtz
    3446:	d007f7d3          	fcvt.s.w	fa5,a5
    344a:	8b85                	andi	a5,a5,1
    344c:	50e7f54b          	fnmsub.s	fa0,fa5,fa4,fa0
    3450:	cb81                	beqz	a5,3460 <fast_sin_cos+0x32>
    3452:	f00007d3          	fmv.w.x	fa5,zero
    3456:	a0a797d3          	flt.s	a5,fa5,fa0
    345a:	c7d5                	beqz	a5,3506 <fast_sin_cos+0xd8>
    345c:	08e57553          	fsub.s	fa0,fa0,fa4
    3460:	10a577d3          	fmul.s	fa5,fa0,fa0
    3464:	0000c7b7          	lui	a5,0xc
    3468:	0a87a707          	flw	fa4,168(a5) # c0a8 <strlen+0x5f0>
    346c:	0000c7b7          	lui	a5,0xc
    3470:	0ac7a687          	flw	fa3,172(a5) # c0ac <strlen+0x5f4>
    3474:	0000c7b7          	lui	a5,0xc
    3478:	68e7f743          	fmadd.s	fa4,fa5,fa4,fa3
    347c:	0b07a687          	flw	fa3,176(a5) # c0b0 <strlen+0x5f8>
    3480:	0000c7b7          	lui	a5,0xc
    3484:	68e7f743          	fmadd.s	fa4,fa5,fa4,fa3
    3488:	0b47a687          	flw	fa3,180(a5) # c0b4 <strlen+0x5fc>
    348c:	0000c7b7          	lui	a5,0xc
    3490:	0b87a607          	flw	fa2,184(a5) # c0b8 <strlen+0x600>
    3494:	0000c7b7          	lui	a5,0xc
    3498:	68e7f743          	fmadd.s	fa4,fa5,fa4,fa3
    349c:	10a7f6d3          	fmul.s	fa3,fa5,fa0
    34a0:	60e7f743          	fmadd.s	fa4,fa5,fa4,fa2
    34a4:	0bc7a607          	flw	fa2,188(a5) # c0bc <strlen+0x604>
    34a8:	0000c7b7          	lui	a5,0xc
    34ac:	60e7f743          	fmadd.s	fa4,fa5,fa4,fa2
    34b0:	50e6f543          	fmadd.s	fa0,fa3,fa4,fa0
    34b4:	0c07a707          	flw	fa4,192(a5) # c0c0 <strlen+0x608>
    34b8:	0000c7b7          	lui	a5,0xc
    34bc:	0c47a687          	flw	fa3,196(a5) # c0c4 <strlen+0x60c>
    34c0:	0000c7b7          	lui	a5,0xc
    34c4:	e108                	fsw	fa0,0(a0)
    34c6:	68e7f743          	fmadd.s	fa4,fa5,fa4,fa3
    34ca:	0c87a687          	flw	fa3,200(a5) # c0c8 <strlen+0x610>
    34ce:	0000c7b7          	lui	a5,0xc
    34d2:	68e7f743          	fmadd.s	fa4,fa5,fa4,fa3
    34d6:	0cc7a687          	flw	fa3,204(a5) # c0cc <strlen+0x614>
    34da:	0000c7b7          	lui	a5,0xc
    34de:	68e7f743          	fmadd.s	fa4,fa5,fa4,fa3
    34e2:	0d07a687          	flw	fa3,208(a5) # c0d0 <strlen+0x618>
    34e6:	0000c7b7          	lui	a5,0xc
    34ea:	68e7f743          	fmadd.s	fa4,fa5,fa4,fa3
    34ee:	0d47a687          	flw	fa3,212(a5) # c0d4 <strlen+0x61c>
    34f2:	0000c7b7          	lui	a5,0xc
    34f6:	68e7f743          	fmadd.s	fa4,fa5,fa4,fa3
    34fa:	c4c7a687          	flw	fa3,-948(a5) # bc4c <strlen+0x194>
    34fe:	68e7f7c3          	fmadd.s	fa5,fa5,fa4,fa3
    3502:	e19c                	fsw	fa5,0(a1)
    3504:	8082                	ret
    3506:	00e57553          	fadd.s	fa0,fa0,fa4
    350a:	bf99                	j	3460 <fast_sin_cos+0x32>

0000350c <robot_arm_5dof_method2>:
    350c:	ccbfc2ef          	jal	t0,1d6 <__riscv_save_4>
    3510:	7119                	addi	sp,sp,-128
    3512:	8ea1a827          	fsw	fa0,-1808(gp) # 20000170 <X_IN>
    3516:	fea2                	fsw	fs0,124(sp)
    3518:	fca6                	fsw	fs1,120(sp)
    351a:	20b58453          	fmv.s	fs0,fa1
    351e:	20a504d3          	fmv.s	fs1,fa0
    3522:	8301a507          	flw	fa0,-2000(gp) # 200000b0 <P>
    3526:	8eb1aa27          	fsw	fa1,-1804(gp) # 20000174 <Y_IN>
    352a:	00a47553          	fadd.s	fa0,fs0,fa0
    352e:	209485d3          	fmv.s	fa1,fs1
    3532:	faca                	fsw	fs2,116(sp)
    3534:	8ec1ac27          	fsw	fa2,-1800(gp) # 20000178 <Z_IN>
    3538:	f8ce                	fsw	fs3,112(sp)
    353a:	f6d2                	fsw	fs4,108(sp)
    353c:	f4d6                	fsw	fs5,104(sp)
    353e:	f2da                	fsw	fs6,100(sp)
    3540:	f0de                	fsw	fs7,96(sp)
    3542:	eee2                	fsw	fs8,92(sp)
    3544:	ece6                	fsw	fs9,88(sp)
    3546:	eaea                	fsw	fs10,84(sp)
    3548:	e8ee                	fsw	fs11,80(sp)
    354a:	20c60953          	fmv.s	fs2,fa2
    354e:	0000c437          	lui	s0,0xc
    3552:	00c020ef          	jal	ra,555e <atan2f>
    3556:	f8842787          	flw	fa5,-120(s0) # bf88 <strlen+0x4d0>
    355a:	83018493          	addi	s1,gp,-2000 # 200000b0 <P>
    355e:	a0a797d3          	flt.s	a5,fa5,fa0
    3562:	eb81                	bnez	a5,3572 <robot_arm_5dof_method2+0x66>
    3564:	f00007d3          	fmv.w.x	fa5,zero
    3568:	20a50dd3          	fmv.s	fs11,fa0
    356c:	a0f517d3          	flt.s	a5,fa0,fa5
    3570:	c399                	beqz	a5,3576 <robot_arm_5dof_method2+0x6a>
    3572:	20f78dd3          	fmv.s	fs11,fa5
    3576:	6088                	flw	fa0,0(s1)
    3578:	108477d3          	fmul.s	fa5,fs0,fs0
    357c:	00a4f553          	fadd.s	fa0,fs1,fa0
    3580:	82c1ab07          	flw	fs6,-2004(gp) # 200000ac <A5>
    3584:	f0000ad3          	fmv.w.x	fs5,zero
    3588:	4481                	li	s1,0
    358a:	01697b53          	fadd.s	fs6,fs2,fs6
    358e:	78a57543          	fmadd.s	fa0,fa0,fa0,fa5
    3592:	215a8a53          	fmv.s	fs4,fs5
    3596:	215a89d3          	fmv.s	fs3,fs5
    359a:	82c18913          	addi	s2,gp,-2004 # 200000ac <A5>
    359e:	7c3010ef          	jal	ra,5560 <sqrtf>
    35a2:	0000c537          	lui	a0,0xc
    35a6:	0f050513          	addi	a0,a0,240 # c0f0 <strlen+0x638>
    35aa:	e0050b53          	fmv.x.w	s6,fa0
    35ae:	705040ef          	jal	ra,84b2 <puts>
    35b2:	21290553          	fmv.s	fa0,fs2
    35b6:	215a8953          	fmv.s	fs2,fs5
    35ba:	7d1070ef          	jal	ra,b58a <__extendsfdf2>
    35be:	20840553          	fmv.s	fa0,fs0
    35c2:	d02a                	sw	a0,32(sp)
    35c4:	d22e                	sw	a1,36(sp)
    35c6:	7c5070ef          	jal	ra,b58a <__extendsfdf2>
    35ca:	20948553          	fmv.s	fa0,fs1
    35ce:	cc2a                	sw	a0,24(sp)
    35d0:	ce2e                	sw	a1,28(sp)
    35d2:	7b9070ef          	jal	ra,b58a <__extendsfdf2>
    35d6:	47f2                	lw	a5,28(sp)
    35d8:	5802                	lw	a6,32(sp)
    35da:	5892                	lw	a7,36(sp)
    35dc:	4762                	lw	a4,24(sp)
    35de:	862a                	mv	a2,a0
    35e0:	0000c537          	lui	a0,0xc
    35e4:	86ae                	mv	a3,a1
    35e6:	11850513          	addi	a0,a0,280 # c118 <strlen+0x660>
    35ea:	67b040ef          	jal	ra,8464 <printf>
    35ee:	0000c7b7          	lui	a5,0xc
    35f2:	0dc7ac07          	flw	fs8,220(a5) # c0dc <strlen+0x624>
    35f6:	0000c7b7          	lui	a5,0xc
    35fa:	0e07a407          	flw	fs0,224(a5) # c0e0 <strlen+0x628>
    35fe:	215a84d3          	fmv.s	fs1,fs5
    3602:	f0000d53          	fmv.w.x	fs10,zero
    3606:	f8842c87          	flw	fs9,-120(s0)
    360a:	f0000bd3          	fmv.w.x	fs7,zero
    360e:	218c0553          	fmv.s	fa0,fs8
    3612:	182c                	addi	a1,sp,56
    3614:	00c8                	addi	a0,sp,68
    3616:	e19ff0ef          	jal	ra,342e <fast_sin_cos>
    361a:	01ac77d3          	fadd.s	fa5,fs8,fs10
    361e:	186c                	addi	a1,sp,60
    3620:	00a8                	addi	a0,sp,72
    3622:	20f78553          	fmv.s	fa0,fa5
    3626:	ec3e                	fsw	fa5,24(sp)
    3628:	e07ff0ef          	jal	ra,342e <fast_sin_cos>
    362c:	67e2                	flw	fa5,24(sp)
    362e:	008c                	addi	a1,sp,64
    3630:	00e8                	addi	a0,sp,76
    3632:	0177f7d3          	fadd.s	fa5,fa5,fs7
    3636:	20f78553          	fmv.s	fa0,fa5
    363a:	ec3e                	fsw	fa5,24(sp)
    363c:	df3ff0ef          	jal	ra,342e <fast_sin_cos>
    3640:	0000c7b7          	lui	a5,0xc
    3644:	67e2                	flw	fa5,24(sp)
    3646:	f887a587          	flw	fa1,-120(a5) # bf88 <strlen+0x4d0>
    364a:	0000c737          	lui	a4,0xc
    364e:	0e472007          	flw	ft0,228(a4) # c0e4 <strlen+0x62c>
    3652:	08f5f553          	fsub.s	fa0,fa1,fa5
    3656:	f00007d3          	fmv.w.x	fa5,zero
    365a:	0000c737          	lui	a4,0xc
    365e:	0d872607          	flw	fa2,216(a4) # c0d8 <strlen+0x620>
    3662:	0000c737          	lui	a4,0xc
    3666:	a0f517d3          	flt.s	a5,fa0,fa5
    366a:	0e872087          	flw	ft1,232(a4) # c0e8 <strlen+0x630>
    366e:	1e079963          	bnez	a5,3860 <robot_arm_5dof_method2+0x354>
    3672:	a0a617d3          	flt.s	a5,fa2,fa0
    3676:	c399                	beqz	a5,367c <robot_arm_5dof_method2+0x170>
    3678:	20c60553          	fmv.s	fa0,fa2
    367c:	83c1a107          	flw	ft2,-1988(gp) # 200000bc <tolerance>
    3680:	81c1a287          	flw	ft5,-2020(gp) # 2000009c <A1>
    3684:	77e2                	flw	fa5,56(sp)
    3686:	8201a207          	flw	ft4,-2016(gp) # 200000a0 <A2>
    368a:	8241a187          	flw	ft3,-2012(gp) # 200000a4 <A3>
    368e:	8281a707          	flw	fa4,-2008(gp) # 200000a8 <A4>
    3692:	28f272c3          	fmadd.s	ft5,ft4,fa5,ft5
    3696:	77f2                	flw	fa5,60(sp)
    3698:	28f1f2c3          	fmadd.s	ft5,ft3,fa5,ft5
    369c:	6786                	flw	fa5,64(sp)
    369e:	28f777c3          	fmadd.s	fa5,fa4,fa5,ft5
    36a2:	00092287          	flw	ft5,0(s2)
    36a6:	0857f7d3          	fsub.s	fa5,fa5,ft5
    36aa:	0967f7d3          	fsub.s	fa5,fa5,fs6
    36ae:	20f7a7d3          	fabs.s	fa5,fa5
    36b2:	a02797d3          	flt.s	a5,fa5,ft2
    36b6:	cbad                	beqz	a5,3728 <robot_arm_5dof_method2+0x21c>
    36b8:	6796                	flw	fa5,68(sp)
    36ba:	10f27253          	fmul.s	ft4,ft4,fa5
    36be:	67a6                	flw	fa5,72(sp)
    36c0:	20f1f1c3          	fmadd.s	ft3,ft3,fa5,ft4
    36c4:	67b6                	flw	fa5,76(sp)
    36c6:	18f77743          	fmadd.s	fa4,fa4,fa5,ft3
    36ca:	f00b07d3          	fmv.w.x	fa5,s6
    36ce:	08e7f753          	fsub.s	fa4,fa5,fa4
    36d2:	20e72753          	fabs.s	fa4,fa4
    36d6:	a02717d3          	flt.s	a5,fa4,ft2
    36da:	c7b9                	beqz	a5,3728 <robot_arm_5dof_method2+0x21c>
    36dc:	8381c783          	lbu	a5,-1992(gp) # 200000b8 <first_run.5676>
    36e0:	0485                	addi	s1,s1,1
    36e2:	18078263          	beqz	a5,3866 <robot_arm_5dof_method2+0x35a>
    36e6:	218c2753          	fabs.s	fa4,fs8
    36ea:	21bda7d3          	fabs.s	fa5,fs11
    36ee:	00e7f7d3          	fadd.s	fa5,fa5,fa4
    36f2:	21ad2753          	fabs.s	fa4,fs10
    36f6:	00e7f7d3          	fadd.s	fa5,fa5,fa4
    36fa:	217ba753          	fabs.s	fa4,fs7
    36fe:	00e7f7d3          	fadd.s	fa5,fa5,fa4
    3702:	20a52753          	fabs.s	fa4,fa0
    3706:	00e7f7d3          	fadd.s	fa5,fa5,fa4
    370a:	a08797d3          	flt.s	a5,fa5,fs0
    370e:	cf89                	beqz	a5,3728 <robot_arm_5dof_method2+0x21c>
    3710:	20f78453          	fmv.s	fs0,fa5
    3714:	20a50ad3          	fmv.s	fs5,fa0
    3718:	217b8a53          	fmv.s	fs4,fs7
    371c:	21ad09d3          	fmv.s	fs3,fs10
    3720:	218c0953          	fmv.s	fs2,fs8
    3724:	21bd84d3          	fmv.s	fs1,fs11
    3728:	8341a787          	flw	fa5,-1996(gp) # 200000b4 <bu_chang>
    372c:	00fbfbd3          	fadd.s	fs7,fs7,fa5
    3730:	a00b97d3          	flt.s	a5,fs7,ft0
    3734:	ec079de3          	bnez	a5,360e <robot_arm_5dof_method2+0x102>
    3738:	00fd7d53          	fadd.s	fs10,fs10,fa5
    373c:	a19d17d3          	flt.s	a5,fs10,fs9
    3740:	ec0795e3          	bnez	a5,360a <robot_arm_5dof_method2+0xfe>
    3744:	00fc7c53          	fadd.s	fs8,fs8,fa5
    3748:	a01c17d3          	flt.s	a5,fs8,ft1
    374c:	ea079be3          	bnez	a5,3602 <robot_arm_5dof_method2+0xf6>
    3750:	0000c537          	lui	a0,0xc
    3754:	13c50513          	addi	a0,a0,316 # c13c <strlen+0x684>
    3758:	55b040ef          	jal	ra,84b2 <puts>
    375c:	14048a63          	beqz	s1,38b0 <robot_arm_5dof_method2+0x3a4>
    3760:	0000c537          	lui	a0,0xc
    3764:	85a6                	mv	a1,s1
    3766:	14850513          	addi	a0,a0,328 # c148 <strlen+0x690>
    376a:	4fb040ef          	jal	ra,8464 <printf>
    376e:	0000c7b7          	lui	a5,0xc
    3772:	cb87ab07          	flw	fs6,-840(a5) # bcb8 <strlen+0x200>
    3776:	11647553          	fmul.s	fa0,fs0,fs6
    377a:	19957553          	fdiv.s	fa0,fa0,fs9
    377e:	60d070ef          	jal	ra,b58a <__extendsfdf2>
    3782:	862a                	mv	a2,a0
    3784:	0000c537          	lui	a0,0xc
    3788:	86ae                	mv	a3,a1
    378a:	16450513          	addi	a0,a0,356 # c164 <strlen+0x6ac>
    378e:	4d7040ef          	jal	ra,8464 <printf>
    3792:	1164fbd3          	fmul.s	fs7,fs1,fs6
    3796:	11697c53          	fmul.s	fs8,fs2,fs6
    379a:	1169f553          	fmul.s	fa0,fs3,fs6
    379e:	116a7453          	fmul.s	fs0,fs4,fs6
    37a2:	116afb53          	fmul.s	fs6,fs5,fs6
    37a6:	199bfbd3          	fdiv.s	fs7,fs7,fs9
    37aa:	199c7c53          	fdiv.s	fs8,fs8,fs9
    37ae:	8d71ae27          	fsw	fs7,-1828(gp) # 2000015c <J1_global>
    37b2:	19957553          	fdiv.s	fa0,fa0,fs9
    37b6:	8f81a027          	fsw	fs8,-1824(gp) # 20000160 <J2_global>
    37ba:	19947453          	fdiv.s	fs0,fs0,fs9
    37be:	8ea1a227          	fsw	fa0,-1820(gp) # 20000164 <J3_global>
    37c2:	199b7b53          	fdiv.s	fs6,fs6,fs9
    37c6:	8e81a427          	fsw	fs0,-1816(gp) # 20000168 <J4_global>
    37ca:	0000c7b7          	lui	a5,0xc
    37ce:	0ec7a787          	flw	fa5,236(a5) # c0ec <strlen+0x634>
    37d2:	08fb7b53          	fsub.s	fs6,fs6,fa5
    37d6:	8f61a627          	fsw	fs6,-1812(gp) # 2000016c <J5_global>
    37da:	8e91ae27          	fsw	fs1,-1796(gp) # 2000017c <prev_J1.5671>
    37de:	9121a027          	fsw	fs2,-1792(gp) # 20000180 <prev_J2.5672>
    37e2:	9131a227          	fsw	fs3,-1788(gp) # 20000184 <prev_J3.5673>
    37e6:	9141a427          	fsw	fs4,-1784(gp) # 20000188 <prev_J4.5674>
    37ea:	9151a627          	fsw	fs5,-1780(gp) # 2000018c <prev_J5.5675>
    37ee:	82018c23          	sb	zero,-1992(gp) # 200000b8 <first_run.5676>
    37f2:	599070ef          	jal	ra,b58a <__extendsfdf2>
    37f6:	218c0553          	fmv.s	fa0,fs8
    37fa:	d42a                	sw	a0,40(sp)
    37fc:	d62e                	sw	a1,44(sp)
    37fe:	58d070ef          	jal	ra,b58a <__extendsfdf2>
    3802:	217b8553          	fmv.s	fa0,fs7
    3806:	d02a                	sw	a0,32(sp)
    3808:	d22e                	sw	a1,36(sp)
    380a:	581070ef          	jal	ra,b58a <__extendsfdf2>
    380e:	216b0553          	fmv.s	fa0,fs6
    3812:	cc2a                	sw	a0,24(sp)
    3814:	ce2e                	sw	a1,28(sp)
    3816:	575070ef          	jal	ra,b58a <__extendsfdf2>
    381a:	20840553          	fmv.s	fa0,fs0
    381e:	c42a                	sw	a0,8(sp)
    3820:	c62e                	sw	a1,12(sp)
    3822:	569070ef          	jal	ra,b58a <__extendsfdf2>
    3826:	5822                	lw	a6,40(sp)
    3828:	58b2                	lw	a7,44(sp)
    382a:	5702                	lw	a4,32(sp)
    382c:	5792                	lw	a5,36(sp)
    382e:	4662                	lw	a2,24(sp)
    3830:	46f2                	lw	a3,28(sp)
    3832:	c02a                	sw	a0,0(sp)
    3834:	0000c537          	lui	a0,0xc
    3838:	c22e                	sw	a1,4(sp)
    383a:	18050513          	addi	a0,a0,384 # c180 <strlen+0x6c8>
    383e:	427040ef          	jal	ra,8464 <printf>
    3842:	7476                	flw	fs0,124(sp)
    3844:	74e6                	flw	fs1,120(sp)
    3846:	7956                	flw	fs2,116(sp)
    3848:	79c6                	flw	fs3,112(sp)
    384a:	7a36                	flw	fs4,108(sp)
    384c:	7aa6                	flw	fs5,104(sp)
    384e:	7b16                	flw	fs6,100(sp)
    3850:	7b86                	flw	fs7,96(sp)
    3852:	6c76                	flw	fs8,92(sp)
    3854:	6ce6                	flw	fs9,88(sp)
    3856:	6d56                	flw	fs10,84(sp)
    3858:	6dc6                	flw	fs11,80(sp)
    385a:	6109                	addi	sp,sp,128
    385c:	9affc06f          	j	20a <__riscv_restore_4>
    3860:	f0000553          	fmv.w.x	fa0,zero
    3864:	bd21                	j	367c <robot_arm_5dof_method2+0x170>
    3866:	8fc1a787          	flw	fa5,-1796(gp) # 2000017c <prev_J1.5671>
    386a:	9001a707          	flw	fa4,-1792(gp) # 20000180 <prev_J2.5672>
    386e:	08fdf7d3          	fsub.s	fa5,fs11,fa5
    3872:	08ec7753          	fsub.s	fa4,fs8,fa4
    3876:	20f7a7d3          	fabs.s	fa5,fa5
    387a:	20e72753          	fabs.s	fa4,fa4
    387e:	00e7f7d3          	fadd.s	fa5,fa5,fa4
    3882:	9041a707          	flw	fa4,-1788(gp) # 20000184 <prev_J3.5673>
    3886:	08ed7753          	fsub.s	fa4,fs10,fa4
    388a:	20e72753          	fabs.s	fa4,fa4
    388e:	00e7f7d3          	fadd.s	fa5,fa5,fa4
    3892:	9081a707          	flw	fa4,-1784(gp) # 20000188 <prev_J4.5674>
    3896:	08ebf753          	fsub.s	fa4,fs7,fa4
    389a:	20e72753          	fabs.s	fa4,fa4
    389e:	00e7f7d3          	fadd.s	fa5,fa5,fa4
    38a2:	90c1a707          	flw	fa4,-1780(gp) # 2000018c <prev_J5.5675>
    38a6:	08e57753          	fsub.s	fa4,fa0,fa4
    38aa:	20e72753          	fabs.s	fa4,fa4
    38ae:	bda1                	j	3706 <robot_arm_5dof_method2+0x1fa>
    38b0:	0000c537          	lui	a0,0xc
    38b4:	1c050513          	addi	a0,a0,448 # c1c0 <strlen+0x708>
    38b8:	3fb040ef          	jal	ra,84b2 <puts>
    38bc:	b759                	j	3842 <robot_arm_5dof_method2+0x336>

000038be <parse_wt_protocol>:
    38be:	02100793          	li	a5,33
    38c2:	0af59e63          	bne	a1,a5,397e <parse_wt_protocol+0xc0>
    38c6:	87aa                	mv	a5,a0
    38c8:	4601                	li	a2,0
    38ca:	05500693          	li	a3,85
    38ce:	05300593          	li	a1,83
    38d2:	02100713          	li	a4,33
    38d6:	0007c803          	lbu	a6,0(a5)
    38da:	08d81c63          	bne	a6,a3,3972 <parse_wt_protocol+0xb4>
    38de:	0017c803          	lbu	a6,1(a5)
    38e2:	08b81863          	bne	a6,a1,3972 <parse_wt_protocol+0xb4>
    38e6:	4681                	li	a3,0
    38e8:	4701                	li	a4,0
    38ea:	45a9                	li	a1,10
    38ec:	00d78833          	add	a6,a5,a3
    38f0:	00084803          	lbu	a6,0(a6)
    38f4:	0685                	addi	a3,a3,1
    38f6:	9742                	add	a4,a4,a6
    38f8:	0ff77713          	andi	a4,a4,255
    38fc:	feb698e3          	bne	a3,a1,38ec <parse_wt_protocol+0x2e>
    3900:	962a                	add	a2,a2,a0
    3902:	263c                	lbu	a5,10(a2)
    3904:	450d                	li	a0,3
    3906:	06e79d63          	bne	a5,a4,3980 <parse_wt_protocol+0xc2>
    390a:	3258                	lbu	a4,5(a2)
    390c:	225c                	lbu	a5,4(a2)
    390e:	2274                	lbu	a3,6(a2)
    3910:	0722                	slli	a4,a4,0x8
    3912:	8f5d                	or	a4,a4,a5
    3914:	327c                	lbu	a5,7(a2)
    3916:	0742                	slli	a4,a4,0x10
    3918:	8741                	srai	a4,a4,0x10
    391a:	07a2                	slli	a5,a5,0x8
    391c:	8fd5                	or	a5,a5,a3
    391e:	3234                	lbu	a3,3(a2)
    3920:	2230                	lbu	a2,2(a2)
    3922:	07c2                	slli	a5,a5,0x10
    3924:	06a2                	slli	a3,a3,0x8
    3926:	8ed1                	or	a3,a3,a2
    3928:	06c2                	slli	a3,a3,0x10
    392a:	86c1                	srai	a3,a3,0x10
    392c:	d006f753          	fcvt.s.w	fa4,a3
    3930:	0000c6b7          	lui	a3,0xc
    3934:	1d46a607          	flw	fa2,468(a3) # c1d4 <strlen+0x71c>
    3938:	0000c6b7          	lui	a3,0xc
    393c:	cb86a687          	flw	fa3,-840(a3) # bcb8 <strlen+0x200>
    3940:	10c77753          	fmul.s	fa4,fa4,fa2
    3944:	87c1                	srai	a5,a5,0x10
    3946:	d007f7d3          	fcvt.s.w	fa5,a5
    394a:	10d77753          	fmul.s	fa4,fa4,fa3
    394e:	10c7f7d3          	fmul.s	fa5,fa5,fa2
    3952:	4501                	li	a0,0
    3954:	90e1aa27          	fsw	fa4,-1772(gp) # 20000194 <Roll_angle>
    3958:	d0077753          	fcvt.s.w	fa4,a4
    395c:	10d7f7d3          	fmul.s	fa5,fa5,fa3
    3960:	10c77753          	fmul.s	fa4,fa4,fa2
    3964:	90f1ac27          	fsw	fa5,-1768(gp) # 20000198 <Yaw_angle>
    3968:	10d77753          	fmul.s	fa4,fa4,fa3
    396c:	90e1a827          	fsw	fa4,-1776(gp) # 20000190 <Pitch_angle>
    3970:	8082                	ret
    3972:	062d                	addi	a2,a2,11
    3974:	07ad                	addi	a5,a5,11
    3976:	f6e610e3          	bne	a2,a4,38d6 <parse_wt_protocol+0x18>
    397a:	4509                	li	a0,2
    397c:	8082                	ret
    397e:	4505                	li	a0,1
    3980:	8082                	ret

00003982 <get_angle>:
    3982:	855fc2ef          	jal	t0,1d6 <__riscv_save_4>
    3986:	c6018793          	addi	a5,gp,-928 # 200004e0 <ring_buffer>
    398a:	4047d783          	lhu	a5,1028(a5)
    398e:	07c2                	slli	a5,a5,0x10
    3990:	83c1                	srli	a5,a5,0x10
    3992:	cf8d                	beqz	a5,39cc <get_angle+0x4a>
    3994:	c6018493          	addi	s1,gp,-928 # 200004e0 <ring_buffer>
    3998:	4044d703          	lhu	a4,1028(s1)
    399c:	0742                	slli	a4,a4,0x10
    399e:	8341                	srli	a4,a4,0x10
    39a0:	90018e23          	sb	zero,-1764(gp) # 2000019c <count.5680>
    39a4:	96e19623          	sh	a4,-1684(gp) # 200001ec <g_rx_data_len>
    39a8:	893e                	mv	s2,a5
    39aa:	91c18413          	addi	s0,gp,-1764 # 2000019c <count.5680>
    39ae:	be018a93          	addi	s5,gp,-1056 # 20000460 <g_rx_data_buffer>
    39b2:	4044d783          	lhu	a5,1028(s1)
    39b6:	07c2                	slli	a5,a5,0x10
    39b8:	83c1                	srli	a5,a5,0x10
    39ba:	eb99                	bnez	a5,39d0 <get_angle+0x4e>
    39bc:	96c1d583          	lhu	a1,-1684(gp) # 200001ec <g_rx_data_len>
    39c0:	be018513          	addi	a0,gp,-1056 # 20000460 <g_rx_data_buffer>
    39c4:	0ff5f593          	andi	a1,a1,255
    39c8:	ef7ff0ef          	jal	ra,38be <parse_wt_protocol>
    39cc:	83ffc06f          	j	20a <__riscv_restore_4>
    39d0:	00044983          	lbu	s3,0(s0)
    39d4:	19e010ef          	jal	ra,4b72 <ring_buffer_pop>
    39d8:	201c                	lbu	a5,0(s0)
    39da:	99d6                	add	s3,s3,s5
    39dc:	00a98023          	sb	a0,0(s3)
    39e0:	0785                	addi	a5,a5,1
    39e2:	a01c                	sb	a5,0(s0)
    39e4:	b7f9                	j	39b2 <get_angle+0x30>

000039e6 <crc16_modbus>:
    39e6:	c921                	beqz	a0,3a36 <crc16_modbus+0x50>
    39e8:	c195                	beqz	a1,3a0c <crc16_modbus+0x26>
    39ea:	67c1                	lui	a5,0x10
    39ec:	7669                	lui	a2,0xffffa
    39ee:	4681                	li	a3,0
    39f0:	17fd                	addi	a5,a5,-1
    39f2:	0605                	addi	a2,a2,1
    39f4:	01069713          	slli	a4,a3,0x10
    39f8:	8341                	srli	a4,a4,0x10
    39fa:	00b76b63          	bltu	a4,a1,3a10 <crc16_modbus+0x2a>
    39fe:	00879593          	slli	a1,a5,0x8
    3a02:	83a1                	srli	a5,a5,0x8
    3a04:	8fcd                	or	a5,a5,a1
    3a06:	01079593          	slli	a1,a5,0x10
    3a0a:	81c1                	srli	a1,a1,0x10
    3a0c:	852e                	mv	a0,a1
    3a0e:	8082                	ret
    3a10:	00d50733          	add	a4,a0,a3
    3a14:	2318                	lbu	a4,0(a4)
    3a16:	8fb9                	xor	a5,a5,a4
    3a18:	4721                	li	a4,8
    3a1a:	0017f813          	andi	a6,a5,1
    3a1e:	8385                	srli	a5,a5,0x1
    3a20:	00080563          	beqz	a6,3a2a <crc16_modbus+0x44>
    3a24:	8fb1                	xor	a5,a5,a2
    3a26:	07c2                	slli	a5,a5,0x10
    3a28:	83c1                	srli	a5,a5,0x10
    3a2a:	177d                	addi	a4,a4,-1
    3a2c:	0ff77713          	andi	a4,a4,255
    3a30:	f76d                	bnez	a4,3a1a <crc16_modbus+0x34>
    3a32:	0685                	addi	a3,a3,1
    3a34:	b7c1                	j	39f4 <crc16_modbus+0xe>
    3a36:	4581                	li	a1,0
    3a38:	bfd1                	j	3a0c <crc16_modbus+0x26>

00003a3a <verify_crc16_modbus>:
    3a3a:	cd1d                	beqz	a0,3a78 <verify_crc16_modbus+0x3e>
    3a3c:	4685                	li	a3,1
    3a3e:	4781                	li	a5,0
    3a40:	02b6fd63          	bgeu	a3,a1,3a7a <verify_crc16_modbus+0x40>
    3a44:	facfc2ef          	jal	t0,1f0 <__riscv_save_0>
    3a48:	ffe58913          	addi	s2,a1,-2
    3a4c:	84ae                	mv	s1,a1
    3a4e:	01091593          	slli	a1,s2,0x10
    3a52:	842a                	mv	s0,a0
    3a54:	81c1                	srli	a1,a1,0x10
    3a56:	f91ff0ef          	jal	ra,39e6 <crc16_modbus>
    3a5a:	9922                	add	s2,s2,s0
    3a5c:	00094783          	lbu	a5,0(s2)
    3a60:	00940733          	add	a4,s0,s1
    3a64:	fff74703          	lbu	a4,-1(a4)
    3a68:	07a2                	slli	a5,a5,0x8
    3a6a:	8fd9                	or	a5,a5,a4
    3a6c:	8f89                	sub	a5,a5,a0
    3a6e:	0017b793          	seqz	a5,a5
    3a72:	853e                	mv	a0,a5
    3a74:	fa0fc06f          	j	214 <__riscv_restore_0>
    3a78:	4781                	li	a5,0
    3a7a:	853e                	mv	a0,a5
    3a7c:	8082                	ret

00003a7e <new_tof>:
    3a7e:	f4afc2ef          	jal	t0,1c8 <__riscv_save_10>
    3a82:	9601a683          	lw	a3,-1696(gp) # 200001e0 <frame_ready>
    3a86:	1141                	addi	sp,sp,-16
    3a88:	c402                	sw	zero,8(sp)
    3a8a:	00011623          	sh	zero,12(sp)
    3a8e:	4705                	li	a4,1
    3a90:	08e69263          	bne	a3,a4,3b14 <new_tof+0x96>
    3a94:	8c3e                	mv	s8,a5
    3a96:	4401                	li	s0,0
    3a98:	4481                	li	s1,0
    3a9a:	aa018b13          	addi	s6,gp,-1376 # 20000320 <rx_buffer_uart2>
    3a9e:	4c85                	li	s9,1
    3aa0:	8baa                	mv	s7,a0
    3aa2:	4a0d                	li	s4,3
    3aa4:	4a89                	li	s5,2
    3aa6:	49bd                	li	s3,15
    3aa8:	01640533          	add	a0,s0,s6
    3aac:	211c                	lbu	a5,0(a0)
    3aae:	00140913          	addi	s2,s0,1
    3ab2:	04fc9363          	bne	s9,a5,3af8 <new_tof+0x7a>
    3ab6:	016907b3          	add	a5,s2,s6
    3aba:	239c                	lbu	a5,0(a5)
    3abc:	02fa1e63          	bne	s4,a5,3af8 <new_tof+0x7a>
    3ac0:	00240793          	addi	a5,s0,2
    3ac4:	97da                	add	a5,a5,s6
    3ac6:	239c                	lbu	a5,0(a5)
    3ac8:	02fa9863          	bne	s5,a5,3af8 <new_tof+0x7a>
    3acc:	459d                	li	a1,7
    3ace:	f6dff0ef          	jal	ra,3a3a <verify_crc16_modbus>
    3ad2:	c105                	beqz	a0,3af2 <new_tof+0x74>
    3ad4:	00340793          	addi	a5,s0,3
    3ad8:	97da                	add	a5,a5,s6
    3ada:	0411                	addi	s0,s0,4
    3adc:	239c                	lbu	a5,0(a5)
    3ade:	945a                	add	s0,s0,s6
    3ae0:	2014                	lbu	a3,0(s0)
    3ae2:	00149713          	slli	a4,s1,0x1
    3ae6:	0810                	addi	a2,sp,16
    3ae8:	07a2                	slli	a5,a5,0x8
    3aea:	9732                	add	a4,a4,a2
    3aec:	97b6                	add	a5,a5,a3
    3aee:	fef71c23          	sh	a5,-8(a4)
    3af2:	0485                	addi	s1,s1,1
    3af4:	0ff4f493          	andi	s1,s1,255
    3af8:	844a                	mv	s0,s2
    3afa:	fb3917e3          	bne	s2,s3,3aa8 <new_tof+0x2a>
    3afe:	9601a423          	sw	zero,-1688(gp) # 200001e8 <rx_len_uart2>
    3b02:	03c00613          	li	a2,60
    3b06:	4581                	li	a1,0
    3b08:	aa018513          	addi	a0,gp,-1376 # 20000320 <rx_buffer_uart2>
    3b0c:	9601a023          	sw	zero,-1696(gp) # 200001e0 <frame_ready>
    3b10:	f10fc0ef          	jal	ra,220 <memset>
    3b14:	843c                	lhu	a5,8(sp)
    3b16:	d017f7d3          	fcvt.s.wu	fa5,a5
    3b1a:	0000c7b7          	lui	a5,0xc
    3b1e:	c3c7a507          	flw	fa0,-964(a5) # bc3c <strlen+0x184>
    3b22:	0141                	addi	sp,sp,16
    3b24:	18a7f553          	fdiv.s	fa0,fa5,fa0
    3b28:	ed8fc06f          	j	200 <__riscv_restore_10>

00003b2c <filtered_tof>:
    3b2c:	ec4fc2ef          	jal	t0,1f0 <__riscv_save_0>
    3b30:	f4fff0ef          	jal	ra,3a7e <new_tof>
    3b34:	f00007d3          	fmv.w.x	fa5,zero
    3b38:	92018693          	addi	a3,gp,-1760 # 200001a0 <last_valid_value>
    3b3c:	a0f507d3          	fle.s	a5,fa0,fa5
    3b40:	eb81                	bnez	a5,3b50 <filtered_tof+0x24>
    3b42:	0000c7b7          	lui	a5,0xc
    3b46:	c447a787          	flw	fa5,-956(a5) # bc44 <strlen+0x18c>
    3b4a:	a0a797d3          	flt.s	a5,fa5,fa0
    3b4e:	c781                	beqz	a5,3b56 <filtered_tof+0x2a>
    3b50:	6288                	flw	fa0,0(a3)
    3b52:	ec2fc06f          	j	214 <__riscv_restore_0>
    3b56:	91e18793          	addi	a5,gp,-1762 # 2000019e <init_count>
    3b5a:	2398                	lbu	a4,0(a5)
    3b5c:	460d                	li	a2,3
    3b5e:	04e66663          	bltu	a2,a4,3baa <filtered_tof+0x7e>
    3b62:	0705                	addi	a4,a4,1
    3b64:	a398                	sb	a4,0(a5)
    3b66:	91d18613          	addi	a2,gp,-1763 # 2000019d <buffer_index>
    3b6a:	2218                	lbu	a4,0(a2)
    3b6c:	a7018793          	addi	a5,gp,-1424 # 200002f0 <tof_buffer>
    3b70:	00271593          	slli	a1,a4,0x2
    3b74:	95be                	add	a1,a1,a5
    3b76:	e188                	fsw	fa0,0(a1)
    3b78:	639c                	flw	fa5,0(a5)
    3b7a:	f0000553          	fmv.w.x	fa0,zero
    3b7e:	0705                	addi	a4,a4,1
    3b80:	8b0d                	andi	a4,a4,3
    3b82:	00f57553          	fadd.s	fa0,fa0,fa5
    3b86:	63dc                	flw	fa5,4(a5)
    3b88:	a218                	sb	a4,0(a2)
    3b8a:	00f57553          	fadd.s	fa0,fa0,fa5
    3b8e:	679c                	flw	fa5,8(a5)
    3b90:	00f57553          	fadd.s	fa0,fa0,fa5
    3b94:	67dc                	flw	fa5,12(a5)
    3b96:	0000c7b7          	lui	a5,0xc
    3b9a:	00f57553          	fadd.s	fa0,fa0,fa5
    3b9e:	1d87a787          	flw	fa5,472(a5) # c1d8 <strlen+0x720>
    3ba2:	10f57553          	fmul.s	fa0,fa0,fa5
    3ba6:	e288                	fsw	fa0,0(a3)
    3ba8:	b76d                	j	3b52 <filtered_tof+0x26>
    3baa:	6294                	flw	fa3,0(a3)
    3bac:	0000c7b7          	lui	a5,0xc
    3bb0:	c3c7a707          	flw	fa4,-964(a5) # bc3c <strlen+0x184>
    3bb4:	08d577d3          	fsub.s	fa5,fa0,fa3
    3bb8:	a0f717d3          	flt.s	a5,fa4,fa5
    3bbc:	c781                	beqz	a5,3bc4 <filtered_tof+0x98>
    3bbe:	00e6f553          	fadd.s	fa0,fa3,fa4
    3bc2:	b755                	j	3b66 <filtered_tof+0x3a>
    3bc4:	0000c7b7          	lui	a5,0xc
    3bc8:	c407a607          	flw	fa2,-960(a5) # bc40 <strlen+0x188>
    3bcc:	a0c797d3          	flt.s	a5,fa5,fa2
    3bd0:	dbd9                	beqz	a5,3b66 <filtered_tof+0x3a>
    3bd2:	08e6f553          	fsub.s	fa0,fa3,fa4
    3bd6:	bf41                	j	3b66 <filtered_tof+0x3a>

00003bd8 <GPIO_SW_INIT>:
    3bd8:	e18fc2ef          	jal	t0,1f0 <__riscv_save_0>
    3bdc:	1141                	addi	sp,sp,-16
    3bde:	4585                	li	a1,1
    3be0:	4511                	li	a0,4
    3be2:	c202                	sw	zero,4(sp)
    3be4:	c402                	sw	zero,8(sp)
    3be6:	c602                	sw	zero,12(sp)
    3be8:	f2efd0ef          	jal	ra,1316 <RCC_APB2PeriphClockCmd>
    3bec:	6789                	lui	a5,0x2
    3bee:	80078793          	addi	a5,a5,-2048 # 1800 <calculate_z_compensation+0x38>
    3bf2:	40011437          	lui	s0,0x40011
    3bf6:	827c                	sh	a5,4(sp)
    3bf8:	47c1                	li	a5,16
    3bfa:	c63e                	sw	a5,12(sp)
    3bfc:	004c                	addi	a1,sp,4
    3bfe:	478d                	li	a5,3
    3c00:	80040513          	addi	a0,s0,-2048 # 40010800 <_eusrstack+0x20008800>
    3c04:	c43e                	sw	a5,8(sp)
    3c06:	b4afd0ef          	jal	ra,f50 <GPIO_Init>
    3c0a:	6585                	lui	a1,0x1
    3c0c:	80040513          	addi	a0,s0,-2048
    3c10:	4601                	li	a2,0
    3c12:	80058593          	addi	a1,a1,-2048 # 800 <__stack_size>
    3c16:	c04fd0ef          	jal	ra,101a <GPIO_WriteBit>
    3c1a:	4601                	li	a2,0
    3c1c:	6585                	lui	a1,0x1
    3c1e:	80040513          	addi	a0,s0,-2048
    3c22:	bf8fd0ef          	jal	ra,101a <GPIO_WriteBit>
    3c26:	0141                	addi	sp,sp,16
    3c28:	decfc06f          	j	214 <__riscv_restore_0>

00003c2c <SW_Release>:
    3c2c:	dc4fc2ef          	jal	t0,1f0 <__riscv_save_0>
    3c30:	40011437          	lui	s0,0x40011
    3c34:	6585                	lui	a1,0x1
    3c36:	4605                	li	a2,1
    3c38:	80058593          	addi	a1,a1,-2048 # 800 <__stack_size>
    3c3c:	80040513          	addi	a0,s0,-2048 # 40010800 <_eusrstack+0x20008800>
    3c40:	bdafd0ef          	jal	ra,101a <GPIO_WriteBit>
    3c44:	4551                	li	a0,20
    3c46:	f14ff0ef          	jal	ra,335a <Delay_Ms>
    3c4a:	4605                	li	a2,1
    3c4c:	6585                	lui	a1,0x1
    3c4e:	80040513          	addi	a0,s0,-2048
    3c52:	bc8fd0ef          	jal	ra,101a <GPIO_WriteBit>
    3c56:	4551                	li	a0,20
    3c58:	f02ff0ef          	jal	ra,335a <Delay_Ms>
    3c5c:	db8fc06f          	j	214 <__riscv_restore_0>

00003c60 <delay_320ns>:
    3c60:	0001                	nop
    3c62:	0001                	nop
    3c64:	0001                	nop
    3c66:	0001                	nop
    3c68:	0001                	nop
    3c6a:	0001                	nop
    3c6c:	0001                	nop
    3c6e:	0001                	nop
    3c70:	0001                	nop
    3c72:	0001                	nop
    3c74:	0001                	nop
    3c76:	0001                	nop
    3c78:	0001                	nop
    3c7a:	0001                	nop
    3c7c:	0001                	nop
    3c7e:	0001                	nop
    3c80:	0001                	nop
    3c82:	0001                	nop
    3c84:	0001                	nop
    3c86:	0001                	nop
    3c88:	8082                	ret

00003c8a <delay_850ns>:
    3c8a:	0001                	nop
    3c8c:	0001                	nop
    3c8e:	0001                	nop
    3c90:	0001                	nop
    3c92:	0001                	nop
    3c94:	0001                	nop
    3c96:	0001                	nop
    3c98:	0001                	nop
    3c9a:	0001                	nop
    3c9c:	0001                	nop
    3c9e:	0001                	nop
    3ca0:	0001                	nop
    3ca2:	0001                	nop
    3ca4:	0001                	nop
    3ca6:	0001                	nop
    3ca8:	0001                	nop
    3caa:	0001                	nop
    3cac:	0001                	nop
    3cae:	0001                	nop
    3cb0:	0001                	nop
    3cb2:	0001                	nop
    3cb4:	0001                	nop
    3cb6:	0001                	nop
    3cb8:	0001                	nop
    3cba:	0001                	nop
    3cbc:	0001                	nop
    3cbe:	0001                	nop
    3cc0:	0001                	nop
    3cc2:	0001                	nop
    3cc4:	0001                	nop
    3cc6:	0001                	nop
    3cc8:	0001                	nop
    3cca:	0001                	nop
    3ccc:	0001                	nop
    3cce:	0001                	nop
    3cd0:	0001                	nop
    3cd2:	0001                	nop
    3cd4:	0001                	nop
    3cd6:	0001                	nop
    3cd8:	0001                	nop
    3cda:	0001                	nop
    3cdc:	0001                	nop
    3cde:	0001                	nop
    3ce0:	0001                	nop
    3ce2:	0001                	nop
    3ce4:	0001                	nop
    3ce6:	0001                	nop
    3ce8:	0001                	nop
    3cea:	0001                	nop
    3cec:	0001                	nop
    3cee:	0001                	nop
    3cf0:	0001                	nop
    3cf2:	0001                	nop
    3cf4:	0001                	nop
    3cf6:	0001                	nop
    3cf8:	0001                	nop
    3cfa:	0001                	nop
    3cfc:	0001                	nop
    3cfe:	0001                	nop
    3d00:	0001                	nop
    3d02:	0001                	nop
    3d04:	0001                	nop
    3d06:	0001                	nop
    3d08:	0001                	nop
    3d0a:	0001                	nop
    3d0c:	0001                	nop
    3d0e:	0001                	nop
    3d10:	0001                	nop
    3d12:	0001                	nop
    3d14:	0001                	nop
    3d16:	0001                	nop
    3d18:	0001                	nop
    3d1a:	0001                	nop
    3d1c:	0001                	nop
    3d1e:	0001                	nop
    3d20:	0001                	nop
    3d22:	0001                	nop
    3d24:	0001                	nop
    3d26:	0001                	nop
    3d28:	0001                	nop
    3d2a:	8082                	ret

00003d2c <delay_us>:
    3d2c:	57fd                	li	a5,-1
    3d2e:	157d                	addi	a0,a0,-1
    3d30:	00f51363          	bne	a0,a5,3d36 <delay_us+0xa>
    3d34:	8082                	ret
    3d36:	0001                	nop
    3d38:	0001                	nop
    3d3a:	0001                	nop
    3d3c:	0001                	nop
    3d3e:	0001                	nop
    3d40:	0001                	nop
    3d42:	0001                	nop
    3d44:	0001                	nop
    3d46:	0001                	nop
    3d48:	0001                	nop
    3d4a:	0001                	nop
    3d4c:	0001                	nop
    3d4e:	0001                	nop
    3d50:	0001                	nop
    3d52:	0001                	nop
    3d54:	0001                	nop
    3d56:	0001                	nop
    3d58:	0001                	nop
    3d5a:	0001                	nop
    3d5c:	0001                	nop
    3d5e:	0001                	nop
    3d60:	0001                	nop
    3d62:	0001                	nop
    3d64:	0001                	nop
    3d66:	0001                	nop
    3d68:	0001                	nop
    3d6a:	0001                	nop
    3d6c:	0001                	nop
    3d6e:	0001                	nop
    3d70:	0001                	nop
    3d72:	0001                	nop
    3d74:	0001                	nop
    3d76:	0001                	nop
    3d78:	0001                	nop
    3d7a:	0001                	nop
    3d7c:	0001                	nop
    3d7e:	0001                	nop
    3d80:	0001                	nop
    3d82:	0001                	nop
    3d84:	0001                	nop
    3d86:	0001                	nop
    3d88:	0001                	nop
    3d8a:	0001                	nop
    3d8c:	0001                	nop
    3d8e:	0001                	nop
    3d90:	0001                	nop
    3d92:	0001                	nop
    3d94:	0001                	nop
    3d96:	0001                	nop
    3d98:	0001                	nop
    3d9a:	0001                	nop
    3d9c:	0001                	nop
    3d9e:	0001                	nop
    3da0:	0001                	nop
    3da2:	0001                	nop
    3da4:	0001                	nop
    3da6:	0001                	nop
    3da8:	0001                	nop
    3daa:	0001                	nop
    3dac:	0001                	nop
    3dae:	0001                	nop
    3db0:	0001                	nop
    3db2:	0001                	nop
    3db4:	0001                	nop
    3db6:	0001                	nop
    3db8:	0001                	nop
    3dba:	0001                	nop
    3dbc:	0001                	nop
    3dbe:	0001                	nop
    3dc0:	0001                	nop
    3dc2:	0001                	nop
    3dc4:	0001                	nop
    3dc6:	0001                	nop
    3dc8:	0001                	nop
    3dca:	0001                	nop
    3dcc:	0001                	nop
    3dce:	0001                	nop
    3dd0:	0001                	nop
    3dd2:	0001                	nop
    3dd4:	0001                	nop
    3dd6:	0001                	nop
    3dd8:	0001                	nop
    3dda:	0001                	nop
    3ddc:	0001                	nop
    3dde:	0001                	nop
    3de0:	0001                	nop
    3de2:	0001                	nop
    3de4:	0001                	nop
    3de6:	0001                	nop
    3de8:	0001                	nop
    3dea:	0001                	nop
    3dec:	0001                	nop
    3dee:	0001                	nop
    3df0:	0001                	nop
    3df2:	0001                	nop
    3df4:	0001                	nop
    3df6:	0001                	nop
    3df8:	0001                	nop
    3dfa:	0001                	nop
    3dfc:	0001                	nop
    3dfe:	0001                	nop
    3e00:	0001                	nop
    3e02:	0001                	nop
    3e04:	0001                	nop
    3e06:	0001                	nop
    3e08:	0001                	nop
    3e0a:	0001                	nop
    3e0c:	0001                	nop
    3e0e:	0001                	nop
    3e10:	0001                	nop
    3e12:	0001                	nop
    3e14:	0001                	nop
    3e16:	0001                	nop
    3e18:	0001                	nop
    3e1a:	0001                	nop
    3e1c:	0001                	nop
    3e1e:	0001                	nop
    3e20:	0001                	nop
    3e22:	0001                	nop
    3e24:	b729                	j	3d2e <delay_us+0x2>

00003e26 <GPIO_Init2812>:
    3e26:	bcafc2ef          	jal	t0,1f0 <__riscv_save_0>
    3e2a:	1141                	addi	sp,sp,-16
    3e2c:	4585                	li	a1,1
    3e2e:	4511                	li	a0,4
    3e30:	c202                	sw	zero,4(sp)
    3e32:	c402                	sw	zero,8(sp)
    3e34:	c602                	sw	zero,12(sp)
    3e36:	ce0fd0ef          	jal	ra,1316 <RCC_APB2PeriphClockCmd>
    3e3a:	4789                	li	a5,2
    3e3c:	40011437          	lui	s0,0x40011
    3e40:	827c                	sh	a5,4(sp)
    3e42:	47c1                	li	a5,16
    3e44:	c63e                	sw	a5,12(sp)
    3e46:	004c                	addi	a1,sp,4
    3e48:	478d                	li	a5,3
    3e4a:	80040513          	addi	a0,s0,-2048 # 40010800 <_eusrstack+0x20008800>
    3e4e:	c43e                	sw	a5,8(sp)
    3e50:	900fd0ef          	jal	ra,f50 <GPIO_Init>
    3e54:	4605                	li	a2,1
    3e56:	4589                	li	a1,2
    3e58:	80040513          	addi	a0,s0,-2048
    3e5c:	9befd0ef          	jal	ra,101a <GPIO_WriteBit>
    3e60:	0141                	addi	sp,sp,16
    3e62:	bb2fc06f          	j	214 <__riscv_restore_0>

00003e66 <WS2812B_Reset>:
    3e66:	b8afc2ef          	jal	t0,1f0 <__riscv_save_0>
    3e6a:	40011537          	lui	a0,0x40011
    3e6e:	4601                	li	a2,0
    3e70:	4589                	li	a1,2
    3e72:	80050513          	addi	a0,a0,-2048 # 40010800 <_eusrstack+0x20008800>
    3e76:	9a4fd0ef          	jal	ra,101a <GPIO_WriteBit>
    3e7a:	11800513          	li	a0,280
    3e7e:	ca6ff0ef          	jal	ra,3324 <Delay_Us>
    3e82:	b92fc06f          	j	214 <__riscv_restore_0>

00003e86 <ws2812_write_byte>:
    3e86:	b6afc2ef          	jal	t0,1f0 <__riscv_save_0>
    3e8a:	40011437          	lui	s0,0x40011
    3e8e:	892a                	mv	s2,a0
    3e90:	44a1                	li	s1,8
    3e92:	80040413          	addi	s0,s0,-2048 # 40010800 <_eusrstack+0x20008800>
    3e96:	01891793          	slli	a5,s2,0x18
    3e9a:	87e1                	srai	a5,a5,0x18
    3e9c:	4605                	li	a2,1
    3e9e:	4589                	li	a1,2
    3ea0:	8522                	mv	a0,s0
    3ea2:	0207d663          	bgez	a5,3ece <ws2812_write_byte+0x48>
    3ea6:	974fd0ef          	jal	ra,101a <GPIO_WriteBit>
    3eaa:	de1ff0ef          	jal	ra,3c8a <delay_850ns>
    3eae:	4601                	li	a2,0
    3eb0:	4589                	li	a1,2
    3eb2:	8522                	mv	a0,s0
    3eb4:	966fd0ef          	jal	ra,101a <GPIO_WriteBit>
    3eb8:	da9ff0ef          	jal	ra,3c60 <delay_320ns>
    3ebc:	14fd                	addi	s1,s1,-1
    3ebe:	0906                	slli	s2,s2,0x1
    3ec0:	0ff4f493          	andi	s1,s1,255
    3ec4:	0ff97913          	andi	s2,s2,255
    3ec8:	f4f9                	bnez	s1,3e96 <ws2812_write_byte+0x10>
    3eca:	b4afc06f          	j	214 <__riscv_restore_0>
    3ece:	94cfd0ef          	jal	ra,101a <GPIO_WriteBit>
    3ed2:	d8fff0ef          	jal	ra,3c60 <delay_320ns>
    3ed6:	4601                	li	a2,0
    3ed8:	4589                	li	a1,2
    3eda:	8522                	mv	a0,s0
    3edc:	93efd0ef          	jal	ra,101a <GPIO_WriteBit>
    3ee0:	dabff0ef          	jal	ra,3c8a <delay_850ns>
    3ee4:	bfe1                	j	3ebc <ws2812_write_byte+0x36>

00003ee6 <WS2812B_WriteColor>:
    3ee6:	b0afc2ef          	jal	t0,1f0 <__riscv_save_0>
    3eea:	1141                	addi	sp,sp,-16
    3eec:	842a                	mv	s0,a0
    3eee:	852e                	mv	a0,a1
    3ef0:	c632                	sw	a2,12(sp)
    3ef2:	f95ff0ef          	jal	ra,3e86 <ws2812_write_byte>
    3ef6:	8522                	mv	a0,s0
    3ef8:	f8fff0ef          	jal	ra,3e86 <ws2812_write_byte>
    3efc:	4632                	lw	a2,12(sp)
    3efe:	8532                	mv	a0,a2
    3f00:	f87ff0ef          	jal	ra,3e86 <ws2812_write_byte>
    3f04:	0141                	addi	sp,sp,16
    3f06:	b0efc06f          	j	214 <__riscv_restore_0>

00003f0a <yuyin_gpio>:
    3f0a:	ae6fc2ef          	jal	t0,1f0 <__riscv_save_0>
    3f0e:	1141                	addi	sp,sp,-16
    3f10:	4585                	li	a1,1
    3f12:	4511                	li	a0,4
    3f14:	c202                	sw	zero,4(sp)
    3f16:	c402                	sw	zero,8(sp)
    3f18:	c602                	sw	zero,12(sp)
    3f1a:	bfcfd0ef          	jal	ra,1316 <RCC_APB2PeriphClockCmd>
    3f1e:	4585                	li	a1,1
    3f20:	4541                	li	a0,16
    3f22:	bf4fd0ef          	jal	ra,1316 <RCC_APB2PeriphClockCmd>
    3f26:	4585                	li	a1,1
    3f28:	4521                	li	a0,8
    3f2a:	becfd0ef          	jal	ra,1316 <RCC_APB2PeriphClockCmd>
    3f2e:	40011437          	lui	s0,0x40011
    3f32:	10000793          	li	a5,256
    3f36:	4941                	li	s2,16
    3f38:	448d                	li	s1,3
    3f3a:	004c                	addi	a1,sp,4
    3f3c:	80040513          	addi	a0,s0,-2048 # 40010800 <_eusrstack+0x20008800>
    3f40:	827c                	sh	a5,4(sp)
    3f42:	c64a                	sw	s2,12(sp)
    3f44:	c426                	sw	s1,8(sp)
    3f46:	80afd0ef          	jal	ra,f50 <GPIO_Init>
    3f4a:	4605                	li	a2,1
    3f4c:	80040513          	addi	a0,s0,-2048
    3f50:	10000593          	li	a1,256
    3f54:	8c6fd0ef          	jal	ra,101a <GPIO_WriteBit>
    3f58:	77fd                	lui	a5,0xfffff
    3f5a:	004c                	addi	a1,sp,4
    3f5c:	c0040513          	addi	a0,s0,-1024
    3f60:	827c                	sh	a5,4(sp)
    3f62:	c64a                	sw	s2,12(sp)
    3f64:	c426                	sw	s1,8(sp)
    3f66:	febfc0ef          	jal	ra,f50 <GPIO_Init>
    3f6a:	c0040513          	addi	a0,s0,-1024
    3f6e:	4605                	li	a2,1
    3f70:	6585                	lui	a1,0x1
    3f72:	8a8fd0ef          	jal	ra,101a <GPIO_WriteBit>
    3f76:	c0040513          	addi	a0,s0,-1024
    3f7a:	4605                	li	a2,1
    3f7c:	6589                	lui	a1,0x2
    3f7e:	89cfd0ef          	jal	ra,101a <GPIO_WriteBit>
    3f82:	c0040513          	addi	a0,s0,-1024
    3f86:	4605                	li	a2,1
    3f88:	6591                	lui	a1,0x4
    3f8a:	890fd0ef          	jal	ra,101a <GPIO_WriteBit>
    3f8e:	4605                	li	a2,1
    3f90:	c0040513          	addi	a0,s0,-1024
    3f94:	65a1                	lui	a1,0x8
    3f96:	884fd0ef          	jal	ra,101a <GPIO_WriteBit>
    3f9a:	3c000793          	li	a5,960
    3f9e:	004c                	addi	a1,sp,4
    3fa0:	40011537          	lui	a0,0x40011
    3fa4:	827c                	sh	a5,4(sp)
    3fa6:	c64a                	sw	s2,12(sp)
    3fa8:	c426                	sw	s1,8(sp)
    3faa:	fa7fc0ef          	jal	ra,f50 <GPIO_Init>
    3fae:	4605                	li	a2,1
    3fb0:	04000593          	li	a1,64
    3fb4:	40011537          	lui	a0,0x40011
    3fb8:	862fd0ef          	jal	ra,101a <GPIO_WriteBit>
    3fbc:	4605                	li	a2,1
    3fbe:	08000593          	li	a1,128
    3fc2:	40011537          	lui	a0,0x40011
    3fc6:	854fd0ef          	jal	ra,101a <GPIO_WriteBit>
    3fca:	4605                	li	a2,1
    3fcc:	10000593          	li	a1,256
    3fd0:	40011537          	lui	a0,0x40011
    3fd4:	846fd0ef          	jal	ra,101a <GPIO_WriteBit>
    3fd8:	4605                	li	a2,1
    3fda:	20000593          	li	a1,512
    3fde:	40011537          	lui	a0,0x40011
    3fe2:	838fd0ef          	jal	ra,101a <GPIO_WriteBit>
    3fe6:	0141                	addi	sp,sp,16
    3fe8:	a2cfc06f          	j	214 <__riscv_restore_0>

00003fec <RGB_huxi>:
    3fec:	a04fc2ef          	jal	t0,1f0 <__riscv_save_0>
    3ff0:	84018493          	addi	s1,gp,-1984 # 200000c0 <jici.5300>
    3ff4:	209c                	lbu	a5,0(s1)
    3ff6:	473d                	li	a4,15
    3ff8:	0785                	addi	a5,a5,1
    3ffa:	0ff7f793          	andi	a5,a5,255
    3ffe:	a09c                	sb	a5,0(s1)
    4000:	04f76063          	bltu	a4,a5,4040 <RGB_huxi+0x54>
    4004:	c11d                	beqz	a0,402a <RGB_huxi+0x3e>
    4006:	e61ff0ef          	jal	ra,3e66 <WS2812B_Reset>
    400a:	2088                	lbu	a0,0(s1)
    400c:	4599                	li	a1,6
    400e:	47a9                	li	a5,10
    4010:	02b505b3          	mul	a1,a0,a1
    4014:	4601                	li	a2,0
    4016:	02f50533          	mul	a0,a0,a5
    401a:	0fe5f593          	andi	a1,a1,254
    401e:	0fe57513          	andi	a0,a0,254
    4022:	ec5ff0ef          	jal	ra,3ee6 <WS2812B_WriteColor>
    4026:	9eefc06f          	j	214 <__riscv_restore_0>
    402a:	e3dff0ef          	jal	ra,3e66 <WS2812B_Reset>
    402e:	2090                	lbu	a2,0(s1)
    4030:	47a9                	li	a5,10
    4032:	02f60633          	mul	a2,a2,a5
    4036:	0ff67613          	andi	a2,a2,255
    403a:	85b2                	mv	a1,a2
    403c:	8532                	mv	a0,a2
    403e:	b7d5                	j	4022 <RGB_huxi+0x36>
    4040:	84018413          	addi	s0,gp,-1984 # 200000c0 <jici.5300>
    4044:	cd05                	beqz	a0,407c <RGB_huxi+0x90>
    4046:	e21ff0ef          	jal	ra,3e66 <WS2812B_Reset>
    404a:	2008                	lbu	a0,0(s0)
    404c:	55e9                	li	a1,-6
    404e:	57d9                	li	a5,-10
    4050:	02b505b3          	mul	a1,a0,a1
    4054:	4601                	li	a2,0
    4056:	02f50533          	mul	a0,a0,a5
    405a:	fb458593          	addi	a1,a1,-76 # 7fb4 <printLongLongInt+0xc8>
    405e:	0fe5f593          	andi	a1,a1,254
    4062:	02c50513          	addi	a0,a0,44 # 4001102c <_eusrstack+0x2000902c>
    4066:	0fe57513          	andi	a0,a0,254
    406a:	e7dff0ef          	jal	ra,3ee6 <WS2812B_WriteColor>
    406e:	2018                	lbu	a4,0(s0)
    4070:	47f1                	li	a5,28
    4072:	fae7fae3          	bgeu	a5,a4,4026 <RGB_huxi+0x3a>
    4076:	4785                	li	a5,1
    4078:	a01c                	sb	a5,0(s0)
    407a:	b775                	j	4026 <RGB_huxi+0x3a>
    407c:	debff0ef          	jal	ra,3e66 <WS2812B_Reset>
    4080:	2010                	lbu	a2,0(s0)
    4082:	57d9                	li	a5,-10
    4084:	02f60633          	mul	a2,a2,a5
    4088:	02c60613          	addi	a2,a2,44 # ffffa02c <_eusrstack+0xdfff202c>
    408c:	0ff67613          	andi	a2,a2,255
    4090:	85b2                	mv	a1,a2
    4092:	8532                	mv	a0,a2
    4094:	bfd9                	j	406a <RGB_huxi+0x7e>

00004096 <GPIO_fan_flame_light>:
    4096:	95afc2ef          	jal	t0,1f0 <__riscv_save_0>
    409a:	1141                	addi	sp,sp,-16
    409c:	4585                	li	a1,1
    409e:	4541                	li	a0,16
    40a0:	c202                	sw	zero,4(sp)
    40a2:	c402                	sw	zero,8(sp)
    40a4:	c602                	sw	zero,12(sp)
    40a6:	a70fd0ef          	jal	ra,1316 <RCC_APB2PeriphClockCmd>
    40aa:	4585                	li	a1,1
    40ac:	4521                	li	a0,8
    40ae:	a68fd0ef          	jal	ra,1316 <RCC_APB2PeriphClockCmd>
    40b2:	40011437          	lui	s0,0x40011
    40b6:	478d                	li	a5,3
    40b8:	4941                	li	s2,16
    40ba:	448d                	li	s1,3
    40bc:	004c                	addi	a1,sp,4
    40be:	c0040513          	addi	a0,s0,-1024 # 40010c00 <_eusrstack+0x20008c00>
    40c2:	827c                	sh	a5,4(sp)
    40c4:	c64a                	sw	s2,12(sp)
    40c6:	c426                	sw	s1,8(sp)
    40c8:	e89fc0ef          	jal	ra,f50 <GPIO_Init>
    40cc:	c0040513          	addi	a0,s0,-1024
    40d0:	4601                	li	a2,0
    40d2:	4585                	li	a1,1
    40d4:	f47fc0ef          	jal	ra,101a <GPIO_WriteBit>
    40d8:	4601                	li	a2,0
    40da:	c0040513          	addi	a0,s0,-1024
    40de:	4589                	li	a1,2
    40e0:	f3bfc0ef          	jal	ra,101a <GPIO_WriteBit>
    40e4:	02000793          	li	a5,32
    40e8:	004c                	addi	a1,sp,4
    40ea:	40011537          	lui	a0,0x40011
    40ee:	827c                	sh	a5,4(sp)
    40f0:	c64a                	sw	s2,12(sp)
    40f2:	c426                	sw	s1,8(sp)
    40f4:	e5dfc0ef          	jal	ra,f50 <GPIO_Init>
    40f8:	4601                	li	a2,0
    40fa:	02000593          	li	a1,32
    40fe:	40011537          	lui	a0,0x40011
    4102:	f19fc0ef          	jal	ra,101a <GPIO_WriteBit>
    4106:	0141                	addi	sp,sp,16
    4108:	90cfc06f          	j	214 <__riscv_restore_0>

0000410c <CAN_Send_Position_Mode>:
    410c:	8e4fc2ef          	jal	t0,1f0 <__riscv_save_0>
    4110:	7179                	addi	sp,sp,-48
    4112:	02d103a3          	sb	a3,39(sp)
    4116:	01875693          	srli	a3,a4,0x18
    411a:	02d10423          	sb	a3,40(sp)
    411e:	01075693          	srli	a3,a4,0x10
    4122:	02d104a3          	sb	a3,41(sp)
    4126:	0ff77913          	andi	s2,a4,255
    412a:	00871693          	slli	a3,a4,0x8
    412e:	0742                	slli	a4,a4,0x10
    4130:	8341                	srli	a4,a4,0x10
    4132:	8321                	srli	a4,a4,0x8
    4134:	8f55                	or	a4,a4,a3
    4136:	02b10223          	sb	a1,36(sp)
    413a:	02e11523          	sh	a4,42(sp)
    413e:	00865593          	srli	a1,a2,0x8
    4142:	5775                	li	a4,-3
    4144:	0874                	addi	a3,sp,28
    4146:	02c10323          	sb	a2,38(sp)
    414a:	00e10e23          	sb	a4,28(sp)
    414e:	84aa                	mv	s1,a0
    4150:	02b102a3          	sb	a1,37(sp)
    4154:	02f10623          	sb	a5,44(sp)
    4158:	030106a3          	sb	a6,45(sp)
    415c:	4701                	li	a4,0
    415e:	8436                	mv	s0,a3
    4160:	461d                	li	a2,7
    4162:	104c                	addi	a1,sp,36
    4164:	95ba                	add	a1,a1,a4
    4166:	218c                	lbu	a1,0(a1)
    4168:	0705                	addi	a4,a4,1
    416a:	0685                	addi	a3,a3,1
    416c:	a28c                	sb	a1,0(a3)
    416e:	fec71ae3          	bne	a4,a2,4162 <CAN_Send_Position_Mode+0x56>
    4172:	86a6                	mv	a3,s1
    4174:	4601                	li	a2,0
    4176:	45a1                	li	a1,8
    4178:	8522                	mv	a0,s0
    417a:	c642                	sw	a6,12(sp)
    417c:	c43e                	sw	a5,8(sp)
    417e:	0ce010ef          	jal	ra,524c <CAN_Send_Msg>
    4182:	4705                	li	a4,1
    4184:	e90d                	bnez	a0,41b6 <CAN_Send_Position_Mode+0xaa>
    4186:	47a2                	lw	a5,8(sp)
    4188:	4832                	lw	a6,12(sp)
    418a:	5775                	li	a4,-3
    418c:	00f10f23          	sb	a5,30(sp)
    4190:	00148693          	addi	a3,s1,1
    4194:	06b00793          	li	a5,107
    4198:	4601                	li	a2,0
    419a:	4595                	li	a1,5
    419c:	8522                	mv	a0,s0
    419e:	00e10e23          	sb	a4,28(sp)
    41a2:	01210ea3          	sb	s2,29(sp)
    41a6:	01010fa3          	sb	a6,31(sp)
    41aa:	02f10023          	sb	a5,32(sp)
    41ae:	09e010ef          	jal	ra,524c <CAN_Send_Msg>
    41b2:	00a03733          	snez	a4,a0
    41b6:	853a                	mv	a0,a4
    41b8:	6145                	addi	sp,sp,48
    41ba:	85afc06f          	j	214 <__riscv_restore_0>

000041be <Control_Motor_new>:
    41be:	f00007d3          	fmv.w.x	fa5,zero
    41c2:	a0f517d3          	flt.s	a5,fa0,fa5
    41c6:	20a507d3          	fmv.s	fa5,fa0
    41ca:	c399                	beqz	a5,41d0 <Control_Motor_new+0x12>
    41cc:	20a517d3          	fneg.s	fa5,fa0
    41d0:	4791                	li	a5,4
    41d2:	06f50363          	beq	a0,a5,4238 <Control_Motor_new+0x7a>
    41d6:	00a7e663          	bltu	a5,a0,41e2 <Control_Motor_new+0x24>
    41da:	4785                	li	a5,1
    41dc:	00f50a63          	beq	a0,a5,41f0 <Control_Motor_new+0x32>
    41e0:	8082                	ret
    41e2:	4795                	li	a5,5
    41e4:	06f50b63          	beq	a0,a5,425a <Control_Motor_new+0x9c>
    41e8:	4799                	li	a5,6
    41ea:	08f50963          	beq	a0,a5,427c <Control_Motor_new+0xbe>
    41ee:	8082                	ret
    41f0:	8481a707          	flw	fa4,-1976(gp) # 200000c8 <angle_to_pulse_1>
    41f4:	0000c7b7          	lui	a5,0xc
    41f8:	10000513          	li	a0,256
    41fc:	10e7f7d3          	fmul.s	fa5,fa5,fa4
    4200:	f907a707          	flw	fa4,-112(a5) # bf90 <strlen+0x4d8>
    4204:	8581c883          	lbu	a7,-1960(gp) # 200000d8 <direction_1>
    4208:	18e7f7d3          	fdiv.s	fa5,fa5,fa4
    420c:	c0179753          	fcvt.wu.s	a4,fa5,rtz
    4210:	fe1fb2ef          	jal	t0,1f0 <__riscv_save_0>
    4214:	f00007d3          	fmv.w.x	fa5,zero
    4218:	a0f517d3          	flt.s	a5,fa0,fa5
    421c:	c399                	beqz	a5,4222 <Control_Motor_new+0x64>
    421e:	0018b893          	seqz	a7,a7
    4222:	86b2                	mv	a3,a2
    4224:	01059613          	slli	a2,a1,0x10
    4228:	4801                	li	a6,0
    422a:	4785                	li	a5,1
    422c:	8241                	srli	a2,a2,0x10
    422e:	85c6                	mv	a1,a7
    4230:	eddff0ef          	jal	ra,410c <CAN_Send_Position_Mode>
    4234:	fe1fb06f          	j	214 <__riscv_restore_0>
    4238:	84c1a707          	flw	fa4,-1972(gp) # 200000cc <angle_to_pulse_4>
    423c:	0000c7b7          	lui	a5,0xc
    4240:	40000513          	li	a0,1024
    4244:	10e7f7d3          	fmul.s	fa5,fa5,fa4
    4248:	f907a707          	flw	fa4,-112(a5) # bf90 <strlen+0x4d8>
    424c:	8591c883          	lbu	a7,-1959(gp) # 200000d9 <direction_4>
    4250:	18e7f7d3          	fdiv.s	fa5,fa5,fa4
    4254:	c0179753          	fcvt.wu.s	a4,fa5,rtz
    4258:	bf65                	j	4210 <Control_Motor_new+0x52>
    425a:	8501a707          	flw	fa4,-1968(gp) # 200000d0 <angle_to_pulse_5>
    425e:	0000c7b7          	lui	a5,0xc
    4262:	50000513          	li	a0,1280
    4266:	10e7f7d3          	fmul.s	fa5,fa5,fa4
    426a:	f907a707          	flw	fa4,-112(a5) # bf90 <strlen+0x4d8>
    426e:	9241c883          	lbu	a7,-1756(gp) # 200001a4 <direction_5>
    4272:	18e7f7d3          	fdiv.s	fa5,fa5,fa4
    4276:	c0179753          	fcvt.wu.s	a4,fa5,rtz
    427a:	bf59                	j	4210 <Control_Motor_new+0x52>
    427c:	0000c7b7          	lui	a5,0xc
    4280:	1e07a707          	flw	fa4,480(a5) # c1e0 <strlen+0x728>
    4284:	a0f717d3          	flt.s	a5,fa4,fa5
    4288:	eb81                	bnez	a5,4298 <Control_Motor_new+0xda>
    428a:	0000c7b7          	lui	a5,0xc
    428e:	c247a707          	flw	fa4,-988(a5) # bc24 <strlen+0x16c>
    4292:	a0e797d3          	flt.s	a5,fa5,fa4
    4296:	c399                	beqz	a5,429c <Control_Motor_new+0xde>
    4298:	20e707d3          	fmv.s	fa5,fa4
    429c:	8541a707          	flw	fa4,-1964(gp) # 200000d4 <angle_to_pulse_6>
    42a0:	0000c7b7          	lui	a5,0xc
    42a4:	60000513          	li	a0,1536
    42a8:	10e7f7d3          	fmul.s	fa5,fa5,fa4
    42ac:	f907a707          	flw	fa4,-112(a5) # bf90 <strlen+0x4d8>
    42b0:	9251c883          	lbu	a7,-1755(gp) # 200001a5 <direction_6>
    42b4:	18e7f7d3          	fdiv.s	fa5,fa5,fa4
    42b8:	c0179753          	fcvt.wu.s	a4,fa5,rtz
    42bc:	bf91                	j	4210 <Control_Motor_new+0x52>

000042be <Control_Motor>:
    42be:	f00007d3          	fmv.w.x	fa5,zero
    42c2:	a0f517d3          	flt.s	a5,fa0,fa5
    42c6:	20a507d3          	fmv.s	fa5,fa0
    42ca:	c399                	beqz	a5,42d0 <Control_Motor+0x12>
    42cc:	20a517d3          	fneg.s	fa5,fa0
    42d0:	4791                	li	a5,4
    42d2:	08f50263          	beq	a0,a5,4356 <Control_Motor+0x98>
    42d6:	00a7e663          	bltu	a5,a0,42e2 <Control_Motor+0x24>
    42da:	4785                	li	a5,1
    42dc:	00f50a63          	beq	a0,a5,42f0 <Control_Motor+0x32>
    42e0:	8082                	ret
    42e2:	4795                	li	a5,5
    42e4:	08f50e63          	beq	a0,a5,4380 <Control_Motor+0xc2>
    42e8:	4799                	li	a5,6
    42ea:	0cf50063          	beq	a0,a5,43aa <Control_Motor+0xec>
    42ee:	8082                	ret
    42f0:	0000c7b7          	lui	a5,0xc
    42f4:	cd07a707          	flw	fa4,-816(a5) # bcd0 <strlen+0x218>
    42f8:	a0f717d3          	flt.s	a5,fa4,fa5
    42fc:	eb81                	bnez	a5,430c <Control_Motor+0x4e>
    42fe:	0000c7b7          	lui	a5,0xc
    4302:	1dc7a707          	flw	fa4,476(a5) # c1dc <strlen+0x724>
    4306:	a0e797d3          	flt.s	a5,fa5,fa4
    430a:	c399                	beqz	a5,4310 <Control_Motor+0x52>
    430c:	20e707d3          	fmv.s	fa5,fa4
    4310:	8481a707          	flw	fa4,-1976(gp) # 200000c8 <angle_to_pulse_1>
    4314:	0000c7b7          	lui	a5,0xc
    4318:	10000513          	li	a0,256
    431c:	10e7f7d3          	fmul.s	fa5,fa5,fa4
    4320:	f907a707          	flw	fa4,-112(a5) # bf90 <strlen+0x4d8>
    4324:	8581c583          	lbu	a1,-1960(gp) # 200000d8 <direction_1>
    4328:	18e7f7d3          	fdiv.s	fa5,fa5,fa4
    432c:	85a1d603          	lhu	a2,-1958(gp) # 200000da <speed_1>
    4330:	8411c683          	lbu	a3,-1983(gp) # 200000c1 <acceleration_1>
    4334:	c0179753          	fcvt.wu.s	a4,fa5,rtz
    4338:	eb9fb2ef          	jal	t0,1f0 <__riscv_save_0>
    433c:	f00007d3          	fmv.w.x	fa5,zero
    4340:	a0f517d3          	flt.s	a5,fa0,fa5
    4344:	c399                	beqz	a5,434a <Control_Motor+0x8c>
    4346:	0015b593          	seqz	a1,a1
    434a:	4801                	li	a6,0
    434c:	4785                	li	a5,1
    434e:	dbfff0ef          	jal	ra,410c <CAN_Send_Position_Mode>
    4352:	ec3fb06f          	j	214 <__riscv_restore_0>
    4356:	84c1a707          	flw	fa4,-1972(gp) # 200000cc <angle_to_pulse_4>
    435a:	0000c7b7          	lui	a5,0xc
    435e:	40000513          	li	a0,1024
    4362:	10e7f7d3          	fmul.s	fa5,fa5,fa4
    4366:	f907a707          	flw	fa4,-112(a5) # bf90 <strlen+0x4d8>
    436a:	8591c583          	lbu	a1,-1959(gp) # 200000d9 <direction_4>
    436e:	18e7f7d3          	fdiv.s	fa5,fa5,fa4
    4372:	85c1d603          	lhu	a2,-1956(gp) # 200000dc <speed_4>
    4376:	8421c683          	lbu	a3,-1982(gp) # 200000c2 <acceleration_4>
    437a:	c0179753          	fcvt.wu.s	a4,fa5,rtz
    437e:	bf6d                	j	4338 <Control_Motor+0x7a>
    4380:	8501a707          	flw	fa4,-1968(gp) # 200000d0 <angle_to_pulse_5>
    4384:	0000c7b7          	lui	a5,0xc
    4388:	50000513          	li	a0,1280
    438c:	10e7f7d3          	fmul.s	fa5,fa5,fa4
    4390:	f907a707          	flw	fa4,-112(a5) # bf90 <strlen+0x4d8>
    4394:	9241c583          	lbu	a1,-1756(gp) # 200001a4 <direction_5>
    4398:	18e7f7d3          	fdiv.s	fa5,fa5,fa4
    439c:	85e1d603          	lhu	a2,-1954(gp) # 200000de <speed_5>
    43a0:	8431c683          	lbu	a3,-1981(gp) # 200000c3 <acceleration_5>
    43a4:	c0179753          	fcvt.wu.s	a4,fa5,rtz
    43a8:	bf41                	j	4338 <Control_Motor+0x7a>
    43aa:	0000c7b7          	lui	a5,0xc
    43ae:	1e07a707          	flw	fa4,480(a5) # c1e0 <strlen+0x728>
    43b2:	a0f717d3          	flt.s	a5,fa4,fa5
    43b6:	eb81                	bnez	a5,43c6 <Control_Motor+0x108>
    43b8:	0000c7b7          	lui	a5,0xc
    43bc:	1dc7a707          	flw	fa4,476(a5) # c1dc <strlen+0x724>
    43c0:	a0e797d3          	flt.s	a5,fa5,fa4
    43c4:	c399                	beqz	a5,43ca <Control_Motor+0x10c>
    43c6:	20e707d3          	fmv.s	fa5,fa4
    43ca:	8541a707          	flw	fa4,-1964(gp) # 200000d4 <angle_to_pulse_6>
    43ce:	0000c7b7          	lui	a5,0xc
    43d2:	60000513          	li	a0,1536
    43d6:	10e7f7d3          	fmul.s	fa5,fa5,fa4
    43da:	f907a707          	flw	fa4,-112(a5) # bf90 <strlen+0x4d8>
    43de:	9251c583          	lbu	a1,-1755(gp) # 200001a5 <direction_6>
    43e2:	18e7f7d3          	fdiv.s	fa5,fa5,fa4
    43e6:	8601d603          	lhu	a2,-1952(gp) # 200000e0 <speed_6>
    43ea:	8441c683          	lbu	a3,-1980(gp) # 200000c4 <acceleration_6>
    43ee:	c0179753          	fcvt.wu.s	a4,fa5,rtz
    43f2:	b799                	j	4338 <Control_Motor+0x7a>

000043f4 <LCD_SendTask>:
    43f4:	dd5fb2ef          	jal	t0,1c8 <__riscv_save_10>
    43f8:	7119                	addi	sp,sp,-128
    43fa:	65b1                	lui	a1,0xc
    43fc:	03000613          	li	a2,48
    4400:	af058593          	addi	a1,a1,-1296 # baf0 <strlen+0x38>
    4404:	0888                	addi	a0,sp,80
    4406:	40005a37          	lui	s4,0x40005
    440a:	5fc070ef          	jal	ra,ba06 <memcpy>
    440e:	0880                	addi	s0,sp,80
    4410:	4481                	li	s1,0
    4412:	0000cb37          	lui	s6,0xc
    4416:	59fd                	li	s3,-1
    4418:	800a0a13          	addi	s4,s4,-2048 # 40004800 <_eusrstack+0x1fffc800>
    441c:	0000cbb7          	lui	s7,0xc
    4420:	4ab1                	li	s5,12
    4422:	401c                	lw	a5,0(s0)
    4424:	86a6                	mv	a3,s1
    4426:	244b0613          	addi	a2,s6,580 # c244 <strlen+0x78c>
    442a:	4398                	lw	a4,0(a5)
    442c:	02000593          	li	a1,32
    4430:	0028                	addi	a0,sp,8
    4432:	056040ef          	jal	ra,8488 <snprintf>
    4436:	0028                	addi	a0,sp,8
    4438:	680070ef          	jal	ra,bab8 <strlen>
    443c:	892a                	mv	s2,a0
    443e:	862a                	mv	a2,a0
    4440:	002c                	addi	a1,sp,8
    4442:	1028                	addi	a0,sp,40
    4444:	5c2070ef          	jal	ra,ba06 <memcpy>
    4448:	00390613          	addi	a2,s2,3
    444c:	011c                	addi	a5,sp,128
    444e:	0642                	slli	a2,a2,0x10
    4450:	97ca                	add	a5,a5,s2
    4452:	3e800693          	li	a3,1000
    4456:	8241                	srli	a2,a2,0x10
    4458:	102c                	addi	a1,sp,40
    445a:	8552                	mv	a0,s4
    445c:	fb378423          	sb	s3,-88(a5)
    4460:	fb3784a3          	sb	s3,-87(a5)
    4464:	fb378523          	sb	s3,-86(a5)
    4468:	0e3000ef          	jal	ra,4d4a <UART_SendBytes>
    446c:	c511                	beqz	a0,4478 <LCD_SendTask+0x84>
    446e:	85a6                	mv	a1,s1
    4470:	258b8513          	addi	a0,s7,600 # c258 <strlen+0x7a0>
    4474:	7f1030ef          	jal	ra,8464 <printf>
    4478:	0485                	addi	s1,s1,1
    447a:	0411                	addi	s0,s0,4
    447c:	fb5493e3          	bne	s1,s5,4422 <LCD_SendTask+0x2e>
    4480:	6109                	addi	sp,sp,128
    4482:	d7ffb06f          	j	200 <__riscv_restore_10>

00004486 <LCD_ReceiveTask>:
    4486:	d6bfb2ef          	jal	t0,1f0 <__riscv_save_0>
    448a:	9641c783          	lbu	a5,-1692(gp) # 200001e4 <lcd_cmd>
    448e:	4715                	li	a4,5
    4490:	07bd                	addi	a5,a5,15
    4492:	0ff7f793          	andi	a5,a5,255
    4496:	00f76f63          	bltu	a4,a5,44b4 <LCD_ReceiveTask+0x2e>
    449a:	6731                	lui	a4,0xc
    449c:	078a                	slli	a5,a5,0x2
    449e:	1e470713          	addi	a4,a4,484 # c1e4 <strlen+0x72c>
    44a2:	97ba                	add	a5,a5,a4
    44a4:	439c                	lw	a5,0(a5)
    44a6:	8782                	jr	a5
    44a8:	0000c537          	lui	a0,0xc
    44ac:	1fc50513          	addi	a0,a0,508 # c1fc <strlen+0x744>
    44b0:	002040ef          	jal	ra,84b2 <puts>
    44b4:	9641c783          	lbu	a5,-1692(gp) # 200001e4 <lcd_cmd>
    44b8:	4501                	li	a0,0
    44ba:	0ff7f793          	andi	a5,a5,255
    44be:	c799                	beqz	a5,44cc <LCD_ReceiveTask+0x46>
    44c0:	9641c503          	lbu	a0,-1692(gp) # 200001e4 <lcd_cmd>
    44c4:	96018223          	sb	zero,-1692(gp) # 200001e4 <lcd_cmd>
    44c8:	0ff57513          	andi	a0,a0,255
    44cc:	d49fb06f          	j	214 <__riscv_restore_0>
    44d0:	0000c537          	lui	a0,0xc
    44d4:	20850513          	addi	a0,a0,520 # c208 <strlen+0x750>
    44d8:	bfe1                	j	44b0 <LCD_ReceiveTask+0x2a>
    44da:	0000c537          	lui	a0,0xc
    44de:	21450513          	addi	a0,a0,532 # c214 <strlen+0x75c>
    44e2:	b7f9                	j	44b0 <LCD_ReceiveTask+0x2a>
    44e4:	0000c537          	lui	a0,0xc
    44e8:	22050513          	addi	a0,a0,544 # c220 <strlen+0x768>
    44ec:	b7d1                	j	44b0 <LCD_ReceiveTask+0x2a>
    44ee:	0000c537          	lui	a0,0xc
    44f2:	22c50513          	addi	a0,a0,556 # c22c <strlen+0x774>
    44f6:	bf6d                	j	44b0 <LCD_ReceiveTask+0x2a>
    44f8:	0000c537          	lui	a0,0xc
    44fc:	23850513          	addi	a0,a0,568 # c238 <strlen+0x780>
    4500:	bf45                	j	44b0 <LCD_ReceiveTask+0x2a>

00004502 <IR_EXTI_Callback>:
    4502:	ceffb2ef          	jal	t0,1f0 <__riscv_save_0>
    4506:	40011537          	lui	a0,0x40011
    450a:	65a1                	lui	a1,0x8
    450c:	80050513          	addi	a0,a0,-2048 # 40010800 <_eusrstack+0x20008800>
    4510:	9701a403          	lw	s0,-1680(gp) # 200001f0 <time_125us>
    4514:	afdfc0ef          	jal	ra,1010 <GPIO_ReadInputDataBit>
    4518:	4785                	li	a5,1
    451a:	00f51663          	bne	a0,a5,4526 <IR_EXTI_Callback+0x24>
    451e:	9601a823          	sw	zero,-1680(gp) # 200001f0 <time_125us>
    4522:	cf3fb06f          	j	214 <__riscv_restore_0>
    4526:	95e18693          	addi	a3,gp,-1698 # 200001de <state.5258>
    452a:	2290                	lbu	a2,0(a3)
    452c:	95e18493          	addi	s1,gp,-1698 # 200001de <state.5258>
    4530:	e215                	bnez	a2,4554 <IR_EXTI_Callback+0x52>
    4532:	fde40713          	addi	a4,s0,-34
    4536:	4619                	li	a2,6
    4538:	00e66663          	bltu	a2,a4,4544 <IR_EXTI_Callback+0x42>
    453c:	a29c                	sb	a5,0(a3)
    453e:	94018c23          	sb	zero,-1704(gp) # 200001d8 <bitCount>
    4542:	b7c5                	j	4522 <IR_EXTI_Callback+0x20>
    4544:	1441                	addi	s0,s0,-16
    4546:	4791                	li	a5,4
    4548:	fc87ede3          	bltu	a5,s0,4522 <IR_EXTI_Callback+0x20>
    454c:	4709                	li	a4,2
    454e:	94e18ea3          	sb	a4,-1699(gp) # 200001dd <ir_frame_ready>
    4552:	bfc1                	j	4522 <IR_EXTI_Callback+0x20>
    4554:	fcf617e3          	bne	a2,a5,4522 <IR_EXTI_Callback+0x20>
    4558:	ffd40713          	addi	a4,s0,-3
    455c:	4691                	li	a3,4
    455e:	95818793          	addi	a5,gp,-1704 # 200001d8 <bitCount>
    4562:	0ce6e663          	bltu	a3,a4,462e <IR_EXTI_Callback+0x12c>
    4566:	2398                	lbu	a4,0(a5)
    4568:	0ff77693          	andi	a3,a4,255
    456c:	00168713          	addi	a4,a3,1
    4570:	0ff77713          	andi	a4,a4,255
    4574:	a398                	sb	a4,0(a5)
    4576:	a8018713          	addi	a4,gp,-1408 # 20000300 <bits>
    457a:	9736                	add	a4,a4,a3
    457c:	00070023          	sb	zero,0(a4)
    4580:	239c                	lbu	a5,0(a5)
    4582:	02000713          	li	a4,32
    4586:	f8f71ee3          	bne	a4,a5,4522 <IR_EXTI_Callback+0x20>
    458a:	4781                	li	a5,0
    458c:	4801                	li	a6,0
    458e:	4881                	li	a7,0
    4590:	4301                	li	t1,0
    4592:	4e01                	li	t3,0
    4594:	a8018713          	addi	a4,gp,-1408 # 20000300 <bits>
    4598:	4ea1                	li	t4,8
    459a:	00f706b3          	add	a3,a4,a5
    459e:	2288                	lbu	a0,0(a3)
    45a0:	00878693          	addi	a3,a5,8
    45a4:	96ba                	add	a3,a3,a4
    45a6:	228c                	lbu	a1,0(a3)
    45a8:	01078693          	addi	a3,a5,16
    45ac:	96ba                	add	a3,a3,a4
    45ae:	2290                	lbu	a2,0(a3)
    45b0:	01878693          	addi	a3,a5,24
    45b4:	96ba                	add	a3,a3,a4
    45b6:	2294                	lbu	a3,0(a3)
    45b8:	00f51533          	sll	a0,a0,a5
    45bc:	00f595b3          	sll	a1,a1,a5
    45c0:	00f61633          	sll	a2,a2,a5
    45c4:	00f696b3          	sll	a3,a3,a5
    45c8:	01c56533          	or	a0,a0,t3
    45cc:	0065e5b3          	or	a1,a1,t1
    45d0:	01166633          	or	a2,a2,a7
    45d4:	0106e6b3          	or	a3,a3,a6
    45d8:	0785                	addi	a5,a5,1
    45da:	0ff57e13          	andi	t3,a0,255
    45de:	0ff5f313          	andi	t1,a1,255
    45e2:	0ff67893          	andi	a7,a2,255
    45e6:	0ff6f813          	andi	a6,a3,255
    45ea:	fbd798e3          	bne	a5,t4,459a <IR_EXTI_Callback+0x98>
    45ee:	006e4733          	xor	a4,t3,t1
    45f2:	0108c7b3          	xor	a5,a7,a6
    45f6:	8ff9                	and	a5,a5,a4
    45f8:	0ff00713          	li	a4,255
    45fc:	02e79663          	bne	a5,a4,4628 <IR_EXTI_Callback+0x126>
    4600:	95c18ca3          	sb	t3,-1703(gp) # 200001d9 <ir_address>
    4604:	94618d23          	sb	t1,-1702(gp) # 200001da <ir_address_inv>
    4608:	95b18793          	addi	a5,gp,-1701 # 200001db <ir_command>
    460c:	01178023          	sb	a7,0(a5)
    4610:	95018e23          	sb	a6,-1700(gp) # 200001dc <ir_command_inv>
    4614:	4685                	li	a3,1
    4616:	94d18ea3          	sb	a3,-1699(gp) # 200001dd <ir_frame_ready>
    461a:	238c                	lbu	a1,0(a5)
    461c:	0000c537          	lui	a0,0xc
    4620:	27050513          	addi	a0,a0,624 # c270 <strlen+0x7b8>
    4624:	641030ef          	jal	ra,8464 <printf>
    4628:	00048023          	sb	zero,0(s1)
    462c:	bddd                	j	4522 <IR_EXTI_Callback+0x20>
    462e:	1455                	addi	s0,s0,-11
    4630:	4719                	li	a4,6
    4632:	00876f63          	bltu	a4,s0,4650 <IR_EXTI_Callback+0x14e>
    4636:	2398                	lbu	a4,0(a5)
    4638:	0ff77693          	andi	a3,a4,255
    463c:	00168713          	addi	a4,a3,1
    4640:	0ff77713          	andi	a4,a4,255
    4644:	a398                	sb	a4,0(a5)
    4646:	a8018713          	addi	a4,gp,-1408 # 20000300 <bits>
    464a:	9736                	add	a4,a4,a3
    464c:	a310                	sb	a2,0(a4)
    464e:	bf0d                	j	4580 <IR_EXTI_Callback+0x7e>
    4650:	00048023          	sb	zero,0(s1)
    4654:	b735                	j	4580 <IR_EXTI_Callback+0x7e>

00004656 <float_to_bytes>:
    4656:	e00507d3          	fmv.x.w	a5,fa0
    465a:	0187d693          	srli	a3,a5,0x18
    465e:	873e                	mv	a4,a5
    4660:	a114                	sb	a3,0(a0)
    4662:	0107d693          	srli	a3,a5,0x10
    4666:	83a1                	srli	a5,a5,0x8
    4668:	b114                	sb	a3,1(a0)
    466a:	a13c                	sb	a5,2(a0)
    466c:	b138                	sb	a4,3(a0)
    466e:	8082                	ret

00004670 <CAN_MOTOR_MODE_SET>:
    4670:	b81fb2ef          	jal	t0,1f0 <__riscv_save_0>
    4674:	1141                	addi	sp,sp,-16
    4676:	478d                	li	a5,3
    4678:	04b00693          	li	a3,75
    467c:	4605                	li	a2,1
    467e:	45a1                	li	a1,8
    4680:	0028                	addi	a0,sp,8
    4682:	c43e                	sw	a5,8(sp)
    4684:	c63e                	sw	a5,12(sp)
    4686:	3c7000ef          	jal	ra,524c <CAN_Send_Msg>
    468a:	06b00693          	li	a3,107
    468e:	4605                	li	a2,1
    4690:	45a1                	li	a1,8
    4692:	0028                	addi	a0,sp,8
    4694:	3b9000ef          	jal	ra,524c <CAN_Send_Msg>
    4698:	47a1                	li	a5,8
    469a:	06700693          	li	a3,103
    469e:	4605                	li	a2,1
    46a0:	45a1                	li	a1,8
    46a2:	0028                	addi	a0,sp,8
    46a4:	c43e                	sw	a5,8(sp)
    46a6:	6409                	lui	s0,0x2
    46a8:	c602                	sw	zero,12(sp)
    46aa:	3a3000ef          	jal	ra,524c <CAN_Send_Msg>
    46ae:	71040513          	addi	a0,s0,1808 # 2710 <rb_test08+0x6a4>
    46b2:	e7aff0ef          	jal	ra,3d2c <delay_us>
    46b6:	04700693          	li	a3,71
    46ba:	4605                	li	a2,1
    46bc:	45a1                	li	a1,8
    46be:	0028                	addi	a0,sp,8
    46c0:	38d000ef          	jal	ra,524c <CAN_Send_Msg>
    46c4:	71040513          	addi	a0,s0,1808
    46c8:	e64ff0ef          	jal	ra,3d2c <delay_us>
    46cc:	0141                	addi	sp,sp,16
    46ce:	b47fb06f          	j	214 <__riscv_restore_0>

000046d2 <CAN_BLDC_POS_CONTROL>:
    46d2:	b1ffb2ef          	jal	t0,1f0 <__riscv_save_0>
    46d6:	4789                	li	a5,2
    46d8:	1141                	addi	sp,sp,-16
    46da:	842a                	mv	s0,a0
    46dc:	06f51e63          	bne	a0,a5,4758 <CAN_BLDC_POS_CONTROL+0x86>
    46e0:	0000c7b7          	lui	a5,0xc
    46e4:	2807a787          	flw	fa5,640(a5) # c280 <strlen+0x7c8>
    46e8:	00f57553          	fadd.s	fa0,fa0,fa5
    46ec:	0000c7b7          	lui	a5,0xc
    46f0:	cc47a787          	flw	fa5,-828(a5) # bcc4 <strlen+0x20c>
    46f4:	0000c7b7          	lui	a5,0xc
    46f8:	0048                	addi	a0,sp,4
    46fa:	10f57553          	fmul.s	fa0,fa0,fa5
    46fe:	2847a787          	flw	fa5,644(a5) # c284 <strlen+0x7cc>
    4702:	0000c7b7          	lui	a5,0xc
    4706:	18f57553          	fdiv.s	fa0,fa0,fa5
    470a:	cb47a787          	flw	fa5,-844(a5) # bcb4 <strlen+0x1fc>
    470e:	10f57553          	fmul.s	fa0,fa0,fa5
    4712:	00a57553          	fadd.s	fa0,fa0,fa0
    4716:	f41ff0ef          	jal	ra,4656 <float_to_bytes>
    471a:	833c                	lhu	a5,6(sp)
    471c:	c602                	sw	zero,12(sp)
    471e:	04c00693          	li	a3,76
    4722:	00879713          	slli	a4,a5,0x8
    4726:	83a1                	srli	a5,a5,0x8
    4728:	8fd9                	or	a5,a5,a4
    472a:	847c                	sh	a5,8(sp)
    472c:	823c                	lhu	a5,4(sp)
    472e:	00879713          	slli	a4,a5,0x8
    4732:	83a1                	srli	a5,a5,0x8
    4734:	8fd9                	or	a5,a5,a4
    4736:	857c                	sh	a5,10(sp)
    4738:	4789                	li	a5,2
    473a:	00f40763          	beq	s0,a5,4748 <CAN_BLDC_POS_CONTROL+0x76>
    473e:	478d                	li	a5,3
    4740:	00f41963          	bne	s0,a5,4752 <CAN_BLDC_POS_CONTROL+0x80>
    4744:	06c00693          	li	a3,108
    4748:	4605                	li	a2,1
    474a:	45a1                	li	a1,8
    474c:	0028                	addi	a0,sp,8
    474e:	2ff000ef          	jal	ra,524c <CAN_Send_Msg>
    4752:	0141                	addi	sp,sp,16
    4754:	ac1fb06f          	j	214 <__riscv_restore_0>
    4758:	478d                	li	a5,3
    475a:	f8f519e3          	bne	a0,a5,46ec <CAN_BLDC_POS_CONTROL+0x1a>
    475e:	0000c7b7          	lui	a5,0xc
    4762:	bf87a787          	flw	fa5,-1032(a5) # bbf8 <strlen+0x140>
    4766:	08a7f553          	fsub.s	fa0,fa5,fa0
    476a:	20a51553          	fneg.s	fa0,fa0
    476e:	bfbd                	j	46ec <CAN_BLDC_POS_CONTROL+0x1a>

00004770 <USART23_CFG>:
    4770:	a67fb2ef          	jal	t0,1d6 <__riscv_save_4>
    4774:	7179                	addi	sp,sp,-48
    4776:	4585                	li	a1,1
    4778:	00060537          	lui	a0,0x60
    477c:	ca02                	sw	zero,20(sp)
    477e:	cc02                	sw	zero,24(sp)
    4780:	ce02                	sw	zero,28(sp)
    4782:	d002                	sw	zero,32(sp)
    4784:	d202                	sw	zero,36(sp)
    4786:	d402                	sw	zero,40(sp)
    4788:	d602                	sw	zero,44(sp)
    478a:	c602                	sw	zero,12(sp)
    478c:	c802                	sw	zero,16(sp)
    478e:	ba7fc0ef          	jal	ra,1334 <RCC_APB1PeriphClockCmd>
    4792:	4585                	li	a1,1
    4794:	4531                	li	a0,12
    4796:	b81fc0ef          	jal	ra,1316 <RCC_APB2PeriphClockCmd>
    479a:	40011437          	lui	s0,0x40011
    479e:	4791                	li	a5,4
    47a0:	498d                	li	s3,3
    47a2:	4961                	li	s2,24
    47a4:	084c                	addi	a1,sp,20
    47a6:	80040513          	addi	a0,s0,-2048 # 40010800 <_eusrstack+0x20008800>
    47aa:	82fc                	sh	a5,20(sp)
    47ac:	cc4e                	sw	s3,24(sp)
    47ae:	ce4a                	sw	s2,28(sp)
    47b0:	fa0fc0ef          	jal	ra,f50 <GPIO_Init>
    47b4:	47a1                	li	a5,8
    47b6:	4491                	li	s1,4
    47b8:	084c                	addi	a1,sp,20
    47ba:	80040513          	addi	a0,s0,-2048
    47be:	82fc                	sh	a5,20(sp)
    47c0:	ce26                	sw	s1,28(sp)
    47c2:	f8efc0ef          	jal	ra,f50 <GPIO_Init>
    47c6:	40000793          	li	a5,1024
    47ca:	084c                	addi	a1,sp,20
    47cc:	c0040513          	addi	a0,s0,-1024
    47d0:	82fc                	sh	a5,20(sp)
    47d2:	cc4e                	sw	s3,24(sp)
    47d4:	ce4a                	sw	s2,28(sp)
    47d6:	f7afc0ef          	jal	ra,f50 <GPIO_Init>
    47da:	6785                	lui	a5,0x1
    47dc:	80078793          	addi	a5,a5,-2048 # 800 <__stack_size>
    47e0:	084c                	addi	a1,sp,20
    47e2:	c0040513          	addi	a0,s0,-1024
    47e6:	82fc                	sh	a5,20(sp)
    47e8:	ce26                	sw	s1,28(sp)
    47ea:	f66fc0ef          	jal	ra,f50 <GPIO_Init>
    47ee:	67f1                	lui	a5,0x1c
    47f0:	400044b7          	lui	s1,0x40004
    47f4:	20078793          	addi	a5,a5,512 # 1c200 <_data_lma+0xf668>
    47f8:	d03e                	sw	a5,32(sp)
    47fa:	100c                	addi	a1,sp,32
    47fc:	000c07b7          	lui	a5,0xc0
    4800:	40048513          	addi	a0,s1,1024 # 40004400 <_eusrstack+0x1fffc400>
    4804:	d43e                	sw	a5,40(sp)
    4806:	d202                	sw	zero,36(sp)
    4808:	02011623          	sh	zero,44(sp)
    480c:	c93fc0ef          	jal	ra,149e <USART_Init>
    4810:	4605                	li	a2,1
    4812:	40048513          	addi	a0,s1,1024
    4816:	52500593          	li	a1,1317
    481a:	d29fc0ef          	jal	ra,1542 <USART_ITConfig>
    481e:	40005437          	lui	s0,0x40005
    4822:	100c                	addi	a1,sp,32
    4824:	80040513          	addi	a0,s0,-2048 # 40004800 <_eusrstack+0x1fffc800>
    4828:	c77fc0ef          	jal	ra,149e <USART_Init>
    482c:	4605                	li	a2,1
    482e:	52500593          	li	a1,1317
    4832:	80040513          	addi	a0,s0,-2048
    4836:	d0dfc0ef          	jal	ra,1542 <USART_ITConfig>
    483a:	13600793          	li	a5,310
    483e:	4905                	li	s2,1
    4840:	867c                	sh	a5,12(sp)
    4842:	0068                	addi	a0,sp,12
    4844:	4785                	li	a5,1
    4846:	875c                	sb	a5,14(sp)
    4848:	c84a                	sw	s2,16(sp)
    484a:	8ddfc0ef          	jal	ra,1126 <NVIC_Init>
    484e:	13700793          	li	a5,311
    4852:	0068                	addi	a0,sp,12
    4854:	867c                	sh	a5,12(sp)
    4856:	01210723          	sb	s2,14(sp)
    485a:	c84a                	sw	s2,16(sp)
    485c:	8cbfc0ef          	jal	ra,1126 <NVIC_Init>
    4860:	40048513          	addi	a0,s1,1024
    4864:	4585                	li	a1,1
    4866:	cc7fc0ef          	jal	ra,152c <USART_Cmd>
    486a:	4585                	li	a1,1
    486c:	80040513          	addi	a0,s0,-2048
    4870:	cbdfc0ef          	jal	ra,152c <USART_Cmd>
    4874:	6145                	addi	sp,sp,48
    4876:	995fb06f          	j	20a <__riscv_restore_4>

0000487a <USART3_IRQHandler>:
    487a:	711d                	addi	sp,sp,-96
    487c:	cea2                	sw	s0,92(sp)
    487e:	40005437          	lui	s0,0x40005
    4882:	52500593          	li	a1,1317
    4886:	80040513          	addi	a0,s0,-2048 # 40004800 <_eusrstack+0x1fffc800>
    488a:	e682                	fsw	ft0,76(sp)
    488c:	e486                	fsw	ft1,72(sp)
    488e:	e28a                	fsw	ft2,68(sp)
    4890:	e08e                	fsw	ft3,64(sp)
    4892:	fe12                	fsw	ft4,60(sp)
    4894:	fc16                	fsw	ft5,56(sp)
    4896:	fa1a                	fsw	ft6,52(sp)
    4898:	f81e                	fsw	ft7,48(sp)
    489a:	f62a                	fsw	fa0,44(sp)
    489c:	f42e                	fsw	fa1,40(sp)
    489e:	f232                	fsw	fa2,36(sp)
    48a0:	f036                	fsw	fa3,32(sp)
    48a2:	ee3a                	fsw	fa4,28(sp)
    48a4:	ec3e                	fsw	fa5,24(sp)
    48a6:	ea42                	fsw	fa6,20(sp)
    48a8:	e846                	fsw	fa7,16(sp)
    48aa:	e672                	fsw	ft8,12(sp)
    48ac:	e476                	fsw	ft9,8(sp)
    48ae:	e27a                	fsw	ft10,4(sp)
    48b0:	e07e                	fsw	ft11,0(sp)
    48b2:	cf3fc0ef          	jal	ra,15a4 <USART_GetITStatus>
    48b6:	c909                	beqz	a0,48c8 <USART3_IRQHandler+0x4e>
    48b8:	80040513          	addi	a0,s0,-2048
    48bc:	cd7fc0ef          	jal	ra,1592 <USART_ReceiveData>
    48c0:	0ff57513          	andi	a0,a0,255
    48c4:	96a18223          	sb	a0,-1692(gp) # 200001e4 <lcd_cmd>
    48c8:	4476                	lw	s0,92(sp)
    48ca:	6036                	flw	ft0,76(sp)
    48cc:	60a6                	flw	ft1,72(sp)
    48ce:	6116                	flw	ft2,68(sp)
    48d0:	6186                	flw	ft3,64(sp)
    48d2:	7272                	flw	ft4,60(sp)
    48d4:	72e2                	flw	ft5,56(sp)
    48d6:	7352                	flw	ft6,52(sp)
    48d8:	73c2                	flw	ft7,48(sp)
    48da:	7532                	flw	fa0,44(sp)
    48dc:	75a2                	flw	fa1,40(sp)
    48de:	7612                	flw	fa2,36(sp)
    48e0:	7682                	flw	fa3,32(sp)
    48e2:	6772                	flw	fa4,28(sp)
    48e4:	67e2                	flw	fa5,24(sp)
    48e6:	6852                	flw	fa6,20(sp)
    48e8:	68c2                	flw	fa7,16(sp)
    48ea:	6e32                	flw	ft8,12(sp)
    48ec:	6ea2                	flw	ft9,8(sp)
    48ee:	6f12                	flw	ft10,4(sp)
    48f0:	6f82                	flw	ft11,0(sp)
    48f2:	6125                	addi	sp,sp,96
    48f4:	30200073          	mret

000048f8 <USART2_IRQHandler>:
    48f8:	711d                	addi	sp,sp,-96
    48fa:	cea2                	sw	s0,92(sp)
    48fc:	40004437          	lui	s0,0x40004
    4900:	52500593          	li	a1,1317
    4904:	40040513          	addi	a0,s0,1024 # 40004400 <_eusrstack+0x1fffc400>
    4908:	e682                	fsw	ft0,76(sp)
    490a:	e486                	fsw	ft1,72(sp)
    490c:	e28a                	fsw	ft2,68(sp)
    490e:	e08e                	fsw	ft3,64(sp)
    4910:	fe12                	fsw	ft4,60(sp)
    4912:	fc16                	fsw	ft5,56(sp)
    4914:	fa1a                	fsw	ft6,52(sp)
    4916:	f81e                	fsw	ft7,48(sp)
    4918:	f62a                	fsw	fa0,44(sp)
    491a:	f42e                	fsw	fa1,40(sp)
    491c:	f232                	fsw	fa2,36(sp)
    491e:	f036                	fsw	fa3,32(sp)
    4920:	ee3a                	fsw	fa4,28(sp)
    4922:	ec3e                	fsw	fa5,24(sp)
    4924:	ea42                	fsw	fa6,20(sp)
    4926:	e846                	fsw	fa7,16(sp)
    4928:	e672                	fsw	ft8,12(sp)
    492a:	e476                	fsw	ft9,8(sp)
    492c:	e27a                	fsw	ft10,4(sp)
    492e:	e07e                	fsw	ft11,0(sp)
    4930:	c75fc0ef          	jal	ra,15a4 <USART_GetITStatus>
    4934:	c91d                	beqz	a0,496a <USART2_IRQHandler+0x72>
    4936:	40040513          	addi	a0,s0,1024
    493a:	c59fc0ef          	jal	ra,1592 <USART_ReceiveData>
    493e:	96018693          	addi	a3,gp,-1696 # 200001e0 <frame_ready>
    4942:	429c                	lw	a5,0(a3)
    4944:	e39d                	bnez	a5,496a <USART2_IRQHandler+0x72>
    4946:	96818793          	addi	a5,gp,-1688 # 200001e8 <rx_len_uart2>
    494a:	4390                	lw	a2,0(a5)
    494c:	aa018713          	addi	a4,gp,-1376 # 20000320 <rx_buffer_uart2>
    4950:	9732                	add	a4,a4,a2
    4952:	0ff57513          	andi	a0,a0,255
    4956:	a308                	sb	a0,0(a4)
    4958:	4398                	lw	a4,0(a5)
    495a:	0705                	addi	a4,a4,1
    495c:	c398                	sw	a4,0(a5)
    495e:	4398                	lw	a4,0(a5)
    4960:	47b1                	li	a5,12
    4962:	00e7d463          	bge	a5,a4,496a <USART2_IRQHandler+0x72>
    4966:	4785                	li	a5,1
    4968:	c29c                	sw	a5,0(a3)
    496a:	4476                	lw	s0,92(sp)
    496c:	6036                	flw	ft0,76(sp)
    496e:	60a6                	flw	ft1,72(sp)
    4970:	6116                	flw	ft2,68(sp)
    4972:	6186                	flw	ft3,64(sp)
    4974:	7272                	flw	ft4,60(sp)
    4976:	72e2                	flw	ft5,56(sp)
    4978:	7352                	flw	ft6,52(sp)
    497a:	73c2                	flw	ft7,48(sp)
    497c:	7532                	flw	fa0,44(sp)
    497e:	75a2                	flw	fa1,40(sp)
    4980:	7612                	flw	fa2,36(sp)
    4982:	7682                	flw	fa3,32(sp)
    4984:	6772                	flw	fa4,28(sp)
    4986:	67e2                	flw	fa5,24(sp)
    4988:	6852                	flw	fa6,20(sp)
    498a:	68c2                	flw	fa7,16(sp)
    498c:	6e32                	flw	ft8,12(sp)
    498e:	6ea2                	flw	ft9,8(sp)
    4990:	6f12                	flw	ft10,4(sp)
    4992:	6f82                	flw	ft11,0(sp)
    4994:	6125                	addi	sp,sp,96
    4996:	30200073          	mret

0000499a <USARTx_CFG>:
    499a:	857fb2ef          	jal	t0,1f0 <__riscv_save_0>
    499e:	84aa                	mv	s1,a0
    49a0:	6511                	lui	a0,0x4
    49a2:	7179                	addi	sp,sp,-48
    49a4:	4585                	li	a1,1
    49a6:	0531                	addi	a0,a0,12
    49a8:	ca02                	sw	zero,20(sp)
    49aa:	cc02                	sw	zero,24(sp)
    49ac:	ce02                	sw	zero,28(sp)
    49ae:	d002                	sw	zero,32(sp)
    49b0:	d202                	sw	zero,36(sp)
    49b2:	d402                	sw	zero,40(sp)
    49b4:	d602                	sw	zero,44(sp)
    49b6:	c602                	sw	zero,12(sp)
    49b8:	c802                	sw	zero,16(sp)
    49ba:	95dfc0ef          	jal	ra,1316 <RCC_APB2PeriphClockCmd>
    49be:	20000793          	li	a5,512
    49c2:	82fc                	sh	a5,20(sp)
    49c4:	40011437          	lui	s0,0x40011
    49c8:	478d                	li	a5,3
    49ca:	cc3e                	sw	a5,24(sp)
    49cc:	084c                	addi	a1,sp,20
    49ce:	47e1                	li	a5,24
    49d0:	80040513          	addi	a0,s0,-2048 # 40010800 <_eusrstack+0x20008800>
    49d4:	ce3e                	sw	a5,28(sp)
    49d6:	d7afc0ef          	jal	ra,f50 <GPIO_Init>
    49da:	40000793          	li	a5,1024
    49de:	82fc                	sh	a5,20(sp)
    49e0:	084c                	addi	a1,sp,20
    49e2:	4791                	li	a5,4
    49e4:	80040513          	addi	a0,s0,-2048
    49e8:	ce3e                	sw	a5,28(sp)
    49ea:	40014437          	lui	s0,0x40014
    49ee:	d62fc0ef          	jal	ra,f50 <GPIO_Init>
    49f2:	000c07b7          	lui	a5,0xc0
    49f6:	100c                	addi	a1,sp,32
    49f8:	80040513          	addi	a0,s0,-2048 # 40013800 <_eusrstack+0x2000b800>
    49fc:	d43e                	sw	a5,40(sp)
    49fe:	d026                	sw	s1,32(sp)
    4a00:	d202                	sw	zero,36(sp)
    4a02:	02011623          	sh	zero,44(sp)
    4a06:	a99fc0ef          	jal	ra,149e <USART_Init>
    4a0a:	4605                	li	a2,1
    4a0c:	42400593          	li	a1,1060
    4a10:	80040513          	addi	a0,s0,-2048
    4a14:	b2ffc0ef          	jal	ra,1542 <USART_ITConfig>
    4a18:	13500793          	li	a5,309
    4a1c:	867c                	sh	a5,12(sp)
    4a1e:	4785                	li	a5,1
    4a20:	875c                	sb	a5,14(sp)
    4a22:	0068                	addi	a0,sp,12
    4a24:	4785                	li	a5,1
    4a26:	c83e                	sw	a5,16(sp)
    4a28:	efefc0ef          	jal	ra,1126 <NVIC_Init>
    4a2c:	4585                	li	a1,1
    4a2e:	80040513          	addi	a0,s0,-2048
    4a32:	afbfc0ef          	jal	ra,152c <USART_Cmd>
    4a36:	6145                	addi	sp,sp,48
    4a38:	fdcfb06f          	j	214 <__riscv_restore_0>

00004a3c <DMA_INIT>:
    4a3c:	fb4fb2ef          	jal	t0,1f0 <__riscv_save_0>
    4a40:	7139                	addi	sp,sp,-64
    4a42:	02c00613          	li	a2,44
    4a46:	4581                	li	a1,0
    4a48:	0848                	addi	a0,sp,20
    4a4a:	fd6fb0ef          	jal	ra,220 <memset>
    4a4e:	4585                	li	a1,1
    4a50:	4505                	li	a0,1
    4a52:	40020437          	lui	s0,0x40020
    4a56:	c602                	sw	zero,12(sp)
    4a58:	c802                	sw	zero,16(sp)
    4a5a:	89ffc0ef          	jal	ra,12f8 <RCC_AHBPeriphClockCmd>
    4a5e:	05840513          	addi	a0,s0,88 # 40020058 <_eusrstack+0x20018058>
    4a62:	a58fc0ef          	jal	ra,cba <DMA_DeInit>
    4a66:	400144b7          	lui	s1,0x40014
    4a6a:	678d                	lui	a5,0x3
    4a6c:	dc3e                	sw	a5,56(sp)
    4a6e:	80448793          	addi	a5,s1,-2044 # 40013804 <_eusrstack+0x2000b804>
    4a72:	ca3e                	sw	a5,20(sp)
    4a74:	08000713          	li	a4,128
    4a78:	add18793          	addi	a5,gp,-1315 # 2000035d <USART_DMA_CTRL+0x1>
    4a7c:	084c                	addi	a1,sp,20
    4a7e:	05840513          	addi	a0,s0,88
    4a82:	d43a                	sw	a4,40(sp)
    4a84:	d03a                	sw	a4,32(sp)
    4a86:	cc3e                	sw	a5,24(sp)
    4a88:	d202                	sw	zero,36(sp)
    4a8a:	d602                	sw	zero,44(sp)
    4a8c:	d802                	sw	zero,48(sp)
    4a8e:	da02                	sw	zero,52(sp)
    4a90:	de02                	sw	zero,60(sp)
    4a92:	ce02                	sw	zero,28(sp)
    4a94:	b92fc0ef          	jal	ra,e26 <DMA_Init>
    4a98:	4605                	li	a2,1
    4a9a:	4589                	li	a1,2
    4a9c:	05840513          	addi	a0,s0,88
    4aa0:	bd2fc0ef          	jal	ra,e72 <DMA_ITConfig>
    4aa4:	11f00793          	li	a5,287
    4aa8:	867c                	sh	a5,12(sp)
    4aaa:	4785                	li	a5,1
    4aac:	875c                	sb	a5,14(sp)
    4aae:	0068                	addi	a0,sp,12
    4ab0:	4785                	li	a5,1
    4ab2:	c83e                	sw	a5,16(sp)
    4ab4:	e72fc0ef          	jal	ra,1126 <NVIC_Init>
    4ab8:	05840513          	addi	a0,s0,88
    4abc:	4585                	li	a1,1
    4abe:	ba0fc0ef          	jal	ra,e5e <DMA_Cmd>
    4ac2:	4605                	li	a2,1
    4ac4:	04000593          	li	a1,64
    4ac8:	80048513          	addi	a0,s1,-2048
    4acc:	aadfc0ef          	jal	ra,1578 <USART_DMACmd>
    4ad0:	6121                	addi	sp,sp,64
    4ad2:	f42fb06f          	j	214 <__riscv_restore_0>

00004ad6 <ring_buffer_push_huge>:
    4ad6:	f00fb2ef          	jal	t0,1d6 <__riscv_save_4>
    4ada:	c6018793          	addi	a5,gp,-928 # 200004e0 <ring_buffer>
    4ade:	4047d703          	lhu	a4,1028(a5) # 3404 <_write+0x14>
    4ae2:	40000793          	li	a5,1024
    4ae6:	8aaa                	mv	s5,a0
    4ae8:	8f99                	sub	a5,a5,a4
    4aea:	843e                	mv	s0,a5
    4aec:	07c2                	slli	a5,a5,0x10
    4aee:	83c1                	srli	a5,a5,0x10
    4af0:	c6018913          	addi	s2,gp,-928 # 200004e0 <ring_buffer>
    4af4:	00f5f363          	bgeu	a1,a5,4afa <ring_buffer_push_huge+0x24>
    4af8:	842e                	mv	s0,a1
    4afa:	40095483          	lhu	s1,1024(s2)
    4afe:	40000993          	li	s3,1024
    4b02:	0442                	slli	s0,s0,0x10
    4b04:	04c2                	slli	s1,s1,0x10
    4b06:	80c1                	srli	s1,s1,0x10
    4b08:	409989b3          	sub	s3,s3,s1
    4b0c:	09c2                	slli	s3,s3,0x10
    4b0e:	8041                	srli	s0,s0,0x10
    4b10:	0109d993          	srli	s3,s3,0x10
    4b14:	0289e963          	bltu	s3,s0,4b46 <ring_buffer_push_huge+0x70>
    4b18:	40095503          	lhu	a0,1024(s2)
    4b1c:	8622                	mv	a2,s0
    4b1e:	85d6                	mv	a1,s5
    4b20:	954a                	add	a0,a0,s2
    4b22:	6e5060ef          	jal	ra,ba06 <memcpy>
    4b26:	40095783          	lhu	a5,1024(s2)
    4b2a:	97a2                	add	a5,a5,s0
    4b2c:	07c2                	slli	a5,a5,0x10
    4b2e:	83c1                	srli	a5,a5,0x10
    4b30:	40f91023          	sh	a5,1024(s2)
    4b34:	40495783          	lhu	a5,1028(s2)
    4b38:	943e                	add	s0,s0,a5
    4b3a:	0442                	slli	s0,s0,0x10
    4b3c:	8041                	srli	s0,s0,0x10
    4b3e:	40891223          	sh	s0,1028(s2)
    4b42:	ec8fb06f          	j	20a <__riscv_restore_4>
    4b46:	40095503          	lhu	a0,1024(s2)
    4b4a:	c0048493          	addi	s1,s1,-1024
    4b4e:	94a2                	add	s1,s1,s0
    4b50:	864e                	mv	a2,s3
    4b52:	85d6                	mv	a1,s5
    4b54:	04c2                	slli	s1,s1,0x10
    4b56:	954a                	add	a0,a0,s2
    4b58:	6af060ef          	jal	ra,ba06 <memcpy>
    4b5c:	80c1                	srli	s1,s1,0x10
    4b5e:	8626                	mv	a2,s1
    4b60:	013a85b3          	add	a1,s5,s3
    4b64:	c6018513          	addi	a0,gp,-928 # 200004e0 <ring_buffer>
    4b68:	69f060ef          	jal	ra,ba06 <memcpy>
    4b6c:	40991023          	sh	s1,1024(s2)
    4b70:	b7d1                	j	4b34 <ring_buffer_push_huge+0x5e>

00004b72 <ring_buffer_pop>:
    4b72:	c6018713          	addi	a4,gp,-928 # 200004e0 <ring_buffer>
    4b76:	40275683          	lhu	a3,1026(a4)
    4b7a:	c6018793          	addi	a5,gp,-928 # 200004e0 <ring_buffer>
    4b7e:	96ba                	add	a3,a3,a4
    4b80:	2288                	lbu	a0,0(a3)
    4b82:	40275683          	lhu	a3,1026(a4)
    4b86:	0685                	addi	a3,a3,1
    4b88:	06c2                	slli	a3,a3,0x10
    4b8a:	82c1                	srli	a3,a3,0x10
    4b8c:	40d71123          	sh	a3,1026(a4)
    4b90:	40275703          	lhu	a4,1026(a4)
    4b94:	3ff00693          	li	a3,1023
    4b98:	00e6f463          	bgeu	a3,a4,4ba0 <ring_buffer_pop+0x2e>
    4b9c:	40079123          	sh	zero,1026(a5)
    4ba0:	4047d703          	lhu	a4,1028(a5)
    4ba4:	177d                	addi	a4,a4,-1
    4ba6:	0742                	slli	a4,a4,0x10
    4ba8:	8341                	srli	a4,a4,0x10
    4baa:	40e79223          	sh	a4,1028(a5)
    4bae:	8082                	ret

00004bb0 <USART1_IRQHandler>:
    4bb0:	7159                	addi	sp,sp,-112
    4bb2:	d0ce                	sw	s3,96(sp)
    4bb4:	400149b7          	lui	s3,0x40014
    4bb8:	42400593          	li	a1,1060
    4bbc:	80098513          	addi	a0,s3,-2048 # 40013800 <_eusrstack+0x2000b800>
    4bc0:	d6a2                	sw	s0,108(sp)
    4bc2:	d4a6                	sw	s1,104(sp)
    4bc4:	d2ca                	sw	s2,100(sp)
    4bc6:	ced2                	sw	s4,92(sp)
    4bc8:	e682                	fsw	ft0,76(sp)
    4bca:	e486                	fsw	ft1,72(sp)
    4bcc:	e28a                	fsw	ft2,68(sp)
    4bce:	e08e                	fsw	ft3,64(sp)
    4bd0:	fe12                	fsw	ft4,60(sp)
    4bd2:	fc16                	fsw	ft5,56(sp)
    4bd4:	fa1a                	fsw	ft6,52(sp)
    4bd6:	f81e                	fsw	ft7,48(sp)
    4bd8:	f62a                	fsw	fa0,44(sp)
    4bda:	f42e                	fsw	fa1,40(sp)
    4bdc:	f232                	fsw	fa2,36(sp)
    4bde:	f036                	fsw	fa3,32(sp)
    4be0:	ee3a                	fsw	fa4,28(sp)
    4be2:	ec3e                	fsw	fa5,24(sp)
    4be4:	ea42                	fsw	fa6,20(sp)
    4be6:	e846                	fsw	fa7,16(sp)
    4be8:	e672                	fsw	ft8,12(sp)
    4bea:	e476                	fsw	ft9,8(sp)
    4bec:	e27a                	fsw	ft10,4(sp)
    4bee:	e07e                	fsw	ft11,0(sp)
    4bf0:	9b5fc0ef          	jal	ra,15a4 <USART_GetITStatus>
    4bf4:	c135                	beqz	a0,4c58 <USART1_IRQHandler+0xa8>
    4bf6:	adc18493          	addi	s1,gp,-1316 # 2000035c <USART_DMA_CTRL>
    4bfa:	40020937          	lui	s2,0x40020
    4bfe:	05c92a03          	lw	s4,92(s2) # 4002005c <_eusrstack+0x2001805c>
    4c02:	2080                	lbu	s0,0(s1)
    4c04:	05890913          	addi	s2,s2,88
    4c08:	4581                	li	a1,0
    4c0a:	0ff47413          	andi	s0,s0,255
    4c0e:	00143793          	seqz	a5,s0
    4c12:	854a                	mv	a0,s2
    4c14:	a09c                	sb	a5,0(s1)
    4c16:	a48fc0ef          	jal	ra,e5e <DMA_Cmd>
    4c1a:	08000593          	li	a1,128
    4c1e:	854a                	mv	a0,s2
    4c20:	a64fc0ef          	jal	ra,e84 <DMA_SetCurrDataCounter>
    4c24:	209c                	lbu	a5,0(s1)
    4c26:	4585                	li	a1,1
    4c28:	854a                	mv	a0,s2
    4c2a:	079e                	slli	a5,a5,0x7
    4c2c:	0785                	addi	a5,a5,1
    4c2e:	97a6                	add	a5,a5,s1
    4c30:	00f92623          	sw	a5,12(s2)
    4c34:	a2afc0ef          	jal	ra,e5e <DMA_Cmd>
    4c38:	80098513          	addi	a0,s3,-2048
    4c3c:	957fc0ef          	jal	ra,1592 <USART_ReceiveData>
    4c40:	08000593          	li	a1,128
    4c44:	414585b3          	sub	a1,a1,s4
    4c48:	00741513          	slli	a0,s0,0x7
    4c4c:	0505                	addi	a0,a0,1
    4c4e:	05c2                	slli	a1,a1,0x10
    4c50:	81c1                	srli	a1,a1,0x10
    4c52:	9526                	add	a0,a0,s1
    4c54:	e83ff0ef          	jal	ra,4ad6 <ring_buffer_push_huge>
    4c58:	5436                	lw	s0,108(sp)
    4c5a:	54a6                	lw	s1,104(sp)
    4c5c:	5916                	lw	s2,100(sp)
    4c5e:	5986                	lw	s3,96(sp)
    4c60:	4a76                	lw	s4,92(sp)
    4c62:	6036                	flw	ft0,76(sp)
    4c64:	60a6                	flw	ft1,72(sp)
    4c66:	6116                	flw	ft2,68(sp)
    4c68:	6186                	flw	ft3,64(sp)
    4c6a:	7272                	flw	ft4,60(sp)
    4c6c:	72e2                	flw	ft5,56(sp)
    4c6e:	7352                	flw	ft6,52(sp)
    4c70:	73c2                	flw	ft7,48(sp)
    4c72:	7532                	flw	fa0,44(sp)
    4c74:	75a2                	flw	fa1,40(sp)
    4c76:	7612                	flw	fa2,36(sp)
    4c78:	7682                	flw	fa3,32(sp)
    4c7a:	6772                	flw	fa4,28(sp)
    4c7c:	67e2                	flw	fa5,24(sp)
    4c7e:	6852                	flw	fa6,20(sp)
    4c80:	68c2                	flw	fa7,16(sp)
    4c82:	6e32                	flw	ft8,12(sp)
    4c84:	6ea2                	flw	ft9,8(sp)
    4c86:	6f12                	flw	ft10,4(sp)
    4c88:	6f82                	flw	ft11,0(sp)
    4c8a:	6165                	addi	sp,sp,112
    4c8c:	30200073          	mret

00004c90 <DMA1_Channel5_IRQHandler>:
    4c90:	711d                	addi	sp,sp,-96
    4c92:	cca6                	sw	s1,88(sp)
    4c94:	adc18493          	addi	s1,gp,-1316 # 2000035c <USART_DMA_CTRL>
    4c98:	cea2                	sw	s0,92(sp)
    4c9a:	2080                	lbu	s0,0(s1)
    4c9c:	caca                	sw	s2,84(sp)
    4c9e:	40020937          	lui	s2,0x40020
    4ca2:	0ff47413          	andi	s0,s0,255
    4ca6:	00143793          	seqz	a5,s0
    4caa:	05890513          	addi	a0,s2,88 # 40020058 <_eusrstack+0x20018058>
    4cae:	4581                	li	a1,0
    4cb0:	e682                	fsw	ft0,76(sp)
    4cb2:	e486                	fsw	ft1,72(sp)
    4cb4:	e28a                	fsw	ft2,68(sp)
    4cb6:	e08e                	fsw	ft3,64(sp)
    4cb8:	fe12                	fsw	ft4,60(sp)
    4cba:	fc16                	fsw	ft5,56(sp)
    4cbc:	fa1a                	fsw	ft6,52(sp)
    4cbe:	f81e                	fsw	ft7,48(sp)
    4cc0:	f62a                	fsw	fa0,44(sp)
    4cc2:	f42e                	fsw	fa1,40(sp)
    4cc4:	f232                	fsw	fa2,36(sp)
    4cc6:	f036                	fsw	fa3,32(sp)
    4cc8:	ee3a                	fsw	fa4,28(sp)
    4cca:	ec3e                	fsw	fa5,24(sp)
    4ccc:	ea42                	fsw	fa6,20(sp)
    4cce:	e846                	fsw	fa7,16(sp)
    4cd0:	e672                	fsw	ft8,12(sp)
    4cd2:	e476                	fsw	ft9,8(sp)
    4cd4:	e27a                	fsw	ft10,4(sp)
    4cd6:	e07e                	fsw	ft11,0(sp)
    4cd8:	a09c                	sb	a5,0(s1)
    4cda:	984fc0ef          	jal	ra,e5e <DMA_Cmd>
    4cde:	05890513          	addi	a0,s2,88
    4ce2:	08000593          	li	a1,128
    4ce6:	99efc0ef          	jal	ra,e84 <DMA_SetCurrDataCounter>
    4cea:	209c                	lbu	a5,0(s1)
    4cec:	05890513          	addi	a0,s2,88
    4cf0:	4585                	li	a1,1
    4cf2:	079e                	slli	a5,a5,0x7
    4cf4:	0785                	addi	a5,a5,1
    4cf6:	97a6                	add	a5,a5,s1
    4cf8:	c55c                	sw	a5,12(a0)
    4cfa:	964fc0ef          	jal	ra,e5e <DMA_Cmd>
    4cfe:	00741513          	slli	a0,s0,0x7
    4d02:	0505                	addi	a0,a0,1
    4d04:	9526                	add	a0,a0,s1
    4d06:	08000593          	li	a1,128
    4d0a:	dcdff0ef          	jal	ra,4ad6 <ring_buffer_push_huge>
    4d0e:	00020537          	lui	a0,0x20
    4d12:	9a2fc0ef          	jal	ra,eb4 <DMA_ClearITPendingBit>
    4d16:	4476                	lw	s0,92(sp)
    4d18:	44e6                	lw	s1,88(sp)
    4d1a:	4956                	lw	s2,84(sp)
    4d1c:	6036                	flw	ft0,76(sp)
    4d1e:	60a6                	flw	ft1,72(sp)
    4d20:	6116                	flw	ft2,68(sp)
    4d22:	6186                	flw	ft3,64(sp)
    4d24:	7272                	flw	ft4,60(sp)
    4d26:	72e2                	flw	ft5,56(sp)
    4d28:	7352                	flw	ft6,52(sp)
    4d2a:	73c2                	flw	ft7,48(sp)
    4d2c:	7532                	flw	fa0,44(sp)
    4d2e:	75a2                	flw	fa1,40(sp)
    4d30:	7612                	flw	fa2,36(sp)
    4d32:	7682                	flw	fa3,32(sp)
    4d34:	6772                	flw	fa4,28(sp)
    4d36:	67e2                	flw	fa5,24(sp)
    4d38:	6852                	flw	fa6,20(sp)
    4d3a:	68c2                	flw	fa7,16(sp)
    4d3c:	6e32                	flw	ft8,12(sp)
    4d3e:	6ea2                	flw	ft9,8(sp)
    4d40:	6f12                	flw	ft10,4(sp)
    4d42:	6f82                	flw	ft11,0(sp)
    4d44:	6125                	addi	sp,sp,96
    4d46:	30200073          	mret

00004d4a <UART_SendBytes>:
    4d4a:	c1a9                	beqz	a1,4d8c <UART_SendBytes+0x42>
    4d4c:	c8afb2ef          	jal	t0,1d6 <__riscv_save_4>
    4d50:	842a                	mv	s0,a0
    4d52:	4505                	li	a0,1
    4d54:	ce11                	beqz	a2,4d70 <UART_SendBytes+0x26>
    4d56:	84b2                	mv	s1,a2
    4d58:	89ae                	mv	s3,a1
    4d5a:	4901                	li	s2,0
    4d5c:	01091793          	slli	a5,s2,0x10
    4d60:	83c1                	srli	a5,a5,0x10
    4d62:	0097e963          	bltu	a5,s1,4d74 <UART_SendBytes+0x2a>
    4d66:	201e                	lhu	a5,0(s0)
    4d68:	0407f793          	andi	a5,a5,64
    4d6c:	dfed                	beqz	a5,4d66 <UART_SendBytes+0x1c>
    4d6e:	4501                	li	a0,0
    4d70:	c9afb06f          	j	20a <__riscv_restore_4>
    4d74:	201e                	lhu	a5,0(s0)
    4d76:	0807f793          	andi	a5,a5,128
    4d7a:	dfed                	beqz	a5,4d74 <UART_SendBytes+0x2a>
    4d7c:	012987b3          	add	a5,s3,s2
    4d80:	238c                	lbu	a1,0(a5)
    4d82:	8522                	mv	a0,s0
    4d84:	0905                	addi	s2,s2,1
    4d86:	805fc0ef          	jal	ra,158a <USART_SendData>
    4d8a:	bfc9                	j	4d5c <UART_SendBytes+0x12>
    4d8c:	4505                	li	a0,1
    4d8e:	8082                	ret

00004d90 <TIM1_UP_IRQHandler>:
    4d90:	40013537          	lui	a0,0x40013
    4d94:	715d                	addi	sp,sp,-80
    4d96:	4585                	li	a1,1
    4d98:	c0050513          	addi	a0,a0,-1024 # 40012c00 <_eusrstack+0x2000ac00>
    4d9c:	e682                	fsw	ft0,76(sp)
    4d9e:	e486                	fsw	ft1,72(sp)
    4da0:	e28a                	fsw	ft2,68(sp)
    4da2:	e08e                	fsw	ft3,64(sp)
    4da4:	fe12                	fsw	ft4,60(sp)
    4da6:	fc16                	fsw	ft5,56(sp)
    4da8:	fa1a                	fsw	ft6,52(sp)
    4daa:	f81e                	fsw	ft7,48(sp)
    4dac:	f62a                	fsw	fa0,44(sp)
    4dae:	f42e                	fsw	fa1,40(sp)
    4db0:	f232                	fsw	fa2,36(sp)
    4db2:	f036                	fsw	fa3,32(sp)
    4db4:	ee3a                	fsw	fa4,28(sp)
    4db6:	ec3e                	fsw	fa5,24(sp)
    4db8:	ea42                	fsw	fa6,20(sp)
    4dba:	e846                	fsw	fa7,16(sp)
    4dbc:	e672                	fsw	ft8,12(sp)
    4dbe:	e476                	fsw	ft9,8(sp)
    4dc0:	e27a                	fsw	ft10,4(sp)
    4dc2:	e07e                	fsw	ft11,0(sp)
    4dc4:	eb6fc0ef          	jal	ra,147a <TIM_GetITStatus>
    4dc8:	4785                	li	a5,1
    4dca:	00f51763          	bne	a0,a5,4dd8 <TIM1_UP_IRQHandler+0x48>
    4dce:	97018793          	addi	a5,gp,-1680 # 200001f0 <time_125us>
    4dd2:	4398                	lw	a4,0(a5)
    4dd4:	0705                	addi	a4,a4,1
    4dd6:	c398                	sw	a4,0(a5)
    4dd8:	40013537          	lui	a0,0x40013
    4ddc:	4585                	li	a1,1
    4dde:	c0050513          	addi	a0,a0,-1024 # 40012c00 <_eusrstack+0x2000ac00>
    4de2:	eb0fc0ef          	jal	ra,1492 <TIM_ClearITPendingBit>
    4de6:	6036                	flw	ft0,76(sp)
    4de8:	60a6                	flw	ft1,72(sp)
    4dea:	6116                	flw	ft2,68(sp)
    4dec:	6186                	flw	ft3,64(sp)
    4dee:	7272                	flw	ft4,60(sp)
    4df0:	72e2                	flw	ft5,56(sp)
    4df2:	7352                	flw	ft6,52(sp)
    4df4:	73c2                	flw	ft7,48(sp)
    4df6:	7532                	flw	fa0,44(sp)
    4df8:	75a2                	flw	fa1,40(sp)
    4dfa:	7612                	flw	fa2,36(sp)
    4dfc:	7682                	flw	fa3,32(sp)
    4dfe:	6772                	flw	fa4,28(sp)
    4e00:	67e2                	flw	fa5,24(sp)
    4e02:	6852                	flw	fa6,20(sp)
    4e04:	68c2                	flw	fa7,16(sp)
    4e06:	6e32                	flw	ft8,12(sp)
    4e08:	6ea2                	flw	ft9,8(sp)
    4e0a:	6f12                	flw	ft10,4(sp)
    4e0c:	6f82                	flw	ft11,0(sp)
    4e0e:	6161                	addi	sp,sp,80
    4e10:	30200073          	mret

00004e14 <TIM1_INT_Init>:
    4e14:	bdcfb2ef          	jal	t0,1f0 <__riscv_save_0>
    4e18:	84aa                	mv	s1,a0
    4e1a:	6505                	lui	a0,0x1
    4e1c:	1101                	addi	sp,sp,-32
    4e1e:	842e                	mv	s0,a1
    4e20:	80050513          	addi	a0,a0,-2048 # 800 <__stack_size>
    4e24:	4585                	li	a1,1
    4e26:	c602                	sw	zero,12(sp)
    4e28:	c802                	sw	zero,16(sp)
    4e2a:	ca02                	sw	zero,20(sp)
    4e2c:	cc02                	sw	zero,24(sp)
    4e2e:	00011e23          	sh	zero,28(sp)
    4e32:	ce4fc0ef          	jal	ra,1316 <RCC_APB2PeriphClockCmd>
    4e36:	82e0                	sh	s0,20(sp)
    4e38:	40013437          	lui	s0,0x40013
    4e3c:	03200793          	li	a5,50
    4e40:	084c                	addi	a1,sp,20
    4e42:	c0040513          	addi	a0,s0,-1024 # 40012c00 <_eusrstack+0x2000ac00>
    4e46:	00f10e23          	sb	a5,28(sp)
    4e4a:	84e4                	sh	s1,24(sp)
    4e4c:	00011d23          	sh	zero,26(sp)
    4e50:	00011b23          	sh	zero,22(sp)
    4e54:	cfefc0ef          	jal	ra,1352 <TIM_TimeBaseInit>
    4e58:	4585                	li	a1,1
    4e5a:	c0040513          	addi	a0,s0,-1024
    4e5e:	e34fc0ef          	jal	ra,1492 <TIM_ClearITPendingBit>
    4e62:	02900793          	li	a5,41
    4e66:	867c                	sh	a5,12(sp)
    4e68:	4785                	li	a5,1
    4e6a:	875c                	sb	a5,14(sp)
    4e6c:	0068                	addi	a0,sp,12
    4e6e:	4785                	li	a5,1
    4e70:	c83e                	sw	a5,16(sp)
    4e72:	ab4fc0ef          	jal	ra,1126 <NVIC_Init>
    4e76:	4605                	li	a2,1
    4e78:	4585                	li	a1,1
    4e7a:	c0040513          	addi	a0,s0,-1024
    4e7e:	ddafc0ef          	jal	ra,1458 <TIM_ITConfig>
    4e82:	6105                	addi	sp,sp,32
    4e84:	b90fb06f          	j	214 <__riscv_restore_0>

00004e88 <TIM3_Init>:
    4e88:	b68fb2ef          	jal	t0,1f0 <__riscv_save_0>
    4e8c:	1101                	addi	sp,sp,-32
    4e8e:	4585                	li	a1,1
    4e90:	4509                	li	a0,2
    4e92:	40000437          	lui	s0,0x40000
    4e96:	ca02                	sw	zero,20(sp)
    4e98:	cc02                	sw	zero,24(sp)
    4e9a:	00011e23          	sh	zero,28(sp)
    4e9e:	c602                	sw	zero,12(sp)
    4ea0:	c802                	sw	zero,16(sp)
    4ea2:	c92fc0ef          	jal	ra,1334 <RCC_APB1PeriphClockCmd>
    4ea6:	40040513          	addi	a0,s0,1024 # 40000400 <_eusrstack+0x1fff8400>
    4eaa:	dc0fc0ef          	jal	ra,146a <TIM_InternalClockConfig>
    4eae:	2cf00793          	li	a5,719
    4eb2:	ca3e                	sw	a5,20(sp)
    4eb4:	6789                	lui	a5,0x2
    4eb6:	70f78793          	addi	a5,a5,1807 # 270f <rb_test08+0x6a3>
    4eba:	084c                	addi	a1,sp,20
    4ebc:	40040513          	addi	a0,s0,1024
    4ec0:	cc3e                	sw	a5,24(sp)
    4ec2:	c90fc0ef          	jal	ra,1352 <TIM_TimeBaseInit>
    4ec6:	40040513          	addi	a0,s0,1024
    4eca:	4585                	li	a1,1
    4ecc:	dc6fc0ef          	jal	ra,1492 <TIM_ClearITPendingBit>
    4ed0:	4605                	li	a2,1
    4ed2:	4585                	li	a1,1
    4ed4:	40040513          	addi	a0,s0,1024
    4ed8:	d80fc0ef          	jal	ra,1458 <TIM_ITConfig>
    4edc:	12d00793          	li	a5,301
    4ee0:	867c                	sh	a5,12(sp)
    4ee2:	4785                	li	a5,1
    4ee4:	875c                	sb	a5,14(sp)
    4ee6:	0068                	addi	a0,sp,12
    4ee8:	4785                	li	a5,1
    4eea:	c83e                	sw	a5,16(sp)
    4eec:	a3afc0ef          	jal	ra,1126 <NVIC_Init>
    4ef0:	6105                	addi	sp,sp,32
    4ef2:	b22fb06f          	j	214 <__riscv_restore_0>

00004ef6 <GPIO_bsp_init>:
    4ef6:	afafb2ef          	jal	t0,1f0 <__riscv_save_0>
    4efa:	1141                	addi	sp,sp,-16
    4efc:	4585                	li	a1,1
    4efe:	4531                	li	a0,12
    4f00:	c202                	sw	zero,4(sp)
    4f02:	c402                	sw	zero,8(sp)
    4f04:	c602                	sw	zero,12(sp)
    4f06:	c10fc0ef          	jal	ra,1316 <RCC_APB2PeriphClockCmd>
    4f0a:	10000793          	li	a5,256
    4f0e:	827c                	sh	a5,4(sp)
    4f10:	40011537          	lui	a0,0x40011
    4f14:	478d                	li	a5,3
    4f16:	c43e                	sw	a5,8(sp)
    4f18:	004c                	addi	a1,sp,4
    4f1a:	47c1                	li	a5,16
    4f1c:	80050513          	addi	a0,a0,-2048 # 40010800 <_eusrstack+0x20008800>
    4f20:	c63e                	sw	a5,12(sp)
    4f22:	82efc0ef          	jal	ra,f50 <GPIO_Init>
    4f26:	0141                	addi	sp,sp,16
    4f28:	aecfb06f          	j	214 <__riscv_restore_0>

00004f2c <EXTI15_10_IRQHandler>:
    4f2c:	7175                	addi	sp,sp,-144
    4f2e:	deaa                	sw	a0,124(sp)
    4f30:	c706                	sw	ra,140(sp)
    4f32:	c516                	sw	t0,136(sp)
    4f34:	c31a                	sw	t1,132(sp)
    4f36:	c11e                	sw	t2,128(sp)
    4f38:	dcae                	sw	a1,120(sp)
    4f3a:	dab2                	sw	a2,116(sp)
    4f3c:	d8b6                	sw	a3,112(sp)
    4f3e:	d6ba                	sw	a4,108(sp)
    4f40:	d4be                	sw	a5,104(sp)
    4f42:	d2c2                	sw	a6,100(sp)
    4f44:	d0c6                	sw	a7,96(sp)
    4f46:	cef2                	sw	t3,92(sp)
    4f48:	ccf6                	sw	t4,88(sp)
    4f4a:	cafa                	sw	t5,84(sp)
    4f4c:	c8fe                	sw	t6,80(sp)
    4f4e:	e682                	fsw	ft0,76(sp)
    4f50:	e486                	fsw	ft1,72(sp)
    4f52:	e28a                	fsw	ft2,68(sp)
    4f54:	e08e                	fsw	ft3,64(sp)
    4f56:	fe12                	fsw	ft4,60(sp)
    4f58:	fc16                	fsw	ft5,56(sp)
    4f5a:	fa1a                	fsw	ft6,52(sp)
    4f5c:	f81e                	fsw	ft7,48(sp)
    4f5e:	f62a                	fsw	fa0,44(sp)
    4f60:	f42e                	fsw	fa1,40(sp)
    4f62:	f232                	fsw	fa2,36(sp)
    4f64:	f036                	fsw	fa3,32(sp)
    4f66:	ee3a                	fsw	fa4,28(sp)
    4f68:	ec3e                	fsw	fa5,24(sp)
    4f6a:	ea42                	fsw	fa6,20(sp)
    4f6c:	e846                	fsw	fa7,16(sp)
    4f6e:	6521                	lui	a0,0x8
    4f70:	e672                	fsw	ft8,12(sp)
    4f72:	e476                	fsw	ft9,8(sp)
    4f74:	e27a                	fsw	ft10,4(sp)
    4f76:	e07e                	fsw	ft11,0(sp)
    4f78:	fb1fb0ef          	jal	ra,f28 <EXTI_GetITStatus>
    4f7c:	c511                	beqz	a0,4f88 <EXTI15_10_IRQHandler+0x5c>
    4f7e:	d84ff0ef          	jal	ra,4502 <IR_EXTI_Callback>
    4f82:	6521                	lui	a0,0x8
    4f84:	fc3fb0ef          	jal	ra,f46 <EXTI_ClearITPendingBit>
    4f88:	40ba                	lw	ra,140(sp)
    4f8a:	42aa                	lw	t0,136(sp)
    4f8c:	431a                	lw	t1,132(sp)
    4f8e:	438a                	lw	t2,128(sp)
    4f90:	5576                	lw	a0,124(sp)
    4f92:	55e6                	lw	a1,120(sp)
    4f94:	5656                	lw	a2,116(sp)
    4f96:	56c6                	lw	a3,112(sp)
    4f98:	5736                	lw	a4,108(sp)
    4f9a:	57a6                	lw	a5,104(sp)
    4f9c:	5816                	lw	a6,100(sp)
    4f9e:	5886                	lw	a7,96(sp)
    4fa0:	4e76                	lw	t3,92(sp)
    4fa2:	4ee6                	lw	t4,88(sp)
    4fa4:	4f56                	lw	t5,84(sp)
    4fa6:	4fc6                	lw	t6,80(sp)
    4fa8:	6036                	flw	ft0,76(sp)
    4faa:	60a6                	flw	ft1,72(sp)
    4fac:	6116                	flw	ft2,68(sp)
    4fae:	6186                	flw	ft3,64(sp)
    4fb0:	7272                	flw	ft4,60(sp)
    4fb2:	72e2                	flw	ft5,56(sp)
    4fb4:	7352                	flw	ft6,52(sp)
    4fb6:	73c2                	flw	ft7,48(sp)
    4fb8:	7532                	flw	fa0,44(sp)
    4fba:	75a2                	flw	fa1,40(sp)
    4fbc:	7612                	flw	fa2,36(sp)
    4fbe:	7682                	flw	fa3,32(sp)
    4fc0:	6772                	flw	fa4,28(sp)
    4fc2:	67e2                	flw	fa5,24(sp)
    4fc4:	6852                	flw	fa6,20(sp)
    4fc6:	68c2                	flw	fa7,16(sp)
    4fc8:	6e32                	flw	ft8,12(sp)
    4fca:	6ea2                	flw	ft9,8(sp)
    4fcc:	6f12                	flw	ft10,4(sp)
    4fce:	6f82                	flw	ft11,0(sp)
    4fd0:	6149                	addi	sp,sp,144
    4fd2:	30200073          	mret

00004fd6 <EXTI0_INT_INIT>:
    4fd6:	a1afb2ef          	jal	t0,1f0 <__riscv_save_0>
    4fda:	7179                	addi	sp,sp,-48
    4fdc:	4585                	li	a1,1
    4fde:	4515                	li	a0,5
    4fe0:	ca02                	sw	zero,20(sp)
    4fe2:	cc02                	sw	zero,24(sp)
    4fe4:	ce02                	sw	zero,28(sp)
    4fe6:	d002                	sw	zero,32(sp)
    4fe8:	d202                	sw	zero,36(sp)
    4fea:	d402                	sw	zero,40(sp)
    4fec:	d602                	sw	zero,44(sp)
    4fee:	c602                	sw	zero,12(sp)
    4ff0:	c802                	sw	zero,16(sp)
    4ff2:	b24fc0ef          	jal	ra,1316 <RCC_APB2PeriphClockCmd>
    4ff6:	77e1                	lui	a5,0xffff8
    4ff8:	40011537          	lui	a0,0x40011
    4ffc:	82fc                	sh	a5,20(sp)
    4ffe:	084c                	addi	a1,sp,20
    5000:	04800793          	li	a5,72
    5004:	80050513          	addi	a0,a0,-2048 # 40010800 <_eusrstack+0x20008800>
    5008:	ce3e                	sw	a5,28(sp)
    500a:	f47fb0ef          	jal	ra,f50 <GPIO_Init>
    500e:	45bd                	li	a1,15
    5010:	4501                	li	a0,0
    5012:	8e8fc0ef          	jal	ra,10fa <GPIO_EXTILineConfig>
    5016:	67a1                	lui	a5,0x8
    5018:	4405                	li	s0,1
    501a:	d03e                	sw	a5,32(sp)
    501c:	1008                	addi	a0,sp,32
    501e:	47c1                	li	a5,16
    5020:	d43e                	sw	a5,40(sp)
    5022:	d622                	sw	s0,44(sp)
    5024:	d202                	sw	zero,36(sp)
    5026:	e99fb0ef          	jal	ra,ebe <EXTI_Init>
    502a:	13800793          	li	a5,312
    502e:	867c                	sh	a5,12(sp)
    5030:	0068                	addi	a0,sp,12
    5032:	4789                	li	a5,2
    5034:	875c                	sb	a5,14(sp)
    5036:	c822                	sw	s0,16(sp)
    5038:	8eefc0ef          	jal	ra,1126 <NVIC_Init>
    503c:	6145                	addi	sp,sp,48
    503e:	9d6fb06f          	j	214 <__riscv_restore_0>

00005042 <CAN_SoftFilterInit>:
    5042:	2538                	lbu	a4,10(a0)
    5044:	4789                	li	a5,2
    5046:	04e7e763          	bltu	a5,a4,5094 <CAN_SoftFilterInit+0x52>
    504a:	4914                	lw	a3,16(a0)
    504c:	06818793          	addi	a5,gp,104 # 200008e8 <CANFilterStruct>
    5050:	c2b9                	beqz	a3,5096 <CAN_SoftFilterInit+0x54>
    5052:	46b1                	li	a3,12
    5054:	02d706b3          	mul	a3,a4,a3
    5058:	96be                	add	a3,a3,a5
    505a:	2690                	lbu	a2,8(a3)
    505c:	00166613          	ori	a2,a2,1
    5060:	a690                	sb	a2,8(a3)
    5062:	46b1                	li	a3,12
    5064:	02d70733          	mul	a4,a4,a3
    5068:	97ba                	add	a5,a5,a4
    506a:	211a                	lhu	a4,0(a0)
    506c:	a3ba                	sh	a4,2(a5)
    506e:	213a                	lhu	a4,2(a0)
    5070:	a39a                	sh	a4,0(a5)
    5072:	215a                	lhu	a4,4(a0)
    5074:	a3fa                	sh	a4,6(a5)
    5076:	217a                	lhu	a4,6(a0)
    5078:	a3da                	sh	a4,4(a5)
    507a:	3538                	lbu	a4,11(a0)
    507c:	8b3d                	andi	a4,a4,15
    507e:	00171693          	slli	a3,a4,0x1
    5082:	2798                	lbu	a4,8(a5)
    5084:	9b05                	andi	a4,a4,-31
    5086:	8f55                	or	a4,a4,a3
    5088:	a798                	sb	a4,8(a5)
    508a:	2554                	lbu	a3,12(a0)
    508c:	8b7d                	andi	a4,a4,31
    508e:	0696                	slli	a3,a3,0x5
    5090:	8f55                	or	a4,a4,a3
    5092:	a798                	sb	a4,8(a5)
    5094:	8082                	ret
    5096:	46b1                	li	a3,12
    5098:	02d706b3          	mul	a3,a4,a3
    509c:	96be                	add	a3,a3,a5
    509e:	2690                	lbu	a2,8(a3)
    50a0:	9a79                	andi	a2,a2,-2
    50a2:	bf7d                	j	5060 <CAN_SoftFilterInit+0x1e>

000050a4 <CAN_ReceiveViaSoftFilter>:
    50a4:	94cfb2ef          	jal	t0,1f0 <__riscv_save_0>
    50a8:	8641a883          	lw	a7,-1948(gp) # 200000e4 <CAN2FilterStartBank>
    50ac:	400067b7          	lui	a5,0x40006
    50b0:	40078793          	addi	a5,a5,1024 # 40006400 <_eusrstack+0x1fffe400>
    50b4:	4681                	li	a3,0
    50b6:	00f50463          	beq	a0,a5,50be <CAN_ReceiveViaSoftFilter+0x1a>
    50ba:	86c6                	mv	a3,a7
    50bc:	4889                	li	a7,2
    50be:	45b1                	li	a1,12
    50c0:	02b685b3          	mul	a1,a3,a1
    50c4:	06818793          	addi	a5,gp,104 # 200008e8 <CANFilterStruct>
    50c8:	4331                	li	t1,12
    50ca:	02000e13          	li	t3,32
    50ce:	02200e93          	li	t4,34
    50d2:	97ae                	add	a5,a5,a1
    50d4:	06818593          	addi	a1,gp,104 # 200008e8 <CANFilterStruct>
    50d8:	0116c663          	blt	a3,a7,50e4 <CAN_ReceiveViaSoftFilter+0x40>
    50dc:	4581                	li	a1,0
    50de:	a31fb0ef          	jal	ra,b0e <CAN_FIFORelease>
    50e2:	a82d                	j	511c <CAN_ReceiveViaSoftFilter+0x78>
    50e4:	02668733          	mul	a4,a3,t1
    50e8:	972e                	add	a4,a4,a1
    50ea:	4718                	lw	a4,8(a4)
    50ec:	8b05                	andi	a4,a4,1
    50ee:	c331                	beqz	a4,5132 <CAN_ReceiveViaSoftFilter+0x8e>
    50f0:	0087c803          	lbu	a6,8(a5)
    50f4:	1b052703          	lw	a4,432(a0)
    50f8:	ffe87813          	andi	a6,a6,-2
    50fc:	9b79                	andi	a4,a4,-2
    50fe:	03c80163          	beq	a6,t3,5120 <CAN_ReceiveViaSoftFilter+0x7c>
    5102:	01d81d63          	bne	a6,t4,511c <CAN_ReceiveViaSoftFilter+0x78>
    5106:	0007a803          	lw	a6,0(a5)
    510a:	00e80663          	beq	a6,a4,5116 <CAN_ReceiveViaSoftFilter+0x72>
    510e:	0047a803          	lw	a6,4(a5)
    5112:	02e81063          	bne	a6,a4,5132 <CAN_ReceiveViaSoftFilter+0x8e>
    5116:	4581                	li	a1,0
    5118:	96bfb0ef          	jal	ra,a82 <CAN_Receive>
    511c:	8f8fb06f          	j	214 <__riscv_restore_0>
    5120:	0007a803          	lw	a6,0(a5)
    5124:	01074733          	xor	a4,a4,a6
    5128:	0047a803          	lw	a6,4(a5)
    512c:	01077733          	and	a4,a4,a6
    5130:	d37d                	beqz	a4,5116 <CAN_ReceiveViaSoftFilter+0x72>
    5132:	0685                	addi	a3,a3,1
    5134:	07b1                	addi	a5,a5,12
    5136:	b74d                	j	50d8 <CAN_ReceiveViaSoftFilter+0x34>

00005138 <CAN_Mode_Init>:
    5138:	89efb2ef          	jal	t0,1d6 <__riscv_save_4>
    513c:	715d                	addi	sp,sp,-80
    513e:	89aa                	mv	s3,a0
    5140:	84ae                	mv	s1,a1
    5142:	8932                	mv	s2,a2
    5144:	4581                	li	a1,0
    5146:	02000613          	li	a2,32
    514a:	1808                	addi	a0,sp,48
    514c:	c636                	sw	a3,12(sp)
    514e:	c43a                	sw	a4,8(sp)
    5150:	c802                	sw	zero,16(sp)
    5152:	ca02                	sw	zero,20(sp)
    5154:	cc02                	sw	zero,24(sp)
    5156:	8cafb0ef          	jal	ra,220 <memset>
    515a:	4585                	li	a1,1
    515c:	4525                	li	a0,9
    515e:	ce02                	sw	zero,28(sp)
    5160:	d002                	sw	zero,32(sp)
    5162:	d202                	sw	zero,36(sp)
    5164:	d402                	sw	zero,40(sp)
    5166:	d602                	sw	zero,44(sp)
    5168:	9aefc0ef          	jal	ra,1316 <RCC_APB2PeriphClockCmd>
    516c:	4585                	li	a1,1
    516e:	02000537          	lui	a0,0x2000
    5172:	9c2fc0ef          	jal	ra,1334 <RCC_APB1PeriphClockCmd>
    5176:	4585                	li	a1,1
    5178:	001d4537          	lui	a0,0x1d4
    517c:	ea9fb0ef          	jal	ra,1024 <GPIO_PinRemapConfig>
    5180:	20000793          	li	a5,512
    5184:	80fc                	sh	a5,16(sp)
    5186:	40011437          	lui	s0,0x40011
    518a:	47e1                	li	a5,24
    518c:	cc3e                	sw	a5,24(sp)
    518e:	080c                	addi	a1,sp,16
    5190:	478d                	li	a5,3
    5192:	c0040513          	addi	a0,s0,-1024 # 40010c00 <_eusrstack+0x20008c00>
    5196:	ca3e                	sw	a5,20(sp)
    5198:	db9fb0ef          	jal	ra,f50 <GPIO_Init>
    519c:	10000793          	li	a5,256
    51a0:	80fc                	sh	a5,16(sp)
    51a2:	080c                	addi	a1,sp,16
    51a4:	04800793          	li	a5,72
    51a8:	c0040513          	addi	a0,s0,-1024
    51ac:	cc3e                	sw	a5,24(sp)
    51ae:	da3fb0ef          	jal	ra,f50 <GPIO_Init>
    51b2:	46b2                	lw	a3,12(sp)
    51b4:	4722                	lw	a4,8(sp)
    51b6:	40006437          	lui	s0,0x40006
    51ba:	180c                	addi	a1,sp,48
    51bc:	40040513          	addi	a0,s0,1024 # 40006400 <_eusrstack+0x1fffe400>
    51c0:	02d11823          	sh	a3,48(sp)
    51c4:	02e10923          	sb	a4,50(sp)
    51c8:	033109a3          	sb	s3,51(sp)
    51cc:	03210a23          	sb	s2,52(sp)
    51d0:	02910aa3          	sb	s1,53(sp)
    51d4:	dc02                	sw	zero,56(sp)
    51d6:	de02                	sw	zero,60(sp)
    51d8:	c082                	sw	zero,64(sp)
    51da:	c282                	sw	zero,68(sp)
    51dc:	c482                	sw	zero,72(sp)
    51de:	c682                	sw	zero,76(sp)
    51e0:	cbcfb0ef          	jal	ra,69c <CAN_Init>
    51e4:	4785                	li	a5,1
    51e6:	02f10423          	sb	a5,40(sp)
    51ea:	4605                	li	a2,1
    51ec:	4785                	li	a5,1
    51ee:	4589                	li	a1,2
    51f0:	40040513          	addi	a0,s0,1024
    51f4:	d63e                	sw	a5,44(sp)
    51f6:	ce02                	sw	zero,28(sp)
    51f8:	d002                	sw	zero,32(sp)
    51fa:	d202                	sw	zero,36(sp)
    51fc:	93ffb0ef          	jal	ra,b3a <CAN_ITConfig>
    5200:	4741                	li	a4,16
    5202:	e000e7b7          	lui	a5,0xe000e
    5206:	10e7a223          	sw	a4,260(a5) # e000e104 <_eusrstack+0xc0006104>
    520a:	60042783          	lw	a5,1536(s0)
    520e:	0868                	addi	a0,sp,28
    5210:	0017e793          	ori	a5,a5,1
    5214:	60f42023          	sw	a5,1536(s0)
    5218:	60c42783          	lw	a5,1548(s0)
    521c:	0037e793          	ori	a5,a5,3
    5220:	60f42623          	sw	a5,1548(s0)
    5224:	64042023          	sw	zero,1600(s0)
    5228:	64042223          	sw	zero,1604(s0)
    522c:	61c42783          	lw	a5,1564(s0)
    5230:	0037e793          	ori	a5,a5,3
    5234:	60f42e23          	sw	a5,1564(s0)
    5238:	60042783          	lw	a5,1536(s0)
    523c:	9bf9                	andi	a5,a5,-2
    523e:	60f42023          	sw	a5,1536(s0)
    5242:	e01ff0ef          	jal	ra,5042 <CAN_SoftFilterInit>
    5246:	6161                	addi	sp,sp,80
    5248:	fc3fa06f          	j	20a <__riscv_restore_4>

0000524c <CAN_Send_Msg>:
    524c:	f8bfa2ef          	jal	t0,1d6 <__riscv_save_4>
    5250:	4705                	li	a4,1
    5252:	1101                	addi	sp,sp,-32
    5254:	87ae                	mv	a5,a1
    5256:	04e61d63          	bne	a2,a4,52b0 <CAN_Send_Msg+0x64>
    525a:	c636                	sw	a3,12(sp)
    525c:	00010a23          	sb	zero,20(sp)
    5260:	00f10b23          	sb	a5,22(sp)
    5264:	0074                	addi	a3,sp,12
    5266:	07c2                	slli	a5,a5,0x10
    5268:	00010aa3          	sb	zero,21(sp)
    526c:	4701                	li	a4,0
    526e:	85b6                	mv	a1,a3
    5270:	83c1                	srli	a5,a5,0x10
    5272:	01071613          	slli	a2,a4,0x10
    5276:	8241                	srli	a2,a2,0x10
    5278:	0685                	addi	a3,a3,1
    527a:	04f66063          	bltu	a2,a5,52ba <CAN_Send_Msg+0x6e>
    527e:	400064b7          	lui	s1,0x40006
    5282:	40048513          	addi	a0,s1,1024 # 40006400 <_eusrstack+0x1fffe400>
    5286:	edefb0ef          	jal	ra,964 <CAN_Transmit>
    528a:	6905                	lui	s2,0x1
    528c:	89aa                	mv	s3,a0
    528e:	4401                	li	s0,0
    5290:	40048493          	addi	s1,s1,1024
    5294:	4a05                	li	s4,1
    5296:	197d                	addi	s2,s2,-1
    5298:	85ce                	mv	a1,s3
    529a:	8526                	mv	a0,s1
    529c:	f84fb0ef          	jal	ra,a20 <CAN_TransmitStatus>
    52a0:	03450763          	beq	a0,s4,52ce <CAN_Send_Msg+0x82>
    52a4:	03241163          	bne	s0,s2,52c6 <CAN_Send_Msg+0x7a>
    52a8:	4505                	li	a0,1
    52aa:	6105                	addi	sp,sp,32
    52ac:	f5ffa06f          	j	20a <__riscv_restore_4>
    52b0:	4711                	li	a4,4
    52b2:	c836                	sw	a3,16(sp)
    52b4:	00e10a23          	sb	a4,20(sp)
    52b8:	b765                	j	5260 <CAN_Send_Msg+0x14>
    52ba:	00e50633          	add	a2,a0,a4
    52be:	2210                	lbu	a2,0(a2)
    52c0:	0705                	addi	a4,a4,1
    52c2:	a6b0                	sb	a2,10(a3)
    52c4:	b77d                	j	5272 <CAN_Send_Msg+0x26>
    52c6:	0405                	addi	s0,s0,1
    52c8:	0442                	slli	s0,s0,0x10
    52ca:	8041                	srli	s0,s0,0x10
    52cc:	b7f1                	j	5298 <CAN_Send_Msg+0x4c>
    52ce:	757d                	lui	a0,0xfffff
    52d0:	0505                	addi	a0,a0,1
    52d2:	9522                	add	a0,a0,s0
    52d4:	00153513          	seqz	a0,a0
    52d8:	bfc9                	j	52aa <CAN_Send_Msg+0x5e>

000052da <CAN_Receive_Msg>:
    52da:	f17fa2ef          	jal	t0,1f0 <__riscv_save_0>
    52de:	40006437          	lui	s0,0x40006
    52e2:	1101                	addi	sp,sp,-32
    52e4:	84aa                	mv	s1,a0
    52e6:	4581                	li	a1,0
    52e8:	40040513          	addi	a0,s0,1024 # 40006400 <_eusrstack+0x1fffe400>
    52ec:	839fb0ef          	jal	ra,b24 <CAN_MessagePending>
    52f0:	c51d                	beqz	a0,531e <CAN_Receive_Msg+0x44>
    52f2:	0070                	addi	a2,sp,12
    52f4:	4581                	li	a1,0
    52f6:	40040513          	addi	a0,s0,1024
    52fa:	dabff0ef          	jal	ra,50a4 <CAN_ReceiveViaSoftFilter>
    52fe:	007c                	addi	a5,sp,12
    5300:	4701                	li	a4,0
    5302:	46a1                	li	a3,8
    5304:	37ac                	lbu	a1,11(a5)
    5306:	00e48633          	add	a2,s1,a4
    530a:	0705                	addi	a4,a4,1
    530c:	a20c                	sb	a1,0(a2)
    530e:	0785                	addi	a5,a5,1
    5310:	fed71ae3          	bne	a4,a3,5304 <CAN_Receive_Msg+0x2a>
    5314:	01614503          	lbu	a0,22(sp)
    5318:	6105                	addi	sp,sp,32
    531a:	efbfa06f          	j	214 <__riscv_restore_0>
    531e:	4501                	li	a0,0
    5320:	bfe5                	j	5318 <CAN_Receive_Msg+0x3e>

00005322 <USB_LP_CAN1_RX0_IRQHandler>:
    5322:	40006537          	lui	a0,0x40006
    5326:	711d                	addi	sp,sp,-96
    5328:	4589                	li	a1,2
    532a:	40050513          	addi	a0,a0,1024 # 40006400 <_eusrstack+0x1fffe400>
    532e:	ee82                	fsw	ft0,92(sp)
    5330:	ec86                	fsw	ft1,88(sp)
    5332:	ea8a                	fsw	ft2,84(sp)
    5334:	e88e                	fsw	ft3,80(sp)
    5336:	e692                	fsw	ft4,76(sp)
    5338:	e496                	fsw	ft5,72(sp)
    533a:	e29a                	fsw	ft6,68(sp)
    533c:	e09e                	fsw	ft7,64(sp)
    533e:	fe2a                	fsw	fa0,60(sp)
    5340:	fc2e                	fsw	fa1,56(sp)
    5342:	fa32                	fsw	fa2,52(sp)
    5344:	f836                	fsw	fa3,48(sp)
    5346:	f63a                	fsw	fa4,44(sp)
    5348:	f43e                	fsw	fa5,40(sp)
    534a:	f242                	fsw	fa6,36(sp)
    534c:	f046                	fsw	fa7,32(sp)
    534e:	ee72                	fsw	ft8,28(sp)
    5350:	ec76                	fsw	ft9,24(sp)
    5352:	ea7a                	fsw	ft10,20(sp)
    5354:	e87e                	fsw	ft11,16(sp)
    5356:	ff6fb0ef          	jal	ra,b4c <CAN_GetITStatus>
    535a:	c505                	beqz	a0,5382 <USB_LP_CAN1_RX0_IRQHandler+0x60>
    535c:	0028                	addi	a0,sp,8
    535e:	f7dff0ef          	jal	ra,52da <CAN_Receive_Msg>
    5362:	4781                	li	a5,0
    5364:	97418713          	addi	a4,gp,-1676 # 200001f4 <canexbuf_interrupt>
    5368:	04a7c463          	blt	a5,a0,53b0 <USB_LP_CAN1_RX0_IRQHandler+0x8e>
    536c:	c501                	beqz	a0,5374 <USB_LP_CAN1_RX0_IRQHandler+0x52>
    536e:	4705                	li	a4,1
    5370:	96e18e23          	sb	a4,-1668(gp) # 200001fc <interrupt_rx_flag>
    5374:	40006537          	lui	a0,0x40006
    5378:	4589                	li	a1,2
    537a:	40050513          	addi	a0,a0,1024 # 40006400 <_eusrstack+0x1fffe400>
    537e:	89ffb0ef          	jal	ra,c1c <CAN_ClearITPendingBit>
    5382:	6076                	flw	ft0,92(sp)
    5384:	60e6                	flw	ft1,88(sp)
    5386:	6156                	flw	ft2,84(sp)
    5388:	61c6                	flw	ft3,80(sp)
    538a:	6236                	flw	ft4,76(sp)
    538c:	62a6                	flw	ft5,72(sp)
    538e:	6316                	flw	ft6,68(sp)
    5390:	6386                	flw	ft7,64(sp)
    5392:	7572                	flw	fa0,60(sp)
    5394:	75e2                	flw	fa1,56(sp)
    5396:	7652                	flw	fa2,52(sp)
    5398:	76c2                	flw	fa3,48(sp)
    539a:	7732                	flw	fa4,44(sp)
    539c:	77a2                	flw	fa5,40(sp)
    539e:	7812                	flw	fa6,36(sp)
    53a0:	7882                	flw	fa7,32(sp)
    53a2:	6e72                	flw	ft8,28(sp)
    53a4:	6ee2                	flw	ft9,24(sp)
    53a6:	6f52                	flw	ft10,20(sp)
    53a8:	6fc2                	flw	ft11,16(sp)
    53aa:	6125                	addi	sp,sp,96
    53ac:	30200073          	mret
    53b0:	0034                	addi	a3,sp,8
    53b2:	96be                	add	a3,a3,a5
    53b4:	2290                	lbu	a2,0(a3)
    53b6:	00f706b3          	add	a3,a4,a5
    53ba:	0785                	addi	a5,a5,1
    53bc:	a290                	sb	a2,0(a3)
    53be:	b76d                	j	5368 <USB_LP_CAN1_RX0_IRQHandler+0x46>

000053c0 <cos>:
    53c0:	1101                	addi	sp,sp,-32
    53c2:	cc22                	sw	s0,24(sp)
    53c4:	80000437          	lui	s0,0x80000
    53c8:	fff44793          	not	a5,s0
    53cc:	3fe92737          	lui	a4,0x3fe92
    53d0:	ce06                	sw	ra,28(sp)
    53d2:	8fed                	and	a5,a5,a1
    53d4:	1fb70713          	addi	a4,a4,507 # 3fe921fb <_eusrstack+0x1fe8a1fb>
    53d8:	04f75063          	bge	a4,a5,5418 <cos+0x58>
    53dc:	7ff00737          	lui	a4,0x7ff00
    53e0:	00e7ca63          	blt	a5,a4,53f4 <cos+0x34>
    53e4:	86ae                	mv	a3,a1
    53e6:	862a                	mv	a2,a0
    53e8:	282050ef          	jal	ra,a66a <__subdf3>
    53ec:	40f2                	lw	ra,28(sp)
    53ee:	4462                	lw	s0,24(sp)
    53f0:	6105                	addi	sp,sp,32
    53f2:	8082                	ret
    53f4:	860a                	mv	a2,sp
    53f6:	2c09                	jal	5608 <__ieee754_rem_pio2>
    53f8:	890d                	andi	a0,a0,3
    53fa:	4785                	li	a5,1
    53fc:	02f50663          	beq	a0,a5,5428 <cos+0x68>
    5400:	4789                	li	a5,2
    5402:	4622                	lw	a2,8(sp)
    5404:	46b2                	lw	a3,12(sp)
    5406:	02f50f63          	beq	a0,a5,5444 <cos+0x84>
    540a:	c905                	beqz	a0,543a <cos+0x7a>
    540c:	4502                	lw	a0,0(sp)
    540e:	4592                	lw	a1,4(sp)
    5410:	4705                	li	a4,1
    5412:	7ae010ef          	jal	ra,6bc0 <__kernel_sin>
    5416:	bfd9                	j	53ec <cos+0x2c>
    5418:	4601                	li	a2,0
    541a:	4681                	li	a3,0
    541c:	399000ef          	jal	ra,5fb4 <__kernel_cos>
    5420:	40f2                	lw	ra,28(sp)
    5422:	4462                	lw	s0,24(sp)
    5424:	6105                	addi	sp,sp,32
    5426:	8082                	ret
    5428:	4622                	lw	a2,8(sp)
    542a:	46b2                	lw	a3,12(sp)
    542c:	4502                	lw	a0,0(sp)
    542e:	4592                	lw	a1,4(sp)
    5430:	4705                	li	a4,1
    5432:	78e010ef          	jal	ra,6bc0 <__kernel_sin>
    5436:	8da1                	xor	a1,a1,s0
    5438:	bf55                	j	53ec <cos+0x2c>
    543a:	4502                	lw	a0,0(sp)
    543c:	4592                	lw	a1,4(sp)
    543e:	377000ef          	jal	ra,5fb4 <__kernel_cos>
    5442:	b76d                	j	53ec <cos+0x2c>
    5444:	4502                	lw	a0,0(sp)
    5446:	4592                	lw	a1,4(sp)
    5448:	36d000ef          	jal	ra,5fb4 <__kernel_cos>
    544c:	8da1                	xor	a1,a1,s0
    544e:	bf79                	j	53ec <cos+0x2c>

00005450 <sin>:
    5450:	1101                	addi	sp,sp,-32
    5452:	cc22                	sw	s0,24(sp)
    5454:	80000437          	lui	s0,0x80000
    5458:	fff44793          	not	a5,s0
    545c:	3fe92737          	lui	a4,0x3fe92
    5460:	ce06                	sw	ra,28(sp)
    5462:	8fed                	and	a5,a5,a1
    5464:	1fb70713          	addi	a4,a4,507 # 3fe921fb <_eusrstack+0x1fe8a1fb>
    5468:	04f75063          	bge	a4,a5,54a8 <sin+0x58>
    546c:	7ff00737          	lui	a4,0x7ff00
    5470:	00e7ca63          	blt	a5,a4,5484 <sin+0x34>
    5474:	86ae                	mv	a3,a1
    5476:	862a                	mv	a2,a0
    5478:	1f2050ef          	jal	ra,a66a <__subdf3>
    547c:	40f2                	lw	ra,28(sp)
    547e:	4462                	lw	s0,24(sp)
    5480:	6105                	addi	sp,sp,32
    5482:	8082                	ret
    5484:	860a                	mv	a2,sp
    5486:	2249                	jal	5608 <__ieee754_rem_pio2>
    5488:	890d                	andi	a0,a0,3
    548a:	4785                	li	a5,1
    548c:	02f50763          	beq	a0,a5,54ba <sin+0x6a>
    5490:	4789                	li	a5,2
    5492:	4622                	lw	a2,8(sp)
    5494:	46b2                	lw	a3,12(sp)
    5496:	02f50f63          	beq	a0,a5,54d4 <sin+0x84>
    549a:	c51d                	beqz	a0,54c8 <sin+0x78>
    549c:	4502                	lw	a0,0(sp)
    549e:	4592                	lw	a1,4(sp)
    54a0:	315000ef          	jal	ra,5fb4 <__kernel_cos>
    54a4:	8da1                	xor	a1,a1,s0
    54a6:	bfd9                	j	547c <sin+0x2c>
    54a8:	4701                	li	a4,0
    54aa:	4601                	li	a2,0
    54ac:	4681                	li	a3,0
    54ae:	712010ef          	jal	ra,6bc0 <__kernel_sin>
    54b2:	40f2                	lw	ra,28(sp)
    54b4:	4462                	lw	s0,24(sp)
    54b6:	6105                	addi	sp,sp,32
    54b8:	8082                	ret
    54ba:	4622                	lw	a2,8(sp)
    54bc:	46b2                	lw	a3,12(sp)
    54be:	4502                	lw	a0,0(sp)
    54c0:	4592                	lw	a1,4(sp)
    54c2:	2f3000ef          	jal	ra,5fb4 <__kernel_cos>
    54c6:	bf5d                	j	547c <sin+0x2c>
    54c8:	4502                	lw	a0,0(sp)
    54ca:	4592                	lw	a1,4(sp)
    54cc:	4705                	li	a4,1
    54ce:	6f2010ef          	jal	ra,6bc0 <__kernel_sin>
    54d2:	b76d                	j	547c <sin+0x2c>
    54d4:	4502                	lw	a0,0(sp)
    54d6:	4592                	lw	a1,4(sp)
    54d8:	4705                	li	a4,1
    54da:	6e6010ef          	jal	ra,6bc0 <__kernel_sin>
    54de:	8da1                	xor	a1,a1,s0
    54e0:	bf71                	j	547c <sin+0x2c>

000054e2 <cosf>:
    54e2:	e00507d3          	fmv.x.w	a5,fa0
    54e6:	1101                	addi	sp,sp,-32
    54e8:	3f4916b7          	lui	a3,0x3f491
    54ec:	00179713          	slli	a4,a5,0x1
    54f0:	ce06                	sw	ra,28(sp)
    54f2:	fd868693          	addi	a3,a3,-40 # 3f490fd8 <_eusrstack+0x1f488fd8>
    54f6:	8305                	srli	a4,a4,0x1
    54f8:	02e6dc63          	bge	a3,a4,5530 <cosf+0x4e>
    54fc:	7f8006b7          	lui	a3,0x7f800
    5500:	00d74763          	blt	a4,a3,550e <cosf+0x2c>
    5504:	08a57553          	fsub.s	fa0,fa0,fa0
    5508:	40f2                	lw	ra,28(sp)
    550a:	6105                	addi	sp,sp,32
    550c:	8082                	ret
    550e:	0028                	addi	a0,sp,8
    5510:	722000ef          	jal	ra,5c32 <__ieee754_rem_pio2f>
    5514:	890d                	andi	a0,a0,3
    5516:	4785                	li	a5,1
    5518:	02f50363          	beq	a0,a5,553e <cosf+0x5c>
    551c:	4789                	li	a5,2
    551e:	65b2                	flw	fa1,12(sp)
    5520:	6522                	flw	fa0,8(sp)
    5522:	02f50963          	beq	a0,a5,5554 <cosf+0x72>
    5526:	c505                	beqz	a0,554e <cosf+0x6c>
    5528:	4505                	li	a0,1
    552a:	06c020ef          	jal	ra,7596 <__kernel_sinf>
    552e:	bfe9                	j	5508 <cosf+0x26>
    5530:	f00005d3          	fmv.w.x	fa1,zero
    5534:	027010ef          	jal	ra,6d5a <__kernel_cosf>
    5538:	40f2                	lw	ra,28(sp)
    553a:	6105                	addi	sp,sp,32
    553c:	8082                	ret
    553e:	65b2                	flw	fa1,12(sp)
    5540:	6522                	flw	fa0,8(sp)
    5542:	4505                	li	a0,1
    5544:	052020ef          	jal	ra,7596 <__kernel_sinf>
    5548:	20a51553          	fneg.s	fa0,fa0
    554c:	bf75                	j	5508 <cosf+0x26>
    554e:	00d010ef          	jal	ra,6d5a <__kernel_cosf>
    5552:	bf5d                	j	5508 <cosf+0x26>
    5554:	007010ef          	jal	ra,6d5a <__kernel_cosf>
    5558:	20a51553          	fneg.s	fa0,fa0
    555c:	b775                	j	5508 <cosf+0x26>

0000555e <atan2f>:
    555e:	ab01                	j	5a6e <__ieee754_atan2f>

00005560 <sqrtf>:
    5560:	715d                	addi	sp,sp,-80
    5562:	c4a2                	sw	s0,72(sp)
    5564:	fe22                	fsw	fs0,60(sp)
    5566:	c686                	sw	ra,76(sp)
    5568:	20a50453          	fmv.s	fs0,fa0
    556c:	17d000ef          	jal	ra,5ee8 <__ieee754_sqrtf>
    5570:	86818793          	addi	a5,gp,-1944 # 200000e8 <__fdlib_version>
    5574:	4380                	lw	s0,0(a5)
    5576:	57fd                	li	a5,-1
    5578:	00f40a63          	beq	s0,a5,558c <sqrtf+0x2c>
    557c:	a08427d3          	feq.s	a5,fs0,fs0
    5580:	c791                	beqz	a5,558c <sqrtf+0x2c>
    5582:	f00007d3          	fmv.w.x	fa5,zero
    5586:	a0f417d3          	flt.s	a5,fs0,fa5
    558a:	e791                	bnez	a5,5596 <sqrtf+0x36>
    558c:	40b6                	lw	ra,76(sp)
    558e:	4426                	lw	s0,72(sp)
    5590:	7472                	flw	fs0,60(sp)
    5592:	6161                	addi	sp,sp,80
    5594:	8082                	ret
    5596:	20840553          	fmv.s	fa0,fs0
    559a:	4785                	li	a5,1
    559c:	c43e                	sw	a5,8(sp)
    559e:	00007797          	auipc	a5,0x7
    55a2:	cea78793          	addi	a5,a5,-790 # c288 <strlen+0x7d0>
    55a6:	c63e                	sw	a5,12(sp)
    55a8:	d402                	sw	zero,40(sp)
    55aa:	7e1050ef          	jal	ra,b58a <__extendsfdf2>
    55ae:	cc2a                	sw	a0,24(sp)
    55b0:	ce2e                	sw	a1,28(sp)
    55b2:	c82a                	sw	a0,16(sp)
    55b4:	ca2e                	sw	a1,20(sp)
    55b6:	cc05                	beqz	s0,55ee <sqrtf+0x8e>
    55b8:	4601                	li	a2,0
    55ba:	4681                	li	a3,0
    55bc:	8532                	mv	a0,a2
    55be:	85b6                	mv	a1,a3
    55c0:	066040ef          	jal	ra,9626 <__divdf3>
    55c4:	d02a                	sw	a0,32(sp)
    55c6:	d22e                	sw	a1,36(sp)
    55c8:	4789                	li	a5,2
    55ca:	02f41463          	bne	s0,a5,55f2 <sqrtf+0x92>
    55ce:	430060ef          	jal	ra,b9fe <__errno>
    55d2:	02100793          	li	a5,33
    55d6:	c11c                	sw	a5,0(a0)
    55d8:	57a2                	lw	a5,40(sp)
    55da:	e395                	bnez	a5,55fe <sqrtf+0x9e>
    55dc:	5502                	lw	a0,32(sp)
    55de:	5592                	lw	a1,36(sp)
    55e0:	092060ef          	jal	ra,b672 <__truncdfsf2>
    55e4:	40b6                	lw	ra,76(sp)
    55e6:	4426                	lw	s0,72(sp)
    55e8:	7472                	flw	fs0,60(sp)
    55ea:	6161                	addi	sp,sp,80
    55ec:	8082                	ret
    55ee:	d002                	sw	zero,32(sp)
    55f0:	d202                	sw	zero,36(sp)
    55f2:	0028                	addi	a0,sp,8
    55f4:	1a2020ef          	jal	ra,7796 <matherr>
    55f8:	d979                	beqz	a0,55ce <sqrtf+0x6e>
    55fa:	57a2                	lw	a5,40(sp)
    55fc:	d3e5                	beqz	a5,55dc <sqrtf+0x7c>
    55fe:	400060ef          	jal	ra,b9fe <__errno>
    5602:	57a2                	lw	a5,40(sp)
    5604:	c11c                	sw	a5,0(a0)
    5606:	bfd9                	j	55dc <sqrtf+0x7c>

00005608 <__ieee754_rem_pio2>:
    5608:	7159                	addi	sp,sp,-112
    560a:	d4a2                	sw	s0,104(sp)
    560c:	3fe92737          	lui	a4,0x3fe92
    5610:	00159413          	slli	s0,a1,0x1
    5614:	d686                	sw	ra,108(sp)
    5616:	d2a6                	sw	s1,100(sp)
    5618:	d0ca                	sw	s2,96(sp)
    561a:	cece                	sw	s3,92(sp)
    561c:	ccd2                	sw	s4,88(sp)
    561e:	cad6                	sw	s5,84(sp)
    5620:	c8da                	sw	s6,80(sp)
    5622:	c6de                	sw	s7,76(sp)
    5624:	c4e2                	sw	s8,72(sp)
    5626:	c2e6                	sw	s9,68(sp)
    5628:	c0ea                	sw	s10,64(sp)
    562a:	de6e                	sw	s11,60(sp)
    562c:	8005                	srli	s0,s0,0x1
    562e:	1fb70713          	addi	a4,a4,507 # 3fe921fb <_eusrstack+0x1fe8a1fb>
    5632:	14875c63          	bge	a4,s0,578a <__ieee754_rem_pio2+0x182>
    5636:	4002e737          	lui	a4,0x4002e
    563a:	97b70713          	addi	a4,a4,-1669 # 4002d97b <_eusrstack+0x2002597b>
    563e:	89b2                	mv	s3,a2
    5640:	06874f63          	blt	a4,s0,56be <__ieee754_rem_pio2+0xb6>
    5644:	00007797          	auipc	a5,0x7
    5648:	c4c78793          	addi	a5,a5,-948 # c290 <strlen+0x7d8>
    564c:	4390                	lw	a2,0(a5)
    564e:	43d4                	lw	a3,4(a5)
    5650:	3ab05763          	blez	a1,59fe <__ieee754_rem_pio2+0x3f6>
    5654:	016050ef          	jal	ra,a66a <__subdf3>
    5658:	3ff927b7          	lui	a5,0x3ff92
    565c:	1fb78793          	addi	a5,a5,507 # 3ff921fb <_eusrstack+0x1ff8a1fb>
    5660:	8a2a                	mv	s4,a0
    5662:	8aae                	mv	s5,a1
    5664:	14f40963          	beq	s0,a5,57b6 <__ieee754_rem_pio2+0x1ae>
    5668:	00007417          	auipc	s0,0x7
    566c:	c3040413          	addi	s0,s0,-976 # c298 <strlen+0x7e0>
    5670:	4010                	lw	a2,0(s0)
    5672:	4054                	lw	a3,4(s0)
    5674:	4485                	li	s1,1
    5676:	7f5040ef          	jal	ra,a66a <__subdf3>
    567a:	862a                	mv	a2,a0
    567c:	86ae                	mv	a3,a1
    567e:	00a9a023          	sw	a0,0(s3)
    5682:	00b9a223          	sw	a1,4(s3)
    5686:	8552                	mv	a0,s4
    5688:	85d6                	mv	a1,s5
    568a:	7e1040ef          	jal	ra,a66a <__subdf3>
    568e:	4010                	lw	a2,0(s0)
    5690:	4054                	lw	a3,4(s0)
    5692:	7d9040ef          	jal	ra,a66a <__subdf3>
    5696:	00a9a423          	sw	a0,8(s3)
    569a:	00b9a623          	sw	a1,12(s3)
    569e:	50b6                	lw	ra,108(sp)
    56a0:	5426                	lw	s0,104(sp)
    56a2:	8526                	mv	a0,s1
    56a4:	5906                	lw	s2,96(sp)
    56a6:	5496                	lw	s1,100(sp)
    56a8:	49f6                	lw	s3,92(sp)
    56aa:	4a66                	lw	s4,88(sp)
    56ac:	4ad6                	lw	s5,84(sp)
    56ae:	4b46                	lw	s6,80(sp)
    56b0:	4bb6                	lw	s7,76(sp)
    56b2:	4c26                	lw	s8,72(sp)
    56b4:	4c96                	lw	s9,68(sp)
    56b6:	4d06                	lw	s10,64(sp)
    56b8:	5df2                	lw	s11,60(sp)
    56ba:	6165                	addi	sp,sp,112
    56bc:	8082                	ret
    56be:	41392737          	lui	a4,0x41392
    56c2:	1fb70713          	addi	a4,a4,507 # 413921fb <_eusrstack+0x2138a1fb>
    56c6:	892e                	mv	s2,a1
    56c8:	10875963          	bge	a4,s0,57da <__ieee754_rem_pio2+0x1d2>
    56cc:	7ff00737          	lui	a4,0x7ff00
    56d0:	0ce45563          	bge	s0,a4,579a <__ieee754_rem_pio2+0x192>
    56d4:	41445a13          	srai	s4,s0,0x14
    56d8:	beaa0a13          	addi	s4,s4,-1046
    56dc:	014a1793          	slli	a5,s4,0x14
    56e0:	8c1d                	sub	s0,s0,a5
    56e2:	85a2                	mv	a1,s0
    56e4:	84aa                	mv	s1,a0
    56e6:	211050ef          	jal	ra,b0f6 <__fixdfsi>
    56ea:	2e5050ef          	jal	ra,b1ce <__floatsidf>
    56ee:	872a                	mv	a4,a0
    56f0:	87ae                	mv	a5,a1
    56f2:	863a                	mv	a2,a4
    56f4:	86be                	mv	a3,a5
    56f6:	8526                	mv	a0,s1
    56f8:	85a2                	mv	a1,s0
    56fa:	cc3a                	sw	a4,24(sp)
    56fc:	ce3e                	sw	a5,28(sp)
    56fe:	00007497          	auipc	s1,0x7
    5702:	bd248493          	addi	s1,s1,-1070 # c2d0 <strlen+0x818>
    5706:	765040ef          	jal	ra,a66a <__subdf3>
    570a:	4090                	lw	a2,0(s1)
    570c:	40d4                	lw	a3,4(s1)
    570e:	107040ef          	jal	ra,a014 <__muldf3>
    5712:	8bae                	mv	s7,a1
    5714:	8b2a                	mv	s6,a0
    5716:	1e1050ef          	jal	ra,b0f6 <__fixdfsi>
    571a:	842a                	mv	s0,a0
    571c:	2b3050ef          	jal	ra,b1ce <__floatsidf>
    5720:	872a                	mv	a4,a0
    5722:	87ae                	mv	a5,a1
    5724:	862a                	mv	a2,a0
    5726:	86ae                	mv	a3,a1
    5728:	855a                	mv	a0,s6
    572a:	85de                	mv	a1,s7
    572c:	d03a                	sw	a4,32(sp)
    572e:	d23e                	sw	a5,36(sp)
    5730:	73b040ef          	jal	ra,a66a <__subdf3>
    5734:	4090                	lw	a2,0(s1)
    5736:	40d4                	lw	a3,4(s1)
    5738:	0dd040ef          	jal	ra,a014 <__muldf3>
    573c:	4681                	li	a3,0
    573e:	4601                	li	a2,0
    5740:	d42a                	sw	a0,40(sp)
    5742:	d62e                	sw	a1,44(sp)
    5744:	6cc040ef          	jal	ra,9e10 <__eqdf2>
    5748:	008036b3          	snez	a3,s0
    574c:	0685                	addi	a3,a3,1
    574e:	22051863          	bnez	a0,597e <__ieee754_rem_pio2+0x376>
    5752:	00007797          	auipc	a5,0x7
    5756:	c0678793          	addi	a5,a5,-1018 # c358 <two_over_pi>
    575a:	4709                	li	a4,2
    575c:	8652                	mv	a2,s4
    575e:	85ce                	mv	a1,s3
    5760:	0828                	addi	a0,sp,24
    5762:	30b000ef          	jal	ra,626c <__kernel_rem_pio2>
    5766:	84aa                	mv	s1,a0
    5768:	f2095be3          	bgez	s2,569e <__ieee754_rem_pio2+0x96>
    576c:	0049a703          	lw	a4,4(s3)
    5770:	00c9a783          	lw	a5,12(s3)
    5774:	800006b7          	lui	a3,0x80000
    5778:	8f35                	xor	a4,a4,a3
    577a:	8fb5                	xor	a5,a5,a3
    577c:	00e9a223          	sw	a4,4(s3)
    5780:	00f9a623          	sw	a5,12(s3)
    5784:	40a004b3          	neg	s1,a0
    5788:	bf19                	j	569e <__ieee754_rem_pio2+0x96>
    578a:	c208                	sw	a0,0(a2)
    578c:	c24c                	sw	a1,4(a2)
    578e:	00062423          	sw	zero,8(a2)
    5792:	00062623          	sw	zero,12(a2)
    5796:	4481                	li	s1,0
    5798:	b719                	j	569e <__ieee754_rem_pio2+0x96>
    579a:	862a                	mv	a2,a0
    579c:	86ae                	mv	a3,a1
    579e:	6cd040ef          	jal	ra,a66a <__subdf3>
    57a2:	00a9a423          	sw	a0,8(s3)
    57a6:	00b9a623          	sw	a1,12(s3)
    57aa:	00a9a023          	sw	a0,0(s3)
    57ae:	00b9a223          	sw	a1,4(s3)
    57b2:	4481                	li	s1,0
    57b4:	b5ed                	j	569e <__ieee754_rem_pio2+0x96>
    57b6:	00007797          	auipc	a5,0x7
    57ba:	aea78793          	addi	a5,a5,-1302 # c2a0 <strlen+0x7e8>
    57be:	4390                	lw	a2,0(a5)
    57c0:	43d4                	lw	a3,4(a5)
    57c2:	00007417          	auipc	s0,0x7
    57c6:	ae640413          	addi	s0,s0,-1306 # c2a8 <strlen+0x7f0>
    57ca:	4485                	li	s1,1
    57cc:	69f040ef          	jal	ra,a66a <__subdf3>
    57d0:	8a2a                	mv	s4,a0
    57d2:	8aae                	mv	s5,a1
    57d4:	4010                	lw	a2,0(s0)
    57d6:	4054                	lw	a3,4(s0)
    57d8:	bd79                	j	5676 <__ieee754_rem_pio2+0x6e>
    57da:	65f010ef          	jal	ra,7638 <fabs>
    57de:	00007797          	auipc	a5,0x7
    57e2:	ad278793          	addi	a5,a5,-1326 # c2b0 <strlen+0x7f8>
    57e6:	4390                	lw	a2,0(a5)
    57e8:	43d4                	lw	a3,4(a5)
    57ea:	8a2a                	mv	s4,a0
    57ec:	8aae                	mv	s5,a1
    57ee:	027040ef          	jal	ra,a014 <__muldf3>
    57f2:	00007797          	auipc	a5,0x7
    57f6:	ac678793          	addi	a5,a5,-1338 # c2b8 <strlen+0x800>
    57fa:	4390                	lw	a2,0(a5)
    57fc:	43d4                	lw	a3,4(a5)
    57fe:	41a030ef          	jal	ra,8c18 <__adddf3>
    5802:	0f5050ef          	jal	ra,b0f6 <__fixdfsi>
    5806:	84aa                	mv	s1,a0
    5808:	1c7050ef          	jal	ra,b1ce <__floatsidf>
    580c:	00007797          	auipc	a5,0x7
    5810:	a8478793          	addi	a5,a5,-1404 # c290 <strlen+0x7d8>
    5814:	4390                	lw	a2,0(a5)
    5816:	43d4                	lw	a3,4(a5)
    5818:	8b2a                	mv	s6,a0
    581a:	8bae                	mv	s7,a1
    581c:	7f8040ef          	jal	ra,a014 <__muldf3>
    5820:	862a                	mv	a2,a0
    5822:	86ae                	mv	a3,a1
    5824:	8552                	mv	a0,s4
    5826:	85d6                	mv	a1,s5
    5828:	643040ef          	jal	ra,a66a <__subdf3>
    582c:	00007797          	auipc	a5,0x7
    5830:	a6c78793          	addi	a5,a5,-1428 # c298 <strlen+0x7e0>
    5834:	4390                	lw	a2,0(a5)
    5836:	43d4                	lw	a3,4(a5)
    5838:	8d2a                	mv	s10,a0
    583a:	8cae                	mv	s9,a1
    583c:	855a                	mv	a0,s6
    583e:	85de                	mv	a1,s7
    5840:	7d4040ef          	jal	ra,a014 <__muldf3>
    5844:	8a2a                	mv	s4,a0
    5846:	8aae                	mv	s5,a1
    5848:	47fd                	li	a5,31
    584a:	856a                	mv	a0,s10
    584c:	85e6                	mv	a1,s9
    584e:	8652                	mv	a2,s4
    5850:	86d6                	mv	a3,s5
    5852:	0297c763          	blt	a5,s1,5880 <__ieee754_rem_pio2+0x278>
    5856:	615040ef          	jal	ra,a66a <__subdf3>
    585a:	fff48793          	addi	a5,s1,-1
    585e:	00279713          	slli	a4,a5,0x2
    5862:	00007797          	auipc	a5,0x7
    5866:	a7678793          	addi	a5,a5,-1418 # c2d8 <npio2_hw>
    586a:	97ba                	add	a5,a5,a4
    586c:	439c                	lw	a5,0(a5)
    586e:	8daa                	mv	s11,a0
    5870:	8c2e                	mv	s8,a1
    5872:	00878b63          	beq	a5,s0,5888 <__ieee754_rem_pio2+0x280>
    5876:	00a9a023          	sw	a0,0(s3)
    587a:	00b9a223          	sw	a1,4(s3)
    587e:	a025                	j	58a6 <__ieee754_rem_pio2+0x29e>
    5880:	5eb040ef          	jal	ra,a66a <__subdf3>
    5884:	8daa                	mv	s11,a0
    5886:	8c2e                	mv	s8,a1
    5888:	014c5793          	srli	a5,s8,0x14
    588c:	41445813          	srai	a6,s0,0x14
    5890:	7ff7f793          	andi	a5,a5,2047
    5894:	40f807b3          	sub	a5,a6,a5
    5898:	46c1                	li	a3,16
    589a:	04f6c663          	blt	a3,a5,58e6 <__ieee754_rem_pio2+0x2de>
    589e:	01b9a023          	sw	s11,0(s3)
    58a2:	0189a223          	sw	s8,4(s3)
    58a6:	866e                	mv	a2,s11
    58a8:	86e2                	mv	a3,s8
    58aa:	856a                	mv	a0,s10
    58ac:	85e6                	mv	a1,s9
    58ae:	5bd040ef          	jal	ra,a66a <__subdf3>
    58b2:	8652                	mv	a2,s4
    58b4:	86d6                	mv	a3,s5
    58b6:	5b5040ef          	jal	ra,a66a <__subdf3>
    58ba:	00a9a423          	sw	a0,8(s3)
    58be:	00b9a623          	sw	a1,12(s3)
    58c2:	dc095ee3          	bgez	s2,569e <__ieee754_rem_pio2+0x96>
    58c6:	800007b7          	lui	a5,0x80000
    58ca:	0187cc33          	xor	s8,a5,s8
    58ce:	8dbd                	xor	a1,a1,a5
    58d0:	01b9a023          	sw	s11,0(s3)
    58d4:	0189a223          	sw	s8,4(s3)
    58d8:	00a9a423          	sw	a0,8(s3)
    58dc:	00b9a623          	sw	a1,12(s3)
    58e0:	409004b3          	neg	s1,s1
    58e4:	bb6d                	j	569e <__ieee754_rem_pio2+0x96>
    58e6:	00007797          	auipc	a5,0x7
    58ea:	9ba78793          	addi	a5,a5,-1606 # c2a0 <strlen+0x7e8>
    58ee:	4390                	lw	a2,0(a5)
    58f0:	43d4                	lw	a3,4(a5)
    58f2:	855a                	mv	a0,s6
    58f4:	85de                	mv	a1,s7
    58f6:	c442                	sw	a6,8(sp)
    58f8:	71c040ef          	jal	ra,a014 <__muldf3>
    58fc:	8a2a                	mv	s4,a0
    58fe:	8aae                	mv	s5,a1
    5900:	862a                	mv	a2,a0
    5902:	86ae                	mv	a3,a1
    5904:	856a                	mv	a0,s10
    5906:	85e6                	mv	a1,s9
    5908:	563040ef          	jal	ra,a66a <__subdf3>
    590c:	8c2e                	mv	s8,a1
    590e:	862a                	mv	a2,a0
    5910:	86ae                	mv	a3,a1
    5912:	842a                	mv	s0,a0
    5914:	c62e                	sw	a1,12(sp)
    5916:	856a                	mv	a0,s10
    5918:	85e6                	mv	a1,s9
    591a:	551040ef          	jal	ra,a66a <__subdf3>
    591e:	8652                	mv	a2,s4
    5920:	86d6                	mv	a3,s5
    5922:	549040ef          	jal	ra,a66a <__subdf3>
    5926:	00007797          	auipc	a5,0x7
    592a:	98278793          	addi	a5,a5,-1662 # c2a8 <strlen+0x7f0>
    592e:	4390                	lw	a2,0(a5)
    5930:	43d4                	lw	a3,4(a5)
    5932:	8a2a                	mv	s4,a0
    5934:	8aae                	mv	s5,a1
    5936:	855a                	mv	a0,s6
    5938:	85de                	mv	a1,s7
    593a:	6da040ef          	jal	ra,a014 <__muldf3>
    593e:	8652                	mv	a2,s4
    5940:	86d6                	mv	a3,s5
    5942:	529040ef          	jal	ra,a66a <__subdf3>
    5946:	862a                	mv	a2,a0
    5948:	86ae                	mv	a3,a1
    594a:	8a2a                	mv	s4,a0
    594c:	8aae                	mv	s5,a1
    594e:	8522                	mv	a0,s0
    5950:	85e2                	mv	a1,s8
    5952:	519040ef          	jal	ra,a66a <__subdf3>
    5956:	4822                	lw	a6,8(sp)
    5958:	0145d793          	srli	a5,a1,0x14
    595c:	7ff7f793          	andi	a5,a5,2047
    5960:	40f80833          	sub	a6,a6,a5
    5964:	03100793          	li	a5,49
    5968:	8ce2                	mv	s9,s8
    596a:	8daa                	mv	s11,a0
    596c:	8c2e                	mv	s8,a1
    596e:	0107ca63          	blt	a5,a6,5982 <__ieee754_rem_pio2+0x37a>
    5972:	00a9a023          	sw	a0,0(s3)
    5976:	00b9a223          	sw	a1,4(s3)
    597a:	8d22                	mv	s10,s0
    597c:	b72d                	j	58a6 <__ieee754_rem_pio2+0x29e>
    597e:	468d                	li	a3,3
    5980:	bbc9                	j	5752 <__ieee754_rem_pio2+0x14a>
    5982:	00007797          	auipc	a5,0x7
    5986:	93e78793          	addi	a5,a5,-1730 # c2c0 <strlen+0x808>
    598a:	4390                	lw	a2,0(a5)
    598c:	43d4                	lw	a3,4(a5)
    598e:	855a                	mv	a0,s6
    5990:	85de                	mv	a1,s7
    5992:	682040ef          	jal	ra,a014 <__muldf3>
    5996:	4c32                	lw	s8,12(sp)
    5998:	8a2a                	mv	s4,a0
    599a:	8aae                	mv	s5,a1
    599c:	862a                	mv	a2,a0
    599e:	86ae                	mv	a3,a1
    59a0:	8522                	mv	a0,s0
    59a2:	85e2                	mv	a1,s8
    59a4:	4c7040ef          	jal	ra,a66a <__subdf3>
    59a8:	862a                	mv	a2,a0
    59aa:	86ae                	mv	a3,a1
    59ac:	8d2a                	mv	s10,a0
    59ae:	8cae                	mv	s9,a1
    59b0:	8522                	mv	a0,s0
    59b2:	85e2                	mv	a1,s8
    59b4:	4b7040ef          	jal	ra,a66a <__subdf3>
    59b8:	8652                	mv	a2,s4
    59ba:	86d6                	mv	a3,s5
    59bc:	4af040ef          	jal	ra,a66a <__subdf3>
    59c0:	00007797          	auipc	a5,0x7
    59c4:	90878793          	addi	a5,a5,-1784 # c2c8 <strlen+0x810>
    59c8:	4390                	lw	a2,0(a5)
    59ca:	43d4                	lw	a3,4(a5)
    59cc:	8a2a                	mv	s4,a0
    59ce:	8aae                	mv	s5,a1
    59d0:	855a                	mv	a0,s6
    59d2:	85de                	mv	a1,s7
    59d4:	640040ef          	jal	ra,a014 <__muldf3>
    59d8:	8652                	mv	a2,s4
    59da:	86d6                	mv	a3,s5
    59dc:	48f040ef          	jal	ra,a66a <__subdf3>
    59e0:	862a                	mv	a2,a0
    59e2:	86ae                	mv	a3,a1
    59e4:	8a2a                	mv	s4,a0
    59e6:	8aae                	mv	s5,a1
    59e8:	856a                	mv	a0,s10
    59ea:	85e6                	mv	a1,s9
    59ec:	47f040ef          	jal	ra,a66a <__subdf3>
    59f0:	8daa                	mv	s11,a0
    59f2:	8c2e                	mv	s8,a1
    59f4:	00a9a023          	sw	a0,0(s3)
    59f8:	00b9a223          	sw	a1,4(s3)
    59fc:	b56d                	j	58a6 <__ieee754_rem_pio2+0x29e>
    59fe:	21a030ef          	jal	ra,8c18 <__adddf3>
    5a02:	3ff927b7          	lui	a5,0x3ff92
    5a06:	1fb78793          	addi	a5,a5,507 # 3ff921fb <_eusrstack+0x1ff8a1fb>
    5a0a:	8a2a                	mv	s4,a0
    5a0c:	8aae                	mv	s5,a1
    5a0e:	02f40e63          	beq	s0,a5,5a4a <__ieee754_rem_pio2+0x442>
    5a12:	00007417          	auipc	s0,0x7
    5a16:	88640413          	addi	s0,s0,-1914 # c298 <strlen+0x7e0>
    5a1a:	4010                	lw	a2,0(s0)
    5a1c:	4054                	lw	a3,4(s0)
    5a1e:	54fd                	li	s1,-1
    5a20:	1f8030ef          	jal	ra,8c18 <__adddf3>
    5a24:	862a                	mv	a2,a0
    5a26:	86ae                	mv	a3,a1
    5a28:	00a9a023          	sw	a0,0(s3)
    5a2c:	00b9a223          	sw	a1,4(s3)
    5a30:	8552                	mv	a0,s4
    5a32:	85d6                	mv	a1,s5
    5a34:	437040ef          	jal	ra,a66a <__subdf3>
    5a38:	4010                	lw	a2,0(s0)
    5a3a:	4054                	lw	a3,4(s0)
    5a3c:	1dc030ef          	jal	ra,8c18 <__adddf3>
    5a40:	00a9a423          	sw	a0,8(s3)
    5a44:	00b9a623          	sw	a1,12(s3)
    5a48:	b999                	j	569e <__ieee754_rem_pio2+0x96>
    5a4a:	00007797          	auipc	a5,0x7
    5a4e:	85678793          	addi	a5,a5,-1962 # c2a0 <strlen+0x7e8>
    5a52:	4390                	lw	a2,0(a5)
    5a54:	43d4                	lw	a3,4(a5)
    5a56:	00007417          	auipc	s0,0x7
    5a5a:	85240413          	addi	s0,s0,-1966 # c2a8 <strlen+0x7f0>
    5a5e:	54fd                	li	s1,-1
    5a60:	1b8030ef          	jal	ra,8c18 <__adddf3>
    5a64:	8a2a                	mv	s4,a0
    5a66:	8aae                	mv	s5,a1
    5a68:	4010                	lw	a2,0(s0)
    5a6a:	4054                	lw	a3,4(s0)
    5a6c:	bf55                	j	5a20 <__ieee754_rem_pio2+0x418>

00005a6e <__ieee754_atan2f>:
    5a6e:	e0058753          	fmv.x.w	a4,fa1
    5a72:	800007b7          	lui	a5,0x80000
    5a76:	fff7c793          	not	a5,a5
    5a7a:	00e7f5b3          	and	a1,a5,a4
    5a7e:	7f800637          	lui	a2,0x7f800
    5a82:	e00506d3          	fmv.x.w	a3,fa0
    5a86:	04b64963          	blt	a2,a1,5ad8 <__ieee754_atan2f+0x6a>
    5a8a:	8ff5                	and	a5,a5,a3
    5a8c:	88b6                	mv	a7,a3
    5a8e:	04f64563          	blt	a2,a5,5ad8 <__ieee754_atan2f+0x6a>
    5a92:	3f800837          	lui	a6,0x3f800
    5a96:	11070b63          	beq	a4,a6,5bac <__ieee754_atan2f+0x13e>
    5a9a:	1141                	addi	sp,sp,-16
    5a9c:	c422                	sw	s0,8(sp)
    5a9e:	41e75413          	srai	s0,a4,0x1e
    5aa2:	8809                	andi	s0,s0,2
    5aa4:	01f6d813          	srli	a6,a3,0x1f
    5aa8:	c606                	sw	ra,12(sp)
    5aaa:	01046433          	or	s0,s0,a6
    5aae:	ef95                	bnez	a5,5aea <__ieee754_atan2f+0x7c>
    5ab0:	4789                	li	a5,2
    5ab2:	0cf40263          	beq	s0,a5,5b76 <__ieee754_atan2f+0x108>
    5ab6:	478d                	li	a5,3
    5ab8:	e0050653          	fmv.x.w	a2,fa0
    5abc:	00f41863          	bne	s0,a5,5acc <__ieee754_atan2f+0x5e>
    5ac0:	00007797          	auipc	a5,0x7
    5ac4:	9a07a787          	flw	fa5,-1632(a5) # c460 <two_over_pi+0x108>
    5ac8:	e0078653          	fmv.x.w	a2,fa5
    5acc:	40b2                	lw	ra,12(sp)
    5ace:	4422                	lw	s0,8(sp)
    5ad0:	f0060553          	fmv.w.x	fa0,a2
    5ad4:	0141                	addi	sp,sp,16
    5ad6:	8082                	ret
    5ad8:	f00707d3          	fmv.w.x	fa5,a4
    5adc:	f0068753          	fmv.w.x	fa4,a3
    5ae0:	00e7f7d3          	fadd.s	fa5,fa5,fa4
    5ae4:	20f78553          	fmv.s	fa0,fa5
    5ae8:	8082                	ret
    5aea:	c5bd                	beqz	a1,5b58 <__ieee754_atan2f+0xea>
    5aec:	08c58c63          	beq	a1,a2,5b84 <__ieee754_atan2f+0x116>
    5af0:	06c78463          	beq	a5,a2,5b58 <__ieee754_atan2f+0xea>
    5af4:	8f8d                	sub	a5,a5,a1
    5af6:	87dd                	srai	a5,a5,0x17
    5af8:	03c00613          	li	a2,60
    5afc:	0af64a63          	blt	a2,a5,5bb0 <__ieee754_atan2f+0x142>
    5b00:	00075863          	bgez	a4,5b10 <__ieee754_atan2f+0xa2>
    5b04:	fc400593          	li	a1,-60
    5b08:	00000613          	li	a2,0
    5b0c:	00b7ce63          	blt	a5,a1,5b28 <__ieee754_atan2f+0xba>
    5b10:	f0068553          	fmv.w.x	fa0,a3
    5b14:	f00707d3          	fmv.w.x	fa5,a4
    5b18:	18f57553          	fdiv.s	fa0,fa0,fa5
    5b1c:	7c3010ef          	jal	ra,7ade <fabsf>
    5b20:	5bb010ef          	jal	ra,78da <atanf>
    5b24:	e0050653          	fmv.x.w	a2,fa0
    5b28:	4785                	li	a5,1
    5b2a:	0cf40b63          	beq	s0,a5,5c00 <__ieee754_atan2f+0x192>
    5b2e:	4789                	li	a5,2
    5b30:	0af40763          	beq	s0,a5,5bde <__ieee754_atan2f+0x170>
    5b34:	dc41                	beqz	s0,5acc <__ieee754_atan2f+0x5e>
    5b36:	f0060753          	fmv.w.x	fa4,a2
    5b3a:	00007797          	auipc	a5,0x7
    5b3e:	93a7a787          	flw	fa5,-1734(a5) # c474 <two_over_pi+0x11c>
    5b42:	00f777d3          	fadd.s	fa5,fa4,fa5
    5b46:	00006797          	auipc	a5,0x6
    5b4a:	4427a707          	flw	fa4,1090(a5) # bf88 <strlen+0x4d0>
    5b4e:	08e7f7d3          	fsub.s	fa5,fa5,fa4
    5b52:	e0078653          	fmv.x.w	a2,fa5
    5b56:	bf9d                	j	5acc <__ieee754_atan2f+0x5e>
    5b58:	00006797          	auipc	a5,0x6
    5b5c:	5907a787          	flw	fa5,1424(a5) # c0e8 <strlen+0x630>
    5b60:	e0078653          	fmv.x.w	a2,fa5
    5b64:	f608d4e3          	bgez	a7,5acc <__ieee754_atan2f+0x5e>
    5b68:	00006797          	auipc	a5,0x6
    5b6c:	5747a787          	flw	fa5,1396(a5) # c0dc <strlen+0x624>
    5b70:	e0078653          	fmv.x.w	a2,fa5
    5b74:	bfa1                	j	5acc <__ieee754_atan2f+0x5e>
    5b76:	00006797          	auipc	a5,0x6
    5b7a:	4127a787          	flw	fa5,1042(a5) # bf88 <strlen+0x4d0>
    5b7e:	e0078653          	fmv.x.w	a2,fa5
    5b82:	b7a9                	j	5acc <__ieee754_atan2f+0x5e>
    5b84:	02b78d63          	beq	a5,a1,5bbe <__ieee754_atan2f+0x150>
    5b88:	4789                	li	a5,2
    5b8a:	fef406e3          	beq	s0,a5,5b76 <__ieee754_atan2f+0x108>
    5b8e:	478d                	li	a5,3
    5b90:	f2f408e3          	beq	s0,a5,5ac0 <__ieee754_atan2f+0x52>
    5b94:	4785                	li	a5,1
    5b96:	00000613          	li	a2,0
    5b9a:	f2f419e3          	bne	s0,a5,5acc <__ieee754_atan2f+0x5e>
    5b9e:	00007797          	auipc	a5,0x7
    5ba2:	8c67a787          	flw	fa5,-1850(a5) # c464 <two_over_pi+0x10c>
    5ba6:	e0078653          	fmv.x.w	a2,fa5
    5baa:	b70d                	j	5acc <__ieee754_atan2f+0x5e>
    5bac:	52f0106f          	j	78da <atanf>
    5bb0:	00006797          	auipc	a5,0x6
    5bb4:	5387a787          	flw	fa5,1336(a5) # c0e8 <strlen+0x630>
    5bb8:	e0078653          	fmv.x.w	a2,fa5
    5bbc:	b7b5                	j	5b28 <__ieee754_atan2f+0xba>
    5bbe:	4789                	li	a5,2
    5bc0:	06f40263          	beq	s0,a5,5c24 <__ieee754_atan2f+0x1b6>
    5bc4:	478d                	li	a5,3
    5bc6:	04f40863          	beq	s0,a5,5c16 <__ieee754_atan2f+0x1a8>
    5bca:	4785                	li	a5,1
    5bcc:	02f40e63          	beq	s0,a5,5c08 <__ieee754_atan2f+0x19a>
    5bd0:	00007797          	auipc	a5,0x7
    5bd4:	89c7a787          	flw	fa5,-1892(a5) # c46c <two_over_pi+0x114>
    5bd8:	e0078653          	fmv.x.w	a2,fa5
    5bdc:	bdc5                	j	5acc <__ieee754_atan2f+0x5e>
    5bde:	f0060753          	fmv.w.x	fa4,a2
    5be2:	00007797          	auipc	a5,0x7
    5be6:	8927a787          	flw	fa5,-1902(a5) # c474 <two_over_pi+0x11c>
    5bea:	00f777d3          	fadd.s	fa5,fa4,fa5
    5bee:	00006797          	auipc	a5,0x6
    5bf2:	39a7a707          	flw	fa4,922(a5) # bf88 <strlen+0x4d0>
    5bf6:	08f777d3          	fsub.s	fa5,fa4,fa5
    5bfa:	e0078653          	fmv.x.w	a2,fa5
    5bfe:	b5f9                	j	5acc <__ieee754_atan2f+0x5e>
    5c00:	800007b7          	lui	a5,0x80000
    5c04:	8e3d                	xor	a2,a2,a5
    5c06:	b5d9                	j	5acc <__ieee754_atan2f+0x5e>
    5c08:	00007797          	auipc	a5,0x7
    5c0c:	8687a787          	flw	fa5,-1944(a5) # c470 <two_over_pi+0x118>
    5c10:	e0078653          	fmv.x.w	a2,fa5
    5c14:	bd65                	j	5acc <__ieee754_atan2f+0x5e>
    5c16:	00007797          	auipc	a5,0x7
    5c1a:	8527a787          	flw	fa5,-1966(a5) # c468 <two_over_pi+0x110>
    5c1e:	e0078653          	fmv.x.w	a2,fa5
    5c22:	b56d                	j	5acc <__ieee754_atan2f+0x5e>
    5c24:	00006797          	auipc	a5,0x6
    5c28:	4b47a787          	flw	fa5,1204(a5) # c0d8 <strlen+0x620>
    5c2c:	e0078653          	fmv.x.w	a2,fa5
    5c30:	bd71                	j	5acc <__ieee754_atan2f+0x5e>

00005c32 <__ieee754_rem_pio2f>:
    5c32:	e00507d3          	fmv.x.w	a5,fa0
    5c36:	1101                	addi	sp,sp,-32
    5c38:	cc22                	sw	s0,24(sp)
    5c3a:	3f491737          	lui	a4,0x3f491
    5c3e:	00179413          	slli	s0,a5,0x1
    5c42:	ca26                	sw	s1,20(sp)
    5c44:	ce06                	sw	ra,28(sp)
    5c46:	c84a                	sw	s2,16(sp)
    5c48:	fd870713          	addi	a4,a4,-40 # 3f490fd8 <_eusrstack+0x1f488fd8>
    5c4c:	8005                	srli	s0,s0,0x1
    5c4e:	84aa                	mv	s1,a0
    5c50:	0e875663          	bge	a4,s0,5d3c <__ieee754_rem_pio2f+0x10a>
    5c54:	4016d737          	lui	a4,0x4016d
    5c58:	be370713          	addi	a4,a4,-1053 # 4016cbe3 <_eusrstack+0x20164be3>
    5c5c:	893e                	mv	s2,a5
    5c5e:	04874463          	blt	a4,s0,5ca6 <__ieee754_rem_pio2f+0x74>
    5c62:	00007717          	auipc	a4,0x7
    5c66:	81672787          	flw	fa5,-2026(a4) # c478 <two_over_pi+0x120>
    5c6a:	3fc91737          	lui	a4,0x3fc91
    5c6e:	9841                	andi	s0,s0,-16
    5c70:	fd070713          	addi	a4,a4,-48 # 3fc90fd0 <_eusrstack+0x1fc88fd0>
    5c74:	22f05463          	blez	a5,5e9c <__ieee754_rem_pio2f+0x26a>
    5c78:	08f577d3          	fsub.s	fa5,fa0,fa5
    5c7c:	0ee40063          	beq	s0,a4,5d5c <__ieee754_rem_pio2f+0x12a>
    5c80:	00006797          	auipc	a5,0x6
    5c84:	7fc7a707          	flw	fa4,2044(a5) # c47c <two_over_pi+0x124>
    5c88:	08e7f6d3          	fsub.s	fa3,fa5,fa4
    5c8c:	4505                	li	a0,1
    5c8e:	08d7f7d3          	fsub.s	fa5,fa5,fa3
    5c92:	e094                	fsw	fa3,0(s1)
    5c94:	08e7f7d3          	fsub.s	fa5,fa5,fa4
    5c98:	e0dc                	fsw	fa5,4(s1)
    5c9a:	40f2                	lw	ra,28(sp)
    5c9c:	4462                	lw	s0,24(sp)
    5c9e:	44d2                	lw	s1,20(sp)
    5ca0:	4942                	lw	s2,16(sp)
    5ca2:	6105                	addi	sp,sp,32
    5ca4:	8082                	ret
    5ca6:	434917b7          	lui	a5,0x43491
    5caa:	f8078793          	addi	a5,a5,-128 # 43490f80 <_eusrstack+0x23488f80>
    5cae:	0e87d063          	bge	a5,s0,5d8e <__ieee754_rem_pio2f+0x15c>
    5cb2:	7f8007b7          	lui	a5,0x7f800
    5cb6:	08f45d63          	bge	s0,a5,5d50 <__ieee754_rem_pio2f+0x11e>
    5cba:	41745613          	srai	a2,s0,0x17
    5cbe:	f7a60613          	addi	a2,a2,-134 # 7f7fff7a <_eusrstack+0x5f7f7f7a>
    5cc2:	01761793          	slli	a5,a2,0x17
    5cc6:	8c1d                	sub	s0,s0,a5
    5cc8:	f00407d3          	fmv.w.x	fa5,s0
    5ccc:	00006717          	auipc	a4,0x6
    5cd0:	7c872687          	flw	fa3,1992(a4) # c494 <two_over_pi+0x13c>
    5cd4:	f0000653          	fmv.w.x	fa2,zero
    5cd8:	c00797d3          	fcvt.w.s	a5,fa5,rtz
    5cdc:	468d                	li	a3,3
    5cde:	d007f753          	fcvt.s.w	fa4,a5
    5ce2:	08e7f7d3          	fsub.s	fa5,fa5,fa4
    5ce6:	e23a                	fsw	fa4,4(sp)
    5ce8:	10d7f7d3          	fmul.s	fa5,fa5,fa3
    5cec:	c00797d3          	fcvt.w.s	a5,fa5,rtz
    5cf0:	d007f753          	fcvt.s.w	fa4,a5
    5cf4:	08e7f7d3          	fsub.s	fa5,fa5,fa4
    5cf8:	e43a                	fsw	fa4,8(sp)
    5cfa:	10d7f7d3          	fmul.s	fa5,fa5,fa3
    5cfe:	a0c7a7d3          	feq.s	a5,fa5,fa2
    5d02:	e63e                	fsw	fa5,12(sp)
    5d04:	c791                	beqz	a5,5d10 <__ieee754_rem_pio2f+0xde>
    5d06:	a0c726d3          	feq.s	a3,fa4,fa2
    5d0a:	0016b693          	seqz	a3,a3
    5d0e:	0685                	addi	a3,a3,1
    5d10:	00007797          	auipc	a5,0x7
    5d14:	80878793          	addi	a5,a5,-2040 # c518 <two_over_pi>
    5d18:	4709                	li	a4,2
    5d1a:	85a6                	mv	a1,s1
    5d1c:	0048                	addi	a0,sp,4
    5d1e:	17c010ef          	jal	ra,6e9a <__kernel_rem_pio2f>
    5d22:	f6095ce3          	bgez	s2,5c9a <__ieee754_rem_pio2f+0x68>
    5d26:	6098                	flw	fa4,0(s1)
    5d28:	60dc                	flw	fa5,4(s1)
    5d2a:	40a00533          	neg	a0,a0
    5d2e:	20e71753          	fneg.s	fa4,fa4
    5d32:	20f797d3          	fneg.s	fa5,fa5
    5d36:	e098                	fsw	fa4,0(s1)
    5d38:	e0dc                	fsw	fa5,4(s1)
    5d3a:	b785                	j	5c9a <__ieee754_rem_pio2f+0x68>
    5d3c:	40f2                	lw	ra,28(sp)
    5d3e:	4462                	lw	s0,24(sp)
    5d40:	e088                	fsw	fa0,0(s1)
    5d42:	00052223          	sw	zero,4(a0)
    5d46:	44d2                	lw	s1,20(sp)
    5d48:	4942                	lw	s2,16(sp)
    5d4a:	4501                	li	a0,0
    5d4c:	6105                	addi	sp,sp,32
    5d4e:	8082                	ret
    5d50:	08a577d3          	fsub.s	fa5,fa0,fa0
    5d54:	4501                	li	a0,0
    5d56:	e0dc                	fsw	fa5,4(s1)
    5d58:	e09c                	fsw	fa5,0(s1)
    5d5a:	b781                	j	5c9a <__ieee754_rem_pio2f+0x68>
    5d5c:	00006797          	auipc	a5,0x6
    5d60:	7247a707          	flw	fa4,1828(a5) # c480 <two_over_pi+0x128>
    5d64:	08e7f7d3          	fsub.s	fa5,fa5,fa4
    5d68:	00006797          	auipc	a5,0x6
    5d6c:	71c7a707          	flw	fa4,1820(a5) # c484 <two_over_pi+0x12c>
    5d70:	40f2                	lw	ra,28(sp)
    5d72:	4462                	lw	s0,24(sp)
    5d74:	4942                	lw	s2,16(sp)
    5d76:	08e7f6d3          	fsub.s	fa3,fa5,fa4
    5d7a:	4505                	li	a0,1
    5d7c:	08d7f7d3          	fsub.s	fa5,fa5,fa3
    5d80:	e094                	fsw	fa3,0(s1)
    5d82:	08e7f7d3          	fsub.s	fa5,fa5,fa4
    5d86:	e0dc                	fsw	fa5,4(s1)
    5d88:	44d2                	lw	s1,20(sp)
    5d8a:	6105                	addi	sp,sp,32
    5d8c:	8082                	ret
    5d8e:	551010ef          	jal	ra,7ade <fabsf>
    5d92:	00006797          	auipc	a5,0x6
    5d96:	1fa7a787          	flw	fa5,506(a5) # bf8c <strlen+0x4d4>
    5d9a:	00006797          	auipc	a5,0x6
    5d9e:	6ee7a687          	flw	fa3,1774(a5) # c488 <two_over_pi+0x130>
    5da2:	78d576c3          	fmadd.s	fa3,fa0,fa3,fa5
    5da6:	00006797          	auipc	a5,0x6
    5daa:	6d67a707          	flw	fa4,1750(a5) # c47c <two_over_pi+0x124>
    5dae:	00006797          	auipc	a5,0x6
    5db2:	6ca7a787          	flw	fa5,1738(a5) # c478 <two_over_pi+0x120>
    5db6:	47fd                	li	a5,31
    5db8:	c0069553          	fcvt.w.s	a0,fa3,rtz
    5dbc:	d00576d3          	fcvt.s.w	fa3,a0
    5dc0:	50f6f54b          	fnmsub.s	fa0,fa3,fa5,fa0
    5dc4:	10e6f7d3          	fmul.s	fa5,fa3,fa4
    5dc8:	04a7c763          	blt	a5,a0,5e16 <__ieee754_rem_pio2f+0x1e4>
    5dcc:	fff50793          	addi	a5,a0,-1
    5dd0:	00279713          	slli	a4,a5,0x2
    5dd4:	08f57753          	fsub.s	fa4,fa0,fa5
    5dd8:	00006797          	auipc	a5,0x6
    5ddc:	6c078793          	addi	a5,a5,1728 # c498 <npio2_hw>
    5de0:	97ba                	add	a5,a5,a4
    5de2:	4394                	lw	a3,0(a5)
    5de4:	f0047713          	andi	a4,s0,-256
    5de8:	e00707d3          	fmv.x.w	a5,fa4
    5dec:	02d70963          	beq	a4,a3,5e1e <__ieee754_rem_pio2f+0x1ec>
    5df0:	c09c                	sw	a5,0(s1)
    5df2:	f0078753          	fmv.w.x	fa4,a5
    5df6:	08e57553          	fsub.s	fa0,fa0,fa4
    5dfa:	08f57553          	fsub.s	fa0,fa0,fa5
    5dfe:	e0c8                	fsw	fa0,4(s1)
    5e00:	e8095de3          	bgez	s2,5c9a <__ieee754_rem_pio2f+0x68>
    5e04:	20e717d3          	fneg.s	fa5,fa4
    5e08:	20a51553          	fneg.s	fa0,fa0
    5e0c:	40a00533          	neg	a0,a0
    5e10:	e09c                	fsw	fa5,0(s1)
    5e12:	e0c8                	fsw	fa0,4(s1)
    5e14:	b559                	j	5c9a <__ieee754_rem_pio2f+0x68>
    5e16:	08f57753          	fsub.s	fa4,fa0,fa5
    5e1a:	e00707d3          	fmv.x.w	a5,fa4
    5e1e:	0177d713          	srli	a4,a5,0x17
    5e22:	845d                	srai	s0,s0,0x17
    5e24:	0ff77713          	andi	a4,a4,255
    5e28:	40e40733          	sub	a4,s0,a4
    5e2c:	46a1                	li	a3,8
    5e2e:	fce6d1e3          	bge	a3,a4,5df0 <__ieee754_rem_pio2f+0x1be>
    5e32:	00006797          	auipc	a5,0x6
    5e36:	64e7a607          	flw	fa2,1614(a5) # c480 <two_over_pi+0x128>
    5e3a:	50c6f74b          	fnmsub.s	fa4,fa3,fa2,fa0
    5e3e:	00006797          	auipc	a5,0x6
    5e42:	6467a787          	flw	fa5,1606(a5) # c484 <two_over_pi+0x12c>
    5e46:	46e5                	li	a3,25
    5e48:	08e57553          	fsub.s	fa0,fa0,fa4
    5e4c:	50c6f54b          	fnmsub.s	fa0,fa3,fa2,fa0
    5e50:	50f6f7c7          	fmsub.s	fa5,fa3,fa5,fa0
    5e54:	08f77653          	fsub.s	fa2,fa4,fa5
    5e58:	e00607d3          	fmv.x.w	a5,fa2
    5e5c:	0177d713          	srli	a4,a5,0x17
    5e60:	0ff77713          	andi	a4,a4,255
    5e64:	8c19                	sub	s0,s0,a4
    5e66:	0086c663          	blt	a3,s0,5e72 <__ieee754_rem_pio2f+0x240>
    5e6a:	e090                	fsw	fa2,0(s1)
    5e6c:	20e70553          	fmv.s	fa0,fa4
    5e70:	b749                	j	5df2 <__ieee754_rem_pio2f+0x1c0>
    5e72:	00006797          	auipc	a5,0x6
    5e76:	61a7a607          	flw	fa2,1562(a5) # c48c <two_over_pi+0x134>
    5e7a:	70c6f54b          	fnmsub.s	fa0,fa3,fa2,fa4
    5e7e:	00006797          	auipc	a5,0x6
    5e82:	6127a787          	flw	fa5,1554(a5) # c490 <two_over_pi+0x138>
    5e86:	08a77753          	fsub.s	fa4,fa4,fa0
    5e8a:	70c6f74b          	fnmsub.s	fa4,fa3,fa2,fa4
    5e8e:	70f6f7c7          	fmsub.s	fa5,fa3,fa5,fa4
    5e92:	08f57753          	fsub.s	fa4,fa0,fa5
    5e96:	e00707d3          	fmv.x.w	a5,fa4
    5e9a:	bf99                	j	5df0 <__ieee754_rem_pio2f+0x1be>
    5e9c:	00f577d3          	fadd.s	fa5,fa0,fa5
    5ea0:	02e40063          	beq	s0,a4,5ec0 <__ieee754_rem_pio2f+0x28e>
    5ea4:	00006797          	auipc	a5,0x6
    5ea8:	5d87a707          	flw	fa4,1496(a5) # c47c <two_over_pi+0x124>
    5eac:	00e7f6d3          	fadd.s	fa3,fa5,fa4
    5eb0:	557d                	li	a0,-1
    5eb2:	08d7f7d3          	fsub.s	fa5,fa5,fa3
    5eb6:	e094                	fsw	fa3,0(s1)
    5eb8:	00e7f7d3          	fadd.s	fa5,fa5,fa4
    5ebc:	e0dc                	fsw	fa5,4(s1)
    5ebe:	bbf1                	j	5c9a <__ieee754_rem_pio2f+0x68>
    5ec0:	00006797          	auipc	a5,0x6
    5ec4:	5c07a707          	flw	fa4,1472(a5) # c480 <two_over_pi+0x128>
    5ec8:	00e7f7d3          	fadd.s	fa5,fa5,fa4
    5ecc:	00006797          	auipc	a5,0x6
    5ed0:	5b87a707          	flw	fa4,1464(a5) # c484 <two_over_pi+0x12c>
    5ed4:	557d                	li	a0,-1
    5ed6:	00e7f6d3          	fadd.s	fa3,fa5,fa4
    5eda:	08d7f7d3          	fsub.s	fa5,fa5,fa3
    5ede:	e094                	fsw	fa3,0(s1)
    5ee0:	00e7f7d3          	fadd.s	fa5,fa5,fa4
    5ee4:	e0dc                	fsw	fa5,4(s1)
    5ee6:	bb55                	j	5c9a <__ieee754_rem_pio2f+0x68>

00005ee8 <__ieee754_sqrtf>:
    5ee8:	e00506d3          	fmv.x.w	a3,fa0
    5eec:	7f800737          	lui	a4,0x7f800
    5ef0:	00169793          	slli	a5,a3,0x1
    5ef4:	8385                	srli	a5,a5,0x1
    5ef6:	08e7f963          	bgeu	a5,a4,5f88 <__ieee754_sqrtf+0xa0>
    5efa:	e0050553          	fmv.x.w	a0,fa0
    5efe:	c3d1                	beqz	a5,5f82 <__ieee754_sqrtf+0x9a>
    5f00:	87b6                	mv	a5,a3
    5f02:	0806cd63          	bltz	a3,5f9c <__ieee754_sqrtf+0xb4>
    5f06:	00d77633          	and	a2,a4,a3
    5f0a:	4176d713          	srai	a4,a3,0x17
    5f0e:	e205                	bnez	a2,5f2e <__ieee754_sqrtf+0x46>
    5f10:	00869613          	slli	a2,a3,0x8
    5f14:	08064d63          	bltz	a2,5fae <__ieee754_sqrtf+0xc6>
    5f18:	4681                	li	a3,0
    5f1a:	a011                	j	5f1e <__ieee754_sqrtf+0x36>
    5f1c:	86b2                	mv	a3,a2
    5f1e:	0786                	slli	a5,a5,0x1
    5f20:	00879593          	slli	a1,a5,0x8
    5f24:	00168613          	addi	a2,a3,1 # 80000001 <_eusrstack+0x5fff8001>
    5f28:	fe05dae3          	bgez	a1,5f1c <__ieee754_sqrtf+0x34>
    5f2c:	8f15                	sub	a4,a4,a3
    5f2e:	008006b7          	lui	a3,0x800
    5f32:	fff68613          	addi	a2,a3,-1 # 7fffff <_data_lma+0x7f3467>
    5f36:	8ff1                	and	a5,a5,a2
    5f38:	f8170713          	addi	a4,a4,-127 # 7f7fff81 <_eusrstack+0x5f7f7f81>
    5f3c:	8edd                	or	a3,a3,a5
    5f3e:	00177613          	andi	a2,a4,1
    5f42:	00169793          	slli	a5,a3,0x1
    5f46:	ea21                	bnez	a2,5f96 <__ieee754_sqrtf+0xae>
    5f48:	40175813          	srai	a6,a4,0x1
    5f4c:	46e5                	li	a3,25
    5f4e:	4501                	li	a0,0
    5f50:	4581                	li	a1,0
    5f52:	01000737          	lui	a4,0x1000
    5f56:	00e58633          	add	a2,a1,a4
    5f5a:	16fd                	addi	a3,a3,-1
    5f5c:	00c7c663          	blt	a5,a2,5f68 <__ieee754_sqrtf+0x80>
    5f60:	00e605b3          	add	a1,a2,a4
    5f64:	8f91                	sub	a5,a5,a2
    5f66:	953a                	add	a0,a0,a4
    5f68:	0786                	slli	a5,a5,0x1
    5f6a:	8305                	srli	a4,a4,0x1
    5f6c:	f6ed                	bnez	a3,5f56 <__ieee754_sqrtf+0x6e>
    5f6e:	c399                	beqz	a5,5f74 <__ieee754_sqrtf+0x8c>
    5f70:	0505                	addi	a0,a0,1
    5f72:	9979                	andi	a0,a0,-2
    5f74:	8505                	srai	a0,a0,0x1
    5f76:	3f0007b7          	lui	a5,0x3f000
    5f7a:	953e                	add	a0,a0,a5
    5f7c:	01781713          	slli	a4,a6,0x17
    5f80:	953a                	add	a0,a0,a4
    5f82:	f0050553          	fmv.w.x	fa0,a0
    5f86:	8082                	ret
    5f88:	50a577c3          	fmadd.s	fa5,fa0,fa0,fa0
    5f8c:	e0078553          	fmv.x.w	a0,fa5
    5f90:	f0050553          	fmv.w.x	fa0,a0
    5f94:	8082                	ret
    5f96:	00269793          	slli	a5,a3,0x2
    5f9a:	b77d                	j	5f48 <__ieee754_sqrtf+0x60>
    5f9c:	08a577d3          	fsub.s	fa5,fa0,fa0
    5fa0:	18f7f7d3          	fdiv.s	fa5,fa5,fa5
    5fa4:	e0078553          	fmv.x.w	a0,fa5
    5fa8:	f0050553          	fmv.w.x	fa0,a0
    5fac:	8082                	ret
    5fae:	56fd                	li	a3,-1
    5fb0:	8f15                	sub	a4,a4,a3
    5fb2:	bfb5                	j	5f2e <__ieee754_sqrtf+0x46>

00005fb4 <__kernel_cos>:
    5fb4:	7139                	addi	sp,sp,-64
    5fb6:	d05a                	sw	s6,32(sp)
    5fb8:	00159b13          	slli	s6,a1,0x1
    5fbc:	d84a                	sw	s2,48(sp)
    5fbe:	d64e                	sw	s3,44(sp)
    5fc0:	cc62                	sw	s8,24(sp)
    5fc2:	ca66                	sw	s9,20(sp)
    5fc4:	de06                	sw	ra,60(sp)
    5fc6:	dc22                	sw	s0,56(sp)
    5fc8:	da26                	sw	s1,52(sp)
    5fca:	d452                	sw	s4,40(sp)
    5fcc:	d256                	sw	s5,36(sp)
    5fce:	ce5e                	sw	s7,28(sp)
    5fd0:	c86a                	sw	s10,16(sp)
    5fd2:	c66e                	sw	s11,12(sp)
    5fd4:	001b5b13          	srli	s6,s6,0x1
    5fd8:	3e4007b7          	lui	a5,0x3e400
    5fdc:	8c2e                	mv	s8,a1
    5fde:	8caa                	mv	s9,a0
    5fe0:	8932                	mv	s2,a2
    5fe2:	89b6                	mv	s3,a3
    5fe4:	10fb5563          	bge	s6,a5,60ee <__kernel_cos+0x13a>
    5fe8:	10e050ef          	jal	ra,b0f6 <__fixdfsi>
    5fec:	26050963          	beqz	a0,625e <__kernel_cos+0x2aa>
    5ff0:	8666                	mv	a2,s9
    5ff2:	86e2                	mv	a3,s8
    5ff4:	8566                	mv	a0,s9
    5ff6:	85e2                	mv	a1,s8
    5ff8:	01c040ef          	jal	ra,a014 <__muldf3>
    5ffc:	00007797          	auipc	a5,0x7
    6000:	84c78793          	addi	a5,a5,-1972 # c848 <two_over_pi+0x330>
    6004:	4390                	lw	a2,0(a5)
    6006:	43d4                	lw	a3,4(a5)
    6008:	842a                	mv	s0,a0
    600a:	84ae                	mv	s1,a1
    600c:	008040ef          	jal	ra,a014 <__muldf3>
    6010:	00007797          	auipc	a5,0x7
    6014:	84078793          	addi	a5,a5,-1984 # c850 <two_over_pi+0x338>
    6018:	4390                	lw	a2,0(a5)
    601a:	43d4                	lw	a3,4(a5)
    601c:	3fd020ef          	jal	ra,8c18 <__adddf3>
    6020:	8622                	mv	a2,s0
    6022:	86a6                	mv	a3,s1
    6024:	7f1030ef          	jal	ra,a014 <__muldf3>
    6028:	00007797          	auipc	a5,0x7
    602c:	83078793          	addi	a5,a5,-2000 # c858 <two_over_pi+0x340>
    6030:	4390                	lw	a2,0(a5)
    6032:	43d4                	lw	a3,4(a5)
    6034:	636040ef          	jal	ra,a66a <__subdf3>
    6038:	8622                	mv	a2,s0
    603a:	86a6                	mv	a3,s1
    603c:	7d9030ef          	jal	ra,a014 <__muldf3>
    6040:	00007797          	auipc	a5,0x7
    6044:	82078793          	addi	a5,a5,-2016 # c860 <two_over_pi+0x348>
    6048:	4390                	lw	a2,0(a5)
    604a:	43d4                	lw	a3,4(a5)
    604c:	3cd020ef          	jal	ra,8c18 <__adddf3>
    6050:	8622                	mv	a2,s0
    6052:	86a6                	mv	a3,s1
    6054:	7c1030ef          	jal	ra,a014 <__muldf3>
    6058:	00007797          	auipc	a5,0x7
    605c:	81078793          	addi	a5,a5,-2032 # c868 <two_over_pi+0x350>
    6060:	4390                	lw	a2,0(a5)
    6062:	43d4                	lw	a3,4(a5)
    6064:	606040ef          	jal	ra,a66a <__subdf3>
    6068:	8622                	mv	a2,s0
    606a:	86a6                	mv	a3,s1
    606c:	7a9030ef          	jal	ra,a014 <__muldf3>
    6070:	00007797          	auipc	a5,0x7
    6074:	80078793          	addi	a5,a5,-2048 # c870 <two_over_pi+0x358>
    6078:	4390                	lw	a2,0(a5)
    607a:	43d4                	lw	a3,4(a5)
    607c:	39d020ef          	jal	ra,8c18 <__adddf3>
    6080:	8622                	mv	a2,s0
    6082:	86a6                	mv	a3,s1
    6084:	791030ef          	jal	ra,a014 <__muldf3>
    6088:	8a2a                	mv	s4,a0
    608a:	8aae                	mv	s5,a1
    608c:	00006797          	auipc	a5,0x6
    6090:	22c78793          	addi	a5,a5,556 # c2b8 <strlen+0x800>
    6094:	4390                	lw	a2,0(a5)
    6096:	43d4                	lw	a3,4(a5)
    6098:	8522                	mv	a0,s0
    609a:	85a6                	mv	a1,s1
    609c:	779030ef          	jal	ra,a014 <__muldf3>
    60a0:	8b2a                	mv	s6,a0
    60a2:	8bae                	mv	s7,a1
    60a4:	8652                	mv	a2,s4
    60a6:	86d6                	mv	a3,s5
    60a8:	8522                	mv	a0,s0
    60aa:	85a6                	mv	a1,s1
    60ac:	769030ef          	jal	ra,a014 <__muldf3>
    60b0:	842a                	mv	s0,a0
    60b2:	84ae                	mv	s1,a1
    60b4:	864a                	mv	a2,s2
    60b6:	86ce                	mv	a3,s3
    60b8:	8566                	mv	a0,s9
    60ba:	85e2                	mv	a1,s8
    60bc:	759030ef          	jal	ra,a014 <__muldf3>
    60c0:	862a                	mv	a2,a0
    60c2:	86ae                	mv	a3,a1
    60c4:	8522                	mv	a0,s0
    60c6:	85a6                	mv	a1,s1
    60c8:	5a2040ef          	jal	ra,a66a <__subdf3>
    60cc:	862a                	mv	a2,a0
    60ce:	86ae                	mv	a3,a1
    60d0:	855a                	mv	a0,s6
    60d2:	85de                	mv	a1,s7
    60d4:	596040ef          	jal	ra,a66a <__subdf3>
    60d8:	00006797          	auipc	a5,0x6
    60dc:	76878793          	addi	a5,a5,1896 # c840 <two_over_pi+0x328>
    60e0:	862a                	mv	a2,a0
    60e2:	86ae                	mv	a3,a1
    60e4:	4388                	lw	a0,0(a5)
    60e6:	43cc                	lw	a1,4(a5)
    60e8:	582040ef          	jal	ra,a66a <__subdf3>
    60ec:	aa0d                	j	621e <__kernel_cos+0x26a>
    60ee:	862a                	mv	a2,a0
    60f0:	86ae                	mv	a3,a1
    60f2:	723030ef          	jal	ra,a014 <__muldf3>
    60f6:	00006797          	auipc	a5,0x6
    60fa:	75278793          	addi	a5,a5,1874 # c848 <two_over_pi+0x330>
    60fe:	4390                	lw	a2,0(a5)
    6100:	43d4                	lw	a3,4(a5)
    6102:	842a                	mv	s0,a0
    6104:	84ae                	mv	s1,a1
    6106:	70f030ef          	jal	ra,a014 <__muldf3>
    610a:	00006797          	auipc	a5,0x6
    610e:	74678793          	addi	a5,a5,1862 # c850 <two_over_pi+0x338>
    6112:	4390                	lw	a2,0(a5)
    6114:	43d4                	lw	a3,4(a5)
    6116:	303020ef          	jal	ra,8c18 <__adddf3>
    611a:	8622                	mv	a2,s0
    611c:	86a6                	mv	a3,s1
    611e:	6f7030ef          	jal	ra,a014 <__muldf3>
    6122:	00006797          	auipc	a5,0x6
    6126:	73678793          	addi	a5,a5,1846 # c858 <two_over_pi+0x340>
    612a:	4390                	lw	a2,0(a5)
    612c:	43d4                	lw	a3,4(a5)
    612e:	53c040ef          	jal	ra,a66a <__subdf3>
    6132:	8622                	mv	a2,s0
    6134:	86a6                	mv	a3,s1
    6136:	6df030ef          	jal	ra,a014 <__muldf3>
    613a:	00006797          	auipc	a5,0x6
    613e:	72678793          	addi	a5,a5,1830 # c860 <two_over_pi+0x348>
    6142:	4390                	lw	a2,0(a5)
    6144:	43d4                	lw	a3,4(a5)
    6146:	2d3020ef          	jal	ra,8c18 <__adddf3>
    614a:	8622                	mv	a2,s0
    614c:	86a6                	mv	a3,s1
    614e:	6c7030ef          	jal	ra,a014 <__muldf3>
    6152:	00006797          	auipc	a5,0x6
    6156:	71678793          	addi	a5,a5,1814 # c868 <two_over_pi+0x350>
    615a:	4390                	lw	a2,0(a5)
    615c:	43d4                	lw	a3,4(a5)
    615e:	50c040ef          	jal	ra,a66a <__subdf3>
    6162:	8622                	mv	a2,s0
    6164:	86a6                	mv	a3,s1
    6166:	6af030ef          	jal	ra,a014 <__muldf3>
    616a:	00006797          	auipc	a5,0x6
    616e:	70678793          	addi	a5,a5,1798 # c870 <two_over_pi+0x358>
    6172:	4390                	lw	a2,0(a5)
    6174:	43d4                	lw	a3,4(a5)
    6176:	2a3020ef          	jal	ra,8c18 <__adddf3>
    617a:	8622                	mv	a2,s0
    617c:	86a6                	mv	a3,s1
    617e:	697030ef          	jal	ra,a014 <__muldf3>
    6182:	3fd337b7          	lui	a5,0x3fd33
    6186:	33278793          	addi	a5,a5,818 # 3fd33332 <_eusrstack+0x1fd2b332>
    618a:	8a2a                	mv	s4,a0
    618c:	8aae                	mv	s5,a1
    618e:	ef67dfe3          	bge	a5,s6,608c <__kernel_cos+0xd8>
    6192:	3fe907b7          	lui	a5,0x3fe90
    6196:	0b67c363          	blt	a5,s6,623c <__kernel_cos+0x288>
    619a:	00006717          	auipc	a4,0x6
    619e:	6a670713          	addi	a4,a4,1702 # c840 <two_over_pi+0x328>
    61a2:	ffe007b7          	lui	a5,0xffe00
    61a6:	4308                	lw	a0,0(a4)
    61a8:	434c                	lw	a1,4(a4)
    61aa:	9b3e                	add	s6,s6,a5
    61ac:	4781                	li	a5,0
    61ae:	86da                	mv	a3,s6
    61b0:	863e                	mv	a2,a5
    61b2:	8d3e                	mv	s10,a5
    61b4:	4b6040ef          	jal	ra,a66a <__subdf3>
    61b8:	8dda                	mv	s11,s6
    61ba:	8bae                	mv	s7,a1
    61bc:	8b2a                	mv	s6,a0
    61be:	00006797          	auipc	a5,0x6
    61c2:	0fa78793          	addi	a5,a5,250 # c2b8 <strlen+0x800>
    61c6:	4390                	lw	a2,0(a5)
    61c8:	43d4                	lw	a3,4(a5)
    61ca:	8522                	mv	a0,s0
    61cc:	85a6                	mv	a1,s1
    61ce:	647030ef          	jal	ra,a014 <__muldf3>
    61d2:	866a                	mv	a2,s10
    61d4:	86ee                	mv	a3,s11
    61d6:	494040ef          	jal	ra,a66a <__subdf3>
    61da:	8d2a                	mv	s10,a0
    61dc:	8dae                	mv	s11,a1
    61de:	8652                	mv	a2,s4
    61e0:	86d6                	mv	a3,s5
    61e2:	8522                	mv	a0,s0
    61e4:	85a6                	mv	a1,s1
    61e6:	62f030ef          	jal	ra,a014 <__muldf3>
    61ea:	842a                	mv	s0,a0
    61ec:	84ae                	mv	s1,a1
    61ee:	864a                	mv	a2,s2
    61f0:	86ce                	mv	a3,s3
    61f2:	8566                	mv	a0,s9
    61f4:	85e2                	mv	a1,s8
    61f6:	61f030ef          	jal	ra,a014 <__muldf3>
    61fa:	862a                	mv	a2,a0
    61fc:	86ae                	mv	a3,a1
    61fe:	8522                	mv	a0,s0
    6200:	85a6                	mv	a1,s1
    6202:	468040ef          	jal	ra,a66a <__subdf3>
    6206:	862a                	mv	a2,a0
    6208:	86ae                	mv	a3,a1
    620a:	856a                	mv	a0,s10
    620c:	85ee                	mv	a1,s11
    620e:	45c040ef          	jal	ra,a66a <__subdf3>
    6212:	862a                	mv	a2,a0
    6214:	86ae                	mv	a3,a1
    6216:	855a                	mv	a0,s6
    6218:	85de                	mv	a1,s7
    621a:	450040ef          	jal	ra,a66a <__subdf3>
    621e:	50f2                	lw	ra,60(sp)
    6220:	5462                	lw	s0,56(sp)
    6222:	54d2                	lw	s1,52(sp)
    6224:	5942                	lw	s2,48(sp)
    6226:	59b2                	lw	s3,44(sp)
    6228:	5a22                	lw	s4,40(sp)
    622a:	5a92                	lw	s5,36(sp)
    622c:	5b02                	lw	s6,32(sp)
    622e:	4bf2                	lw	s7,28(sp)
    6230:	4c62                	lw	s8,24(sp)
    6232:	4cd2                	lw	s9,20(sp)
    6234:	4d42                	lw	s10,16(sp)
    6236:	4db2                	lw	s11,12(sp)
    6238:	6121                	addi	sp,sp,64
    623a:	8082                	ret
    623c:	00006797          	auipc	a5,0x6
    6240:	5f478793          	addi	a5,a5,1524 # c830 <two_over_pi+0x318>
    6244:	0007ab03          	lw	s6,0(a5)
    6248:	0047ab83          	lw	s7,4(a5)
    624c:	00006797          	auipc	a5,0x6
    6250:	5ec78793          	addi	a5,a5,1516 # c838 <two_over_pi+0x320>
    6254:	0007ad03          	lw	s10,0(a5)
    6258:	0047ad83          	lw	s11,4(a5)
    625c:	b78d                	j	61be <__kernel_cos+0x20a>
    625e:	00006797          	auipc	a5,0x6
    6262:	5e278793          	addi	a5,a5,1506 # c840 <two_over_pi+0x328>
    6266:	4388                	lw	a0,0(a5)
    6268:	43cc                	lw	a1,4(a5)
    626a:	bf55                	j	621e <__kernel_cos+0x26a>

0000626c <__kernel_rem_pio2>:
    626c:	d5010113          	addi	sp,sp,-688
    6270:	29412c23          	sw	s4,664(sp)
    6274:	8a36                	mv	s4,a3
    6276:	00271813          	slli	a6,a4,0x2
    627a:	dc3a                	sw	a4,56(sp)
    627c:	d03e                	sw	a5,32(sp)
    627e:	00006717          	auipc	a4,0x6
    6282:	65270713          	addi	a4,a4,1618 # c8d0 <init_jk>
    6286:	fffa0793          	addi	a5,s4,-1
    628a:	29912223          	sw	s9,644(sp)
    628e:	9742                	add	a4,a4,a6
    6290:	2a112623          	sw	ra,684(sp)
    6294:	2a812423          	sw	s0,680(sp)
    6298:	2a912223          	sw	s1,676(sp)
    629c:	2b212023          	sw	s2,672(sp)
    62a0:	29312e23          	sw	s3,668(sp)
    62a4:	29512a23          	sw	s5,660(sp)
    62a8:	29612823          	sw	s6,656(sp)
    62ac:	29712623          	sw	s7,652(sp)
    62b0:	29812423          	sw	s8,648(sp)
    62b4:	29a12023          	sw	s10,640(sp)
    62b8:	27b12e23          	sw	s11,636(sp)
    62bc:	56b1                	li	a3,-20
    62be:	cc2a                	sw	a0,24(sp)
    62c0:	da2e                	sw	a1,52(sp)
    62c2:	c83e                	sw	a5,16(sp)
    62c4:	00072c83          	lw	s9,0(a4)
    62c8:	00d642e3          	blt	a2,a3,6acc <__kernel_rem_pio2+0x860>
    62cc:	ffd60713          	addi	a4,a2,-3
    62d0:	47e1                	li	a5,24
    62d2:	02f747b3          	div	a5,a4,a5
    62d6:	d43e                	sw	a5,40(sp)
    62d8:	0785                	addi	a5,a5,1
    62da:	00279713          	slli	a4,a5,0x2
    62de:	8f99                	sub	a5,a5,a4
    62e0:	078e                	slli	a5,a5,0x3
    62e2:	55a2                	lw	a1,40(sp)
    62e4:	fffa0693          	addi	a3,s4,-1
    62e8:	00dc8733          	add	a4,s9,a3
    62ec:	97b2                	add	a5,a5,a2
    62ee:	40d58433          	sub	s0,a1,a3
    62f2:	00170913          	addi	s2,a4,1
    62f6:	ce3e                	sw	a5,28(sp)
    62f8:	0904                	addi	s1,sp,144
    62fa:	9922                	add	s2,s2,s0
    62fc:	02074363          	bltz	a4,6322 <__kernel_rem_pio2+0xb6>
    6300:	5702                	lw	a4,32(sp)
    6302:	00241793          	slli	a5,s0,0x2
    6306:	4501                	li	a0,0
    6308:	97ba                	add	a5,a5,a4
    630a:	4581                	li	a1,0
    630c:	00044563          	bltz	s0,6316 <__kernel_rem_pio2+0xaa>
    6310:	4388                	lw	a0,0(a5)
    6312:	6bd040ef          	jal	ra,b1ce <__floatsidf>
    6316:	c088                	sw	a0,0(s1)
    6318:	c0cc                	sw	a1,4(s1)
    631a:	0405                	addi	s0,s0,1
    631c:	04a1                	addi	s1,s1,8
    631e:	ff2411e3          	bne	s0,s2,6300 <__kernel_rem_pio2+0x94>
    6322:	060cc563          	bltz	s9,638c <__kernel_rem_pio2+0x120>
    6326:	47c2                	lw	a5,16(sp)
    6328:	003c9993          	slli	s3,s9,0x3
    632c:	0b84                	addi	s1,sp,464
    632e:	00379913          	slli	s2,a5,0x3
    6332:	091c                	addi	a5,sp,144
    6334:	00890413          	addi	s0,s2,8 # 1008 <GPIO_Init+0xb8>
    6338:	993e                	add	s2,s2,a5
    633a:	0bbc                	addi	a5,sp,472
    633c:	99be                	add	s3,s3,a5
    633e:	47e2                	lw	a5,24(sp)
    6340:	943e                	add	s0,s0,a5
    6342:	47c2                	lw	a5,16(sp)
    6344:	8b4a                	mv	s6,s2
    6346:	4ae2                	lw	s5,24(sp)
    6348:	4d01                	li	s10,0
    634a:	4d81                	li	s11,0
    634c:	0207c863          	bltz	a5,637c <__kernel_rem_pio2+0x110>
    6350:	000b2603          	lw	a2,0(s6)
    6354:	004b2683          	lw	a3,4(s6)
    6358:	000aa503          	lw	a0,0(s5)
    635c:	004aa583          	lw	a1,4(s5)
    6360:	0aa1                	addi	s5,s5,8
    6362:	1b61                	addi	s6,s6,-8
    6364:	4b1030ef          	jal	ra,a014 <__muldf3>
    6368:	862a                	mv	a2,a0
    636a:	86ae                	mv	a3,a1
    636c:	856a                	mv	a0,s10
    636e:	85ee                	mv	a1,s11
    6370:	0a9020ef          	jal	ra,8c18 <__adddf3>
    6374:	8d2a                	mv	s10,a0
    6376:	8dae                	mv	s11,a1
    6378:	fc8a9ce3          	bne	s5,s0,6350 <__kernel_rem_pio2+0xe4>
    637c:	01a4a023          	sw	s10,0(s1)
    6380:	01b4a223          	sw	s11,4(s1)
    6384:	04a1                	addi	s1,s1,8
    6386:	0921                	addi	s2,s2,8
    6388:	fb349de3          	bne	s1,s3,6342 <__kernel_rem_pio2+0xd6>
    638c:	002c9d93          	slli	s11,s9,0x2
    6390:	1874                	addi	a3,sp,60
    6392:	96ee                	add	a3,a3,s11
    6394:	ff8d8713          	addi	a4,s11,-8
    6398:	ca36                	sw	a3,20(sp)
    639a:	0094                	addi	a3,sp,64
    639c:	9736                	add	a4,a4,a3
    639e:	d83a                	sw	a4,48(sp)
    63a0:	4762                	lw	a4,24(sp)
    63a2:	003a1413          	slli	s0,s4,0x3
    63a6:	fffc8793          	addi	a5,s9,-1
    63aa:	943a                	add	s0,s0,a4
    63ac:	20000737          	lui	a4,0x20000
    63b0:	177d                	addi	a4,a4,-1
    63b2:	d23a                	sw	a4,36(sp)
    63b4:	00800737          	lui	a4,0x800
    63b8:	177d                	addi	a4,a4,-1
    63ba:	078a                	slli	a5,a5,0x2
    63bc:	de3a                	sw	a4,60(sp)
    63be:	1c98                	addi	a4,sp,624
    63c0:	97ba                	add	a5,a5,a4
    63c2:	89e6                	mv	s3,s9
    63c4:	1d010c13          	addi	s8,sp,464
    63c8:	d63e                	sw	a5,44(sp)
    63ca:	00399793          	slli	a5,s3,0x3
    63ce:	1c98                	addi	a4,sp,624
    63d0:	97ba                	add	a5,a5,a4
    63d2:	f607ab03          	lw	s6,-160(a5)
    63d6:	f647ab83          	lw	s7,-156(a5)
    63da:	09305363          	blez	s3,6460 <__kernel_rem_pio2+0x1f4>
    63de:	5792                	lw	a5,36(sp)
    63e0:	00006697          	auipc	a3,0x6
    63e4:	4e068693          	addi	a3,a3,1248 # c8c0 <PIo2+0x48>
    63e8:	0006ad03          	lw	s10,0(a3)
    63ec:	0046ad83          	lw	s11,4(a3)
    63f0:	00006697          	auipc	a3,0x6
    63f4:	ee068693          	addi	a3,a3,-288 # c2d0 <strlen+0x818>
    63f8:	00f984b3          	add	s1,s3,a5
    63fc:	0046a803          	lw	a6,4(a3)
    6400:	429c                	lw	a5,0(a3)
    6402:	048e                	slli	s1,s1,0x3
    6404:	94e2                	add	s1,s1,s8
    6406:	04010913          	addi	s2,sp,64
    640a:	c43e                	sw	a5,8(sp)
    640c:	c642                	sw	a6,12(sp)
    640e:	a011                	j	6412 <__kernel_rem_pio2+0x1a6>
    6410:	84b6                	mv	s1,a3
    6412:	866a                	mv	a2,s10
    6414:	86ee                	mv	a3,s11
    6416:	855a                	mv	a0,s6
    6418:	85de                	mv	a1,s7
    641a:	3fb030ef          	jal	ra,a014 <__muldf3>
    641e:	4d9040ef          	jal	ra,b0f6 <__fixdfsi>
    6422:	5ad040ef          	jal	ra,b1ce <__floatsidf>
    6426:	4622                	lw	a2,8(sp)
    6428:	46b2                	lw	a3,12(sp)
    642a:	8a2a                	mv	s4,a0
    642c:	8aae                	mv	s5,a1
    642e:	3e7030ef          	jal	ra,a014 <__muldf3>
    6432:	862a                	mv	a2,a0
    6434:	86ae                	mv	a3,a1
    6436:	855a                	mv	a0,s6
    6438:	85de                	mv	a1,s7
    643a:	230040ef          	jal	ra,a66a <__subdf3>
    643e:	4b9040ef          	jal	ra,b0f6 <__fixdfsi>
    6442:	40d4                	lw	a3,4(s1)
    6444:	4090                	lw	a2,0(s1)
    6446:	00a92023          	sw	a0,0(s2)
    644a:	85d6                	mv	a1,s5
    644c:	8552                	mv	a0,s4
    644e:	7ca020ef          	jal	ra,8c18 <__adddf3>
    6452:	8b2a                	mv	s6,a0
    6454:	8bae                	mv	s7,a1
    6456:	ff848693          	addi	a3,s1,-8
    645a:	0911                	addi	s2,s2,4
    645c:	fa9c1ae3          	bne	s8,s1,6410 <__kernel_rem_pio2+0x1a4>
    6460:	4972                	lw	s2,28(sp)
    6462:	855a                	mv	a0,s6
    6464:	85de                	mv	a1,s7
    6466:	864a                	mv	a2,s2
    6468:	332010ef          	jal	ra,779a <scalbn>
    646c:	00006797          	auipc	a5,0x6
    6470:	45c78793          	addi	a5,a5,1116 # c8c8 <PIo2+0x50>
    6474:	4390                	lw	a2,0(a5)
    6476:	43d4                	lw	a3,4(a5)
    6478:	8a2a                	mv	s4,a0
    647a:	8aae                	mv	s5,a1
    647c:	399030ef          	jal	ra,a014 <__muldf3>
    6480:	1be010ef          	jal	ra,763e <floor>
    6484:	00006797          	auipc	a5,0x6
    6488:	87c78793          	addi	a5,a5,-1924 # bd00 <strlen+0x248>
    648c:	4390                	lw	a2,0(a5)
    648e:	43d4                	lw	a3,4(a5)
    6490:	385030ef          	jal	ra,a014 <__muldf3>
    6494:	862a                	mv	a2,a0
    6496:	86ae                	mv	a3,a1
    6498:	8552                	mv	a0,s4
    649a:	85d6                	mv	a1,s5
    649c:	1ce040ef          	jal	ra,a66a <__subdf3>
    64a0:	8aae                	mv	s5,a1
    64a2:	8a2a                	mv	s4,a0
    64a4:	453040ef          	jal	ra,b0f6 <__fixdfsi>
    64a8:	84aa                	mv	s1,a0
    64aa:	525040ef          	jal	ra,b1ce <__floatsidf>
    64ae:	862a                	mv	a2,a0
    64b0:	86ae                	mv	a3,a1
    64b2:	8552                	mv	a0,s4
    64b4:	85d6                	mv	a1,s5
    64b6:	1b4040ef          	jal	ra,a66a <__subdf3>
    64ba:	8a2a                	mv	s4,a0
    64bc:	8aae                	mv	s5,a1
    64be:	864a                	mv	a2,s2
    64c0:	13205963          	blez	s2,65f2 <__kernel_rem_pio2+0x386>
    64c4:	fff98793          	addi	a5,s3,-1
    64c8:	1c98                	addi	a4,sp,624
    64ca:	078a                	slli	a5,a5,0x2
    64cc:	97ba                	add	a5,a5,a4
    64ce:	dd07a903          	lw	s2,-560(a5)
    64d2:	4761                	li	a4,24
    64d4:	8f11                	sub	a4,a4,a2
    64d6:	40e956b3          	sra	a3,s2,a4
    64da:	00e69733          	sll	a4,a3,a4
    64de:	40e90733          	sub	a4,s2,a4
    64e2:	495d                	li	s2,23
    64e4:	40c90933          	sub	s2,s2,a2
    64e8:	dce7a823          	sw	a4,-560(a5)
    64ec:	41275933          	sra	s2,a4,s2
    64f0:	94b6                	add	s1,s1,a3
    64f2:	11204e63          	bgtz	s2,660e <__kernel_rem_pio2+0x3a2>
    64f6:	4601                	li	a2,0
    64f8:	4681                	li	a3,0
    64fa:	8552                	mv	a0,s4
    64fc:	85d6                	mv	a1,s5
    64fe:	113030ef          	jal	ra,9e10 <__eqdf2>
    6502:	1a051963          	bnez	a0,66b4 <__kernel_rem_pio2+0x448>
    6506:	fff98a13          	addi	s4,s3,-1
    650a:	039a4063          	blt	s4,s9,652a <__kernel_rem_pio2+0x2be>
    650e:	00299793          	slli	a5,s3,0x2
    6512:	0098                	addi	a4,sp,64
    6514:	17f1                	addi	a5,a5,-4
    6516:	97ba                	add	a5,a5,a4
    6518:	4701                	li	a4,0
    651a:	4394                	lw	a3,0(a5)
    651c:	17f1                	addi	a5,a5,-4
    651e:	8f55                	or	a4,a4,a3
    6520:	46d2                	lw	a3,20(sp)
    6522:	fed79ce3          	bne	a5,a3,651a <__kernel_rem_pio2+0x2ae>
    6526:	42071b63          	bnez	a4,695c <__kernel_rem_pio2+0x6f0>
    652a:	57b2                	lw	a5,44(sp)
    652c:	dd07a783          	lw	a5,-560(a5)
    6530:	42079163          	bnez	a5,6952 <__kernel_rem_pio2+0x6e6>
    6534:	57c2                	lw	a5,48(sp)
    6536:	4705                	li	a4,1
    6538:	17f1                	addi	a5,a5,-4
    653a:	43d4                	lw	a3,4(a5)
    653c:	0705                	addi	a4,a4,1
    653e:	deed                	beqz	a3,6538 <__kernel_rem_pio2+0x2cc>
    6540:	00198793          	addi	a5,s3,1
    6544:	8abe                	mv	s5,a5
    6546:	99ba                	add	s3,s3,a4
    6548:	4742                	lw	a4,16(sp)
    654a:	00f704b3          	add	s1,a4,a5
    654e:	5722                	lw	a4,40(sp)
    6550:	00f70a33          	add	s4,a4,a5
    6554:	5712                	lw	a4,36(sp)
    6556:	0a0a                	slli	s4,s4,0x2
    6558:	078e                	slli	a5,a5,0x3
    655a:	94ba                	add	s1,s1,a4
    655c:	5702                	lw	a4,32(sp)
    655e:	048e                	slli	s1,s1,0x3
    6560:	00fc0933          	add	s2,s8,a5
    6564:	9a3a                	add	s4,s4,a4
    6566:	000a2503          	lw	a0,0(s4)
    656a:	091c                	addi	a5,sp,144
    656c:	94be                	add	s1,s1,a5
    656e:	461040ef          	jal	ra,b1ce <__floatsidf>
    6572:	47c2                	lw	a5,16(sp)
    6574:	c488                	sw	a0,8(s1)
    6576:	c4cc                	sw	a1,12(s1)
    6578:	0607c063          	bltz	a5,65d8 <__kernel_rem_pio2+0x36c>
    657c:	8ba6                	mv	s7,s1
    657e:	4b62                	lw	s6,24(sp)
    6580:	4d01                	li	s10,0
    6582:	4d81                	li	s11,0
    6584:	a031                	j	6590 <__kernel_rem_pio2+0x324>
    6586:	000ba503          	lw	a0,0(s7)
    658a:	004ba583          	lw	a1,4(s7)
    658e:	1be1                	addi	s7,s7,-8
    6590:	000b2603          	lw	a2,0(s6)
    6594:	004b2683          	lw	a3,4(s6)
    6598:	0b21                	addi	s6,s6,8
    659a:	27b030ef          	jal	ra,a014 <__muldf3>
    659e:	862a                	mv	a2,a0
    65a0:	86ae                	mv	a3,a1
    65a2:	856a                	mv	a0,s10
    65a4:	85ee                	mv	a1,s11
    65a6:	672020ef          	jal	ra,8c18 <__adddf3>
    65aa:	8d2a                	mv	s10,a0
    65ac:	8dae                	mv	s11,a1
    65ae:	fc8b1ce3          	bne	s6,s0,6586 <__kernel_rem_pio2+0x31a>
    65b2:	01a92023          	sw	s10,0(s2)
    65b6:	01b92223          	sw	s11,4(s2)
    65ba:	0a85                	addi	s5,s5,1
    65bc:	0a11                	addi	s4,s4,4
    65be:	0921                	addi	s2,s2,8
    65c0:	04a1                	addi	s1,s1,8
    65c2:	e159c4e3          	blt	s3,s5,63ca <__kernel_rem_pio2+0x15e>
    65c6:	000a2503          	lw	a0,0(s4)
    65ca:	405040ef          	jal	ra,b1ce <__floatsidf>
    65ce:	47c2                	lw	a5,16(sp)
    65d0:	c488                	sw	a0,8(s1)
    65d2:	c4cc                	sw	a1,12(s1)
    65d4:	fa07d4e3          	bgez	a5,657c <__kernel_rem_pio2+0x310>
    65d8:	4d01                	li	s10,0
    65da:	4d81                	li	s11,0
    65dc:	01a92023          	sw	s10,0(s2)
    65e0:	01b92223          	sw	s11,4(s2)
    65e4:	0a85                	addi	s5,s5,1
    65e6:	0a11                	addi	s4,s4,4
    65e8:	0921                	addi	s2,s2,8
    65ea:	04a1                	addi	s1,s1,8
    65ec:	fd59dde3          	bge	s3,s5,65c6 <__kernel_rem_pio2+0x35a>
    65f0:	bbe9                	j	63ca <__kernel_rem_pio2+0x15e>
    65f2:	47f2                	lw	a5,28(sp)
    65f4:	32079363          	bnez	a5,691a <__kernel_rem_pio2+0x6ae>
    65f8:	fff98793          	addi	a5,s3,-1
    65fc:	078a                	slli	a5,a5,0x2
    65fe:	1c98                	addi	a4,sp,624
    6600:	97ba                	add	a5,a5,a4
    6602:	dd07a903          	lw	s2,-560(a5)
    6606:	41795913          	srai	s2,s2,0x17
    660a:	ef2056e3          	blez	s2,64f6 <__kernel_rem_pio2+0x28a>
    660e:	0485                	addi	s1,s1,1
    6610:	4d305263          	blez	s3,6ad4 <__kernel_rem_pio2+0x868>
    6614:	4b06                	lw	s6,64(sp)
    6616:	4785                	li	a5,1
    6618:	2c0b1063          	bnez	s6,68d8 <__kernel_rem_pio2+0x66c>
    661c:	00f98e63          	beq	s3,a5,6638 <__kernel_rem_pio2+0x3cc>
    6620:	00d4                	addi	a3,sp,68
    6622:	4705                	li	a4,1
    6624:	0006ab03          	lw	s6,0(a3)
    6628:	00170793          	addi	a5,a4,1 # 800001 <_data_lma+0x7f3469>
    662c:	0691                	addi	a3,a3,4
    662e:	2a0b1663          	bnez	s6,68da <__kernel_rem_pio2+0x66e>
    6632:	873e                	mv	a4,a5
    6634:	fef998e3          	bne	s3,a5,6624 <__kernel_rem_pio2+0x3b8>
    6638:	4772                	lw	a4,28(sp)
    663a:	02e05363          	blez	a4,6660 <__kernel_rem_pio2+0x3f4>
    663e:	4785                	li	a5,1
    6640:	46f70a63          	beq	a4,a5,6ab4 <__kernel_rem_pio2+0x848>
    6644:	4789                	li	a5,2
    6646:	00f71d63          	bne	a4,a5,6660 <__kernel_rem_pio2+0x3f4>
    664a:	fff98793          	addi	a5,s3,-1
    664e:	1c98                	addi	a4,sp,624
    6650:	078a                	slli	a5,a5,0x2
    6652:	97ba                	add	a5,a5,a4
    6654:	dd07a703          	lw	a4,-560(a5)
    6658:	072a                	slli	a4,a4,0xa
    665a:	8329                	srli	a4,a4,0xa
    665c:	dce7a823          	sw	a4,-560(a5)
    6660:	4789                	li	a5,2
    6662:	e8f91ae3          	bne	s2,a5,64f6 <__kernel_rem_pio2+0x28a>
    6666:	00006797          	auipc	a5,0x6
    666a:	1da78793          	addi	a5,a5,474 # c840 <two_over_pi+0x328>
    666e:	4388                	lw	a0,0(a5)
    6670:	43cc                	lw	a1,4(a5)
    6672:	8652                	mv	a2,s4
    6674:	86d6                	mv	a3,s5
    6676:	7f5030ef          	jal	ra,a66a <__subdf3>
    667a:	8a2a                	mv	s4,a0
    667c:	8aae                	mv	s5,a1
    667e:	e60b0ce3          	beqz	s6,64f6 <__kernel_rem_pio2+0x28a>
    6682:	00006797          	auipc	a5,0x6
    6686:	1be78793          	addi	a5,a5,446 # c840 <two_over_pi+0x328>
    668a:	4388                	lw	a0,0(a5)
    668c:	43cc                	lw	a1,4(a5)
    668e:	4672                	lw	a2,28(sp)
    6690:	10a010ef          	jal	ra,779a <scalbn>
    6694:	862a                	mv	a2,a0
    6696:	86ae                	mv	a3,a1
    6698:	8552                	mv	a0,s4
    669a:	85d6                	mv	a1,s5
    669c:	7cf030ef          	jal	ra,a66a <__subdf3>
    66a0:	8a2a                	mv	s4,a0
    66a2:	8aae                	mv	s5,a1
    66a4:	4601                	li	a2,0
    66a6:	4681                	li	a3,0
    66a8:	8552                	mv	a0,s4
    66aa:	85d6                	mv	a1,s5
    66ac:	764030ef          	jal	ra,9e10 <__eqdf2>
    66b0:	e4050be3          	beqz	a0,6506 <__kernel_rem_pio2+0x29a>
    66b4:	4c72                	lw	s8,28(sp)
    66b6:	8552                	mv	a0,s4
    66b8:	85d6                	mv	a1,s5
    66ba:	41800633          	neg	a2,s8
    66be:	0dc010ef          	jal	ra,779a <scalbn>
    66c2:	00006797          	auipc	a5,0x6
    66c6:	c0e78793          	addi	a5,a5,-1010 # c2d0 <strlen+0x818>
    66ca:	0007ab03          	lw	s6,0(a5)
    66ce:	0047ab83          	lw	s7,4(a5)
    66d2:	8d2a                	mv	s10,a0
    66d4:	865a                	mv	a2,s6
    66d6:	86de                	mv	a3,s7
    66d8:	8dae                	mv	s11,a1
    66da:	7ce030ef          	jal	ra,9ea8 <__gedf2>
    66de:	46054a63          	bltz	a0,6b52 <__kernel_rem_pio2+0x8e6>
    66e2:	00006697          	auipc	a3,0x6
    66e6:	1de68693          	addi	a3,a3,478 # c8c0 <PIo2+0x48>
    66ea:	4290                	lw	a2,0(a3)
    66ec:	42d4                	lw	a3,4(a3)
    66ee:	856a                	mv	a0,s10
    66f0:	85ee                	mv	a1,s11
    66f2:	123030ef          	jal	ra,a014 <__muldf3>
    66f6:	201040ef          	jal	ra,b0f6 <__fixdfsi>
    66fa:	1c9c                	addi	a5,sp,624
    66fc:	00299413          	slli	s0,s3,0x2
    6700:	943e                	add	s0,s0,a5
    6702:	8aaa                	mv	s5,a0
    6704:	2cb040ef          	jal	ra,b1ce <__floatsidf>
    6708:	865a                	mv	a2,s6
    670a:	86de                	mv	a3,s7
    670c:	109030ef          	jal	ra,a014 <__muldf3>
    6710:	862a                	mv	a2,a0
    6712:	86ae                	mv	a3,a1
    6714:	856a                	mv	a0,s10
    6716:	85ee                	mv	a1,s11
    6718:	753030ef          	jal	ra,a66a <__subdf3>
    671c:	1db040ef          	jal	ra,b0f6 <__fixdfsi>
    6720:	00198a13          	addi	s4,s3,1
    6724:	1c98                	addi	a4,sp,624
    6726:	002a1793          	slli	a5,s4,0x2
    672a:	97ba                	add	a5,a5,a4
    672c:	dca42823          	sw	a0,-560(s0)
    6730:	018c0713          	addi	a4,s8,24
    6734:	ce3a                	sw	a4,28(sp)
    6736:	dd57a823          	sw	s5,-560(a5)
    673a:	00006797          	auipc	a5,0x6
    673e:	10678793          	addi	a5,a5,262 # c840 <two_over_pi+0x328>
    6742:	4388                	lw	a0,0(a5)
    6744:	43cc                	lw	a1,4(a5)
    6746:	4672                	lw	a2,28(sp)
    6748:	052010ef          	jal	ra,779a <scalbn>
    674c:	8b2a                	mv	s6,a0
    674e:	8bae                	mv	s7,a1
    6750:	440a4563          	bltz	s4,6b9a <__kernel_rem_pio2+0x92e>
    6754:	003a1793          	slli	a5,s4,0x3
    6758:	1d010a93          	addi	s5,sp,464
    675c:	00fa8433          	add	s0,s5,a5
    6760:	00006697          	auipc	a3,0x6
    6764:	16068693          	addi	a3,a3,352 # c8c0 <PIo2+0x48>
    6768:	ca3e                	sw	a5,20(sp)
    676a:	002a1c13          	slli	s8,s4,0x2
    676e:	009c                	addi	a5,sp,64
    6770:	9c3e                	add	s8,s8,a5
    6772:	89a2                	mv	s3,s0
    6774:	0006ad03          	lw	s10,0(a3)
    6778:	0046ad83          	lw	s11,4(a3)
    677c:	a011                	j	6780 <__kernel_rem_pio2+0x514>
    677e:	8c3e                	mv	s8,a5
    6780:	000c2503          	lw	a0,0(s8)
    6784:	19e1                	addi	s3,s3,-8
    6786:	249040ef          	jal	ra,b1ce <__floatsidf>
    678a:	865a                	mv	a2,s6
    678c:	86de                	mv	a3,s7
    678e:	087030ef          	jal	ra,a014 <__muldf3>
    6792:	00a9a423          	sw	a0,8(s3)
    6796:	00b9a623          	sw	a1,12(s3)
    679a:	855a                	mv	a0,s6
    679c:	85de                	mv	a1,s7
    679e:	866a                	mv	a2,s10
    67a0:	86ee                	mv	a3,s11
    67a2:	073030ef          	jal	ra,a014 <__muldf3>
    67a6:	0098                	addi	a4,sp,64
    67a8:	8b2a                	mv	s6,a0
    67aa:	8bae                	mv	s7,a1
    67ac:	ffcc0793          	addi	a5,s8,-4
    67b0:	fd8717e3          	bne	a4,s8,677e <__kernel_rem_pio2+0x512>
    67b4:	1a1c                	addi	a5,sp,304
    67b6:	c43e                	sw	a5,8(sp)
    67b8:	c83e                	sw	a5,16(sp)
    67ba:	4981                	li	s3,0
    67bc:	060cc963          	bltz	s9,682e <__kernel_rem_pio2+0x5c2>
    67c0:	00006797          	auipc	a5,0x6
    67c4:	0f878793          	addi	a5,a5,248 # c8b8 <PIo2+0x40>
    67c8:	00006c17          	auipc	s8,0x6
    67cc:	0b0c0c13          	addi	s8,s8,176 # c878 <PIo2>
    67d0:	8da2                	mv	s11,s0
    67d2:	4388                	lw	a0,0(a5)
    67d4:	43cc                	lw	a1,4(a5)
    67d6:	4b01                	li	s6,0
    67d8:	4b81                	li	s7,0
    67da:	4d01                	li	s10,0
    67dc:	a809                	j	67ee <__kernel_rem_pio2+0x582>
    67de:	0c21                	addi	s8,s8,8
    67e0:	0da1                	addi	s11,s11,8
    67e2:	03a9c763          	blt	s3,s10,6810 <__kernel_rem_pio2+0x5a4>
    67e6:	000c2503          	lw	a0,0(s8)
    67ea:	004c2583          	lw	a1,4(s8)
    67ee:	000da603          	lw	a2,0(s11)
    67f2:	004da683          	lw	a3,4(s11)
    67f6:	0d05                	addi	s10,s10,1
    67f8:	01d030ef          	jal	ra,a014 <__muldf3>
    67fc:	862a                	mv	a2,a0
    67fe:	86ae                	mv	a3,a1
    6800:	855a                	mv	a0,s6
    6802:	85de                	mv	a1,s7
    6804:	414020ef          	jal	ra,8c18 <__adddf3>
    6808:	8b2a                	mv	s6,a0
    680a:	8bae                	mv	s7,a1
    680c:	fdacd9e3          	bge	s9,s10,67de <__kernel_rem_pio2+0x572>
    6810:	47c2                	lw	a5,16(sp)
    6812:	0985                	addi	s3,s3,1
    6814:	0167a023          	sw	s6,0(a5)
    6818:	0177a223          	sw	s7,4(a5)
    681c:	07a1                	addi	a5,a5,8
    681e:	c83e                	sw	a5,16(sp)
    6820:	ff840793          	addi	a5,s0,-8
    6824:	028a8363          	beq	s5,s0,684a <__kernel_rem_pio2+0x5de>
    6828:	843e                	mv	s0,a5
    682a:	f80cdbe3          	bgez	s9,67c0 <__kernel_rem_pio2+0x554>
    682e:	47c2                	lw	a5,16(sp)
    6830:	4b01                	li	s6,0
    6832:	4b81                	li	s7,0
    6834:	0167a023          	sw	s6,0(a5)
    6838:	0177a223          	sw	s7,4(a5)
    683c:	07a1                	addi	a5,a5,8
    683e:	c83e                	sw	a5,16(sp)
    6840:	0985                	addi	s3,s3,1
    6842:	ff840793          	addi	a5,s0,-8
    6846:	fe8a91e3          	bne	s5,s0,6828 <__kernel_rem_pio2+0x5bc>
    684a:	5762                	lw	a4,56(sp)
    684c:	4789                	li	a5,2
    684e:	12e7cf63          	blt	a5,a4,698c <__kernel_rem_pio2+0x720>
    6852:	28e04363          	bgtz	a4,6ad8 <__kernel_rem_pio2+0x86c>
    6856:	e331                	bnez	a4,689a <__kernel_rem_pio2+0x62e>
    6858:	47a2                	lw	a5,8(sp)
    685a:	4752                	lw	a4,20(sp)
    685c:	4501                	li	a0,0
    685e:	4581                	li	a1,0
    6860:	00e78433          	add	s0,a5,a4
    6864:	4010                	lw	a2,0(s0)
    6866:	4054                	lw	a3,4(s0)
    6868:	3b0020ef          	jal	ra,8c18 <__adddf3>
    686c:	4722                	lw	a4,8(sp)
    686e:	ff840793          	addi	a5,s0,-8
    6872:	00870c63          	beq	a4,s0,688a <__kernel_rem_pio2+0x61e>
    6876:	843e                	mv	s0,a5
    6878:	4010                	lw	a2,0(s0)
    687a:	4054                	lw	a3,4(s0)
    687c:	39c020ef          	jal	ra,8c18 <__adddf3>
    6880:	4722                	lw	a4,8(sp)
    6882:	ff840793          	addi	a5,s0,-8
    6886:	fe8718e3          	bne	a4,s0,6876 <__kernel_rem_pio2+0x60a>
    688a:	00090563          	beqz	s2,6894 <__kernel_rem_pio2+0x628>
    688e:	800007b7          	lui	a5,0x80000
    6892:	8dbd                	xor	a1,a1,a5
    6894:	56d2                	lw	a3,52(sp)
    6896:	c288                	sw	a0,0(a3)
    6898:	c2cc                	sw	a1,4(a3)
    689a:	2ac12083          	lw	ra,684(sp)
    689e:	2a812403          	lw	s0,680(sp)
    68a2:	0074f513          	andi	a0,s1,7
    68a6:	2a012903          	lw	s2,672(sp)
    68aa:	2a412483          	lw	s1,676(sp)
    68ae:	29c12983          	lw	s3,668(sp)
    68b2:	29812a03          	lw	s4,664(sp)
    68b6:	29412a83          	lw	s5,660(sp)
    68ba:	29012b03          	lw	s6,656(sp)
    68be:	28c12b83          	lw	s7,652(sp)
    68c2:	28812c03          	lw	s8,648(sp)
    68c6:	28412c83          	lw	s9,644(sp)
    68ca:	28012d03          	lw	s10,640(sp)
    68ce:	27c12d83          	lw	s11,636(sp)
    68d2:	2b010113          	addi	sp,sp,688
    68d6:	8082                	ret
    68d8:	4701                	li	a4,0
    68da:	070a                	slli	a4,a4,0x2
    68dc:	01000637          	lui	a2,0x1000
    68e0:	1c94                	addi	a3,sp,624
    68e2:	9736                	add	a4,a4,a3
    68e4:	41660b33          	sub	s6,a2,s6
    68e8:	dd672823          	sw	s6,-560(a4)
    68ec:	0337d563          	bge	a5,s3,6916 <__kernel_rem_pio2+0x6aa>
    68f0:	078a                	slli	a5,a5,0x2
    68f2:	00f68733          	add	a4,a3,a5
    68f6:	008c                	addi	a1,sp,64
    68f8:	00299693          	slli	a3,s3,0x2
    68fc:	dd072703          	lw	a4,-560(a4)
    6900:	97ae                	add	a5,a5,a1
    6902:	96ae                	add	a3,a3,a1
    6904:	167d                	addi	a2,a2,-1
    6906:	a011                	j	690a <__kernel_rem_pio2+0x69e>
    6908:	4398                	lw	a4,0(a5)
    690a:	40e60733          	sub	a4,a2,a4
    690e:	c398                	sw	a4,0(a5)
    6910:	0791                	addi	a5,a5,4
    6912:	fed79be3          	bne	a5,a3,6908 <__kernel_rem_pio2+0x69c>
    6916:	4b05                	li	s6,1
    6918:	b305                	j	6638 <__kernel_rem_pio2+0x3cc>
    691a:	00006797          	auipc	a5,0x6
    691e:	99e78793          	addi	a5,a5,-1634 # c2b8 <strlen+0x800>
    6922:	4390                	lw	a2,0(a5)
    6924:	43d4                	lw	a3,4(a5)
    6926:	4901                	li	s2,0
    6928:	580030ef          	jal	ra,9ea8 <__gedf2>
    692c:	bc0545e3          	bltz	a0,64f6 <__kernel_rem_pio2+0x28a>
    6930:	0485                	addi	s1,s1,1
    6932:	4909                	li	s2,2
    6934:	cf3040e3          	bgtz	s3,6614 <__kernel_rem_pio2+0x3a8>
    6938:	00006797          	auipc	a5,0x6
    693c:	f0878793          	addi	a5,a5,-248 # c840 <two_over_pi+0x328>
    6940:	4388                	lw	a0,0(a5)
    6942:	43cc                	lw	a1,4(a5)
    6944:	8652                	mv	a2,s4
    6946:	86d6                	mv	a3,s5
    6948:	523030ef          	jal	ra,a66a <__subdf3>
    694c:	8a2a                	mv	s4,a0
    694e:	8aae                	mv	s5,a1
    6950:	b65d                	j	64f6 <__kernel_rem_pio2+0x28a>
    6952:	00198793          	addi	a5,s3,1
    6956:	8abe                	mv	s5,a5
    6958:	89be                	mv	s3,a5
    695a:	b6fd                	j	6548 <__kernel_rem_pio2+0x2dc>
    695c:	1c98                	addi	a4,sp,624
    695e:	002a1793          	slli	a5,s4,0x2
    6962:	97ba                	add	a5,a5,a4
    6964:	4772                	lw	a4,28(sp)
    6966:	dd07a783          	lw	a5,-560(a5)
    696a:	1721                	addi	a4,a4,-24
    696c:	ce3a                	sw	a4,28(sp)
    696e:	dc0796e3          	bnez	a5,673a <__kernel_rem_pio2+0x4ce>
    6972:	00299793          	slli	a5,s3,0x2
    6976:	17e1                	addi	a5,a5,-8
    6978:	0098                	addi	a4,sp,64
    697a:	97ba                	add	a5,a5,a4
    697c:	46f2                	lw	a3,28(sp)
    697e:	17f1                	addi	a5,a5,-4
    6980:	43d8                	lw	a4,4(a5)
    6982:	16a1                	addi	a3,a3,-24
    6984:	ce36                	sw	a3,28(sp)
    6986:	1a7d                	addi	s4,s4,-1
    6988:	db75                	beqz	a4,697c <__kernel_rem_pio2+0x710>
    698a:	bb45                	j	673a <__kernel_rem_pio2+0x4ce>
    698c:	5762                	lw	a4,56(sp)
    698e:	478d                	li	a5,3
    6990:	f0f715e3          	bne	a4,a5,689a <__kernel_rem_pio2+0x62e>
    6994:	23405363          	blez	s4,6bba <__kernel_rem_pio2+0x94e>
    6998:	003a1b13          	slli	s6,s4,0x3
    699c:	1c9c                	addi	a5,sp,624
    699e:	97da                	add	a5,a5,s6
    69a0:	1a18                	addi	a4,sp,304
    69a2:	ff8b0413          	addi	s0,s6,-8
    69a6:	c43a                	sw	a4,8(sp)
    69a8:	ec07ad83          	lw	s11,-320(a5)
    69ac:	ec47ad03          	lw	s10,-316(a5)
    69b0:	943a                	add	s0,s0,a4
    69b2:	a011                	j	69b6 <__kernel_rem_pio2+0x74a>
    69b4:	843e                	mv	s0,a5
    69b6:	00042c03          	lw	s8,0(s0)
    69ba:	00442c83          	lw	s9,4(s0)
    69be:	866e                	mv	a2,s11
    69c0:	86ea                	mv	a3,s10
    69c2:	8562                	mv	a0,s8
    69c4:	85e6                	mv	a1,s9
    69c6:	252020ef          	jal	ra,8c18 <__adddf3>
    69ca:	8aaa                	mv	s5,a0
    69cc:	89ae                	mv	s3,a1
    69ce:	862a                	mv	a2,a0
    69d0:	86ae                	mv	a3,a1
    69d2:	8562                	mv	a0,s8
    69d4:	85e6                	mv	a1,s9
    69d6:	495030ef          	jal	ra,a66a <__subdf3>
    69da:	866e                	mv	a2,s11
    69dc:	86ea                	mv	a3,s10
    69de:	23a020ef          	jal	ra,8c18 <__adddf3>
    69e2:	4722                	lw	a4,8(sp)
    69e4:	c408                	sw	a0,8(s0)
    69e6:	c44c                	sw	a1,12(s0)
    69e8:	01542023          	sw	s5,0(s0)
    69ec:	01342223          	sw	s3,4(s0)
    69f0:	ff840793          	addi	a5,s0,-8
    69f4:	8dd6                	mv	s11,s5
    69f6:	8d4e                	mv	s10,s3
    69f8:	fa871ee3          	bne	a4,s0,69b4 <__kernel_rem_pio2+0x748>
    69fc:	4785                	li	a5,1
    69fe:	1b47de63          	bge	a5,s4,6bba <__kernel_rem_pio2+0x94e>
    6a02:	1c9c                	addi	a5,sp,624
    6a04:	9b3e                	add	s6,s6,a5
    6a06:	47a2                	lw	a5,8(sp)
    6a08:	003a1413          	slli	s0,s4,0x3
    6a0c:	1461                	addi	s0,s0,-8
    6a0e:	ec0b2d03          	lw	s10,-320(s6)
    6a12:	008789b3          	add	s3,a5,s0
    6a16:	ec4b2b03          	lw	s6,-316(s6)
    6a1a:	a011                	j	6a1e <__kernel_rem_pio2+0x7b2>
    6a1c:	89be                	mv	s3,a5
    6a1e:	0009ac03          	lw	s8,0(s3)
    6a22:	0049ac83          	lw	s9,4(s3)
    6a26:	866a                	mv	a2,s10
    6a28:	86da                	mv	a3,s6
    6a2a:	8562                	mv	a0,s8
    6a2c:	85e6                	mv	a1,s9
    6a2e:	1ea020ef          	jal	ra,8c18 <__adddf3>
    6a32:	8aaa                	mv	s5,a0
    6a34:	8a2e                	mv	s4,a1
    6a36:	862a                	mv	a2,a0
    6a38:	86ae                	mv	a3,a1
    6a3a:	8562                	mv	a0,s8
    6a3c:	85e6                	mv	a1,s9
    6a3e:	42d030ef          	jal	ra,a66a <__subdf3>
    6a42:	866a                	mv	a2,s10
    6a44:	86da                	mv	a3,s6
    6a46:	1d2020ef          	jal	ra,8c18 <__adddf3>
    6a4a:	4722                	lw	a4,8(sp)
    6a4c:	00a9a423          	sw	a0,8(s3)
    6a50:	00b9a623          	sw	a1,12(s3)
    6a54:	0159a023          	sw	s5,0(s3)
    6a58:	0149a223          	sw	s4,4(s3)
    6a5c:	ff898793          	addi	a5,s3,-8
    6a60:	8d56                	mv	s10,s5
    6a62:	8b52                	mv	s6,s4
    6a64:	faf71ce3          	bne	a4,a5,6a1c <__kernel_rem_pio2+0x7b0>
    6a68:	0421                	addi	s0,s0,8
    6a6a:	00870bb3          	add	s7,a4,s0
    6a6e:	4501                	li	a0,0
    6a70:	4581                	li	a1,0
    6a72:	000ba603          	lw	a2,0(s7)
    6a76:	004ba683          	lw	a3,4(s7)
    6a7a:	1be1                	addi	s7,s7,-8
    6a7c:	19c020ef          	jal	ra,8c18 <__adddf3>
    6a80:	ff7999e3          	bne	s3,s7,6a72 <__kernel_rem_pio2+0x806>
    6a84:	13012803          	lw	a6,304(sp)
    6a88:	13412703          	lw	a4,308(sp)
    6a8c:	13812603          	lw	a2,312(sp)
    6a90:	13c12783          	lw	a5,316(sp)
    6a94:	0c091b63          	bnez	s2,6b6a <__kernel_rem_pio2+0x8fe>
    6a98:	88be                	mv	a7,a5
    6a9a:	57d2                	lw	a5,52(sp)
    6a9c:	8342                	mv	t1,a6
    6a9e:	8832                	mv	a6,a2
    6aa0:	0067a023          	sw	t1,0(a5)
    6aa4:	c3d8                	sw	a4,4(a5)
    6aa6:	0107a423          	sw	a6,8(a5)
    6aaa:	0117a623          	sw	a7,12(a5)
    6aae:	cb88                	sw	a0,16(a5)
    6ab0:	cbcc                	sw	a1,20(a5)
    6ab2:	b3e5                	j	689a <__kernel_rem_pio2+0x62e>
    6ab4:	fff98793          	addi	a5,s3,-1
    6ab8:	1c98                	addi	a4,sp,624
    6aba:	078a                	slli	a5,a5,0x2
    6abc:	97ba                	add	a5,a5,a4
    6abe:	dd07a703          	lw	a4,-560(a5)
    6ac2:	56f2                	lw	a3,60(sp)
    6ac4:	8f75                	and	a4,a4,a3
    6ac6:	dce7a823          	sw	a4,-560(a5)
    6aca:	be59                	j	6660 <__kernel_rem_pio2+0x3f4>
    6acc:	57a1                	li	a5,-24
    6ace:	d402                	sw	zero,40(sp)
    6ad0:	813ff06f          	j	62e2 <__kernel_rem_pio2+0x76>
    6ad4:	4b01                	li	s6,0
    6ad6:	b68d                	j	6638 <__kernel_rem_pio2+0x3cc>
    6ad8:	47a2                	lw	a5,8(sp)
    6ada:	4752                	lw	a4,20(sp)
    6adc:	4981                	li	s3,0
    6ade:	4401                	li	s0,0
    6ae0:	00e78ab3          	add	s5,a5,a4
    6ae4:	a011                	j	6ae8 <__kernel_rem_pio2+0x87c>
    6ae6:	8abe                	mv	s5,a5
    6ae8:	000aa603          	lw	a2,0(s5)
    6aec:	004aa683          	lw	a3,4(s5)
    6af0:	854e                	mv	a0,s3
    6af2:	85a2                	mv	a1,s0
    6af4:	124020ef          	jal	ra,8c18 <__adddf3>
    6af8:	4722                	lw	a4,8(sp)
    6afa:	ff8a8793          	addi	a5,s5,-8
    6afe:	89aa                	mv	s3,a0
    6b00:	842e                	mv	s0,a1
    6b02:	ff5712e3          	bne	a4,s5,6ae6 <__kernel_rem_pio2+0x87a>
    6b06:	13012503          	lw	a0,304(sp)
    6b0a:	13412583          	lw	a1,308(sp)
    6b0e:	864e                	mv	a2,s3
    6b10:	86a2                	mv	a3,s0
    6b12:	359030ef          	jal	ra,a66a <__subdf3>
    6b16:	06091863          	bnez	s2,6b86 <__kernel_rem_pio2+0x91a>
    6b1a:	56d2                	lw	a3,52(sp)
    6b1c:	0136a023          	sw	s3,0(a3)
    6b20:	c2c0                	sw	s0,4(a3)
    6b22:	03405463          	blez	s4,6b4a <__kernel_rem_pio2+0x8de>
    6b26:	13810993          	addi	s3,sp,312
    6b2a:	4405                	li	s0,1
    6b2c:	0009a603          	lw	a2,0(s3)
    6b30:	0049a683          	lw	a3,4(s3)
    6b34:	0405                	addi	s0,s0,1
    6b36:	09a1                	addi	s3,s3,8
    6b38:	0e0020ef          	jal	ra,8c18 <__adddf3>
    6b3c:	fe8a58e3          	bge	s4,s0,6b2c <__kernel_rem_pio2+0x8c0>
    6b40:	00090563          	beqz	s2,6b4a <__kernel_rem_pio2+0x8de>
    6b44:	800007b7          	lui	a5,0x80000
    6b48:	8dbd                	xor	a1,a1,a5
    6b4a:	56d2                	lw	a3,52(sp)
    6b4c:	c688                	sw	a0,8(a3)
    6b4e:	c6cc                	sw	a1,12(a3)
    6b50:	b3a9                	j	689a <__kernel_rem_pio2+0x62e>
    6b52:	1c9c                	addi	a5,sp,624
    6b54:	00299413          	slli	s0,s3,0x2
    6b58:	856a                	mv	a0,s10
    6b5a:	85ee                	mv	a1,s11
    6b5c:	943e                	add	s0,s0,a5
    6b5e:	598040ef          	jal	ra,b0f6 <__fixdfsi>
    6b62:	dca42823          	sw	a0,-560(s0)
    6b66:	8a4e                	mv	s4,s3
    6b68:	bec9                	j	673a <__kernel_rem_pio2+0x4ce>
    6b6a:	800006b7          	lui	a3,0x80000
    6b6e:	8f35                	xor	a4,a4,a3
    6b70:	8fb5                	xor	a5,a5,a3
    6b72:	8ead                	xor	a3,a3,a1
    6b74:	55d2                	lw	a1,52(sp)
    6b76:	0105a023          	sw	a6,0(a1) # 8000 <printLongLongInt+0x114>
    6b7a:	c1d8                	sw	a4,4(a1)
    6b7c:	c590                	sw	a2,8(a1)
    6b7e:	c5dc                	sw	a5,12(a1)
    6b80:	c988                	sw	a0,16(a1)
    6b82:	c9d4                	sw	a3,20(a1)
    6b84:	bb19                	j	689a <__kernel_rem_pio2+0x62e>
    6b86:	800007b7          	lui	a5,0x80000
    6b8a:	8c3d                	xor	s0,s0,a5
    6b8c:	57d2                	lw	a5,52(sp)
    6b8e:	0137a023          	sw	s3,0(a5) # 80000000 <_eusrstack+0x5fff8000>
    6b92:	c3c0                	sw	s0,4(a5)
    6b94:	f94049e3          	bgtz	s4,6b26 <__kernel_rem_pio2+0x8ba>
    6b98:	b775                	j	6b44 <__kernel_rem_pio2+0x8d8>
    6b9a:	5762                	lw	a4,56(sp)
    6b9c:	4789                	li	a5,2
    6b9e:	dee7c7e3          	blt	a5,a4,698c <__kernel_rem_pio2+0x720>
    6ba2:	00e04963          	bgtz	a4,6bb4 <__kernel_rem_pio2+0x948>
    6ba6:	4501                	li	a0,0
    6ba8:	4581                	li	a1,0
    6baa:	ce0718e3          	bnez	a4,689a <__kernel_rem_pio2+0x62e>
    6bae:	ce0903e3          	beqz	s2,6894 <__kernel_rem_pio2+0x628>
    6bb2:	b9f1                	j	688e <__kernel_rem_pio2+0x622>
    6bb4:	4981                	li	s3,0
    6bb6:	4401                	li	s0,0
    6bb8:	b7b9                	j	6b06 <__kernel_rem_pio2+0x89a>
    6bba:	4501                	li	a0,0
    6bbc:	4581                	li	a1,0
    6bbe:	b5d9                	j	6a84 <__kernel_rem_pio2+0x818>

00006bc0 <__kernel_sin>:
    6bc0:	7139                	addi	sp,sp,-64
    6bc2:	00159793          	slli	a5,a1,0x1
    6bc6:	dc22                	sw	s0,56(sp)
    6bc8:	da26                	sw	s1,52(sp)
    6bca:	d452                	sw	s4,40(sp)
    6bcc:	d256                	sw	s5,36(sp)
    6bce:	cc62                	sw	s8,24(sp)
    6bd0:	de06                	sw	ra,60(sp)
    6bd2:	d84a                	sw	s2,48(sp)
    6bd4:	d64e                	sw	s3,44(sp)
    6bd6:	d05a                	sw	s6,32(sp)
    6bd8:	ce5e                	sw	s7,28(sp)
    6bda:	ca66                	sw	s9,20(sp)
    6bdc:	c86a                	sw	s10,16(sp)
    6bde:	c66e                	sw	s11,12(sp)
    6be0:	8385                	srli	a5,a5,0x1
    6be2:	3e400837          	lui	a6,0x3e400
    6be6:	842e                	mv	s0,a1
    6be8:	84aa                	mv	s1,a0
    6bea:	8a32                	mv	s4,a2
    6bec:	8ab6                	mv	s5,a3
    6bee:	8c3a                	mv	s8,a4
    6bf0:	0107d763          	bge	a5,a6,6bfe <__kernel_sin+0x3e>
    6bf4:	502040ef          	jal	ra,b0f6 <__fixdfsi>
    6bf8:	8726                	mv	a4,s1
    6bfa:	87a2                	mv	a5,s0
    6bfc:	c179                	beqz	a0,6cc2 <__kernel_sin+0x102>
    6bfe:	8626                	mv	a2,s1
    6c00:	86a2                	mv	a3,s0
    6c02:	8526                	mv	a0,s1
    6c04:	85a2                	mv	a1,s0
    6c06:	40e030ef          	jal	ra,a014 <__muldf3>
    6c0a:	892a                	mv	s2,a0
    6c0c:	89ae                	mv	s3,a1
    6c0e:	862a                	mv	a2,a0
    6c10:	86ae                	mv	a3,a1
    6c12:	8526                	mv	a0,s1
    6c14:	85a2                	mv	a1,s0
    6c16:	3fe030ef          	jal	ra,a014 <__muldf3>
    6c1a:	00006797          	auipc	a5,0x6
    6c1e:	cc678793          	addi	a5,a5,-826 # c8e0 <init_jk+0x10>
    6c22:	4390                	lw	a2,0(a5)
    6c24:	43d4                	lw	a3,4(a5)
    6c26:	8b2a                	mv	s6,a0
    6c28:	8bae                	mv	s7,a1
    6c2a:	854a                	mv	a0,s2
    6c2c:	85ce                	mv	a1,s3
    6c2e:	3e6030ef          	jal	ra,a014 <__muldf3>
    6c32:	00006797          	auipc	a5,0x6
    6c36:	cb678793          	addi	a5,a5,-842 # c8e8 <init_jk+0x18>
    6c3a:	4390                	lw	a2,0(a5)
    6c3c:	43d4                	lw	a3,4(a5)
    6c3e:	22d030ef          	jal	ra,a66a <__subdf3>
    6c42:	864a                	mv	a2,s2
    6c44:	86ce                	mv	a3,s3
    6c46:	3ce030ef          	jal	ra,a014 <__muldf3>
    6c4a:	00006797          	auipc	a5,0x6
    6c4e:	ca678793          	addi	a5,a5,-858 # c8f0 <init_jk+0x20>
    6c52:	4390                	lw	a2,0(a5)
    6c54:	43d4                	lw	a3,4(a5)
    6c56:	7c3010ef          	jal	ra,8c18 <__adddf3>
    6c5a:	864a                	mv	a2,s2
    6c5c:	86ce                	mv	a3,s3
    6c5e:	3b6030ef          	jal	ra,a014 <__muldf3>
    6c62:	00006797          	auipc	a5,0x6
    6c66:	c9678793          	addi	a5,a5,-874 # c8f8 <init_jk+0x28>
    6c6a:	4390                	lw	a2,0(a5)
    6c6c:	43d4                	lw	a3,4(a5)
    6c6e:	1fd030ef          	jal	ra,a66a <__subdf3>
    6c72:	864a                	mv	a2,s2
    6c74:	86ce                	mv	a3,s3
    6c76:	39e030ef          	jal	ra,a014 <__muldf3>
    6c7a:	00006797          	auipc	a5,0x6
    6c7e:	c8678793          	addi	a5,a5,-890 # c900 <init_jk+0x30>
    6c82:	4390                	lw	a2,0(a5)
    6c84:	43d4                	lw	a3,4(a5)
    6c86:	793010ef          	jal	ra,8c18 <__adddf3>
    6c8a:	8d2a                	mv	s10,a0
    6c8c:	8dae                	mv	s11,a1
    6c8e:	040c1b63          	bnez	s8,6ce4 <__kernel_sin+0x124>
    6c92:	862a                	mv	a2,a0
    6c94:	86ae                	mv	a3,a1
    6c96:	854a                	mv	a0,s2
    6c98:	85ce                	mv	a1,s3
    6c9a:	37a030ef          	jal	ra,a014 <__muldf3>
    6c9e:	00006797          	auipc	a5,0x6
    6ca2:	c6a78793          	addi	a5,a5,-918 # c908 <init_jk+0x38>
    6ca6:	4390                	lw	a2,0(a5)
    6ca8:	43d4                	lw	a3,4(a5)
    6caa:	1c1030ef          	jal	ra,a66a <__subdf3>
    6cae:	865a                	mv	a2,s6
    6cb0:	86de                	mv	a3,s7
    6cb2:	362030ef          	jal	ra,a014 <__muldf3>
    6cb6:	8626                	mv	a2,s1
    6cb8:	86a2                	mv	a3,s0
    6cba:	75f010ef          	jal	ra,8c18 <__adddf3>
    6cbe:	872a                	mv	a4,a0
    6cc0:	87ae                	mv	a5,a1
    6cc2:	50f2                	lw	ra,60(sp)
    6cc4:	5462                	lw	s0,56(sp)
    6cc6:	54d2                	lw	s1,52(sp)
    6cc8:	5942                	lw	s2,48(sp)
    6cca:	59b2                	lw	s3,44(sp)
    6ccc:	5a22                	lw	s4,40(sp)
    6cce:	5a92                	lw	s5,36(sp)
    6cd0:	5b02                	lw	s6,32(sp)
    6cd2:	4bf2                	lw	s7,28(sp)
    6cd4:	4c62                	lw	s8,24(sp)
    6cd6:	4cd2                	lw	s9,20(sp)
    6cd8:	4d42                	lw	s10,16(sp)
    6cda:	4db2                	lw	s11,12(sp)
    6cdc:	853a                	mv	a0,a4
    6cde:	85be                	mv	a1,a5
    6ce0:	6121                	addi	sp,sp,64
    6ce2:	8082                	ret
    6ce4:	00005797          	auipc	a5,0x5
    6ce8:	5d478793          	addi	a5,a5,1492 # c2b8 <strlen+0x800>
    6cec:	4390                	lw	a2,0(a5)
    6cee:	43d4                	lw	a3,4(a5)
    6cf0:	8552                	mv	a0,s4
    6cf2:	85d6                	mv	a1,s5
    6cf4:	320030ef          	jal	ra,a014 <__muldf3>
    6cf8:	8c2a                	mv	s8,a0
    6cfa:	8cae                	mv	s9,a1
    6cfc:	866a                	mv	a2,s10
    6cfe:	86ee                	mv	a3,s11
    6d00:	855a                	mv	a0,s6
    6d02:	85de                	mv	a1,s7
    6d04:	310030ef          	jal	ra,a014 <__muldf3>
    6d08:	862a                	mv	a2,a0
    6d0a:	86ae                	mv	a3,a1
    6d0c:	8562                	mv	a0,s8
    6d0e:	85e6                	mv	a1,s9
    6d10:	15b030ef          	jal	ra,a66a <__subdf3>
    6d14:	864a                	mv	a2,s2
    6d16:	86ce                	mv	a3,s3
    6d18:	2fc030ef          	jal	ra,a014 <__muldf3>
    6d1c:	8652                	mv	a2,s4
    6d1e:	86d6                	mv	a3,s5
    6d20:	14b030ef          	jal	ra,a66a <__subdf3>
    6d24:	00006797          	auipc	a5,0x6
    6d28:	be478793          	addi	a5,a5,-1052 # c908 <init_jk+0x38>
    6d2c:	4390                	lw	a2,0(a5)
    6d2e:	43d4                	lw	a3,4(a5)
    6d30:	892a                	mv	s2,a0
    6d32:	89ae                	mv	s3,a1
    6d34:	855a                	mv	a0,s6
    6d36:	85de                	mv	a1,s7
    6d38:	2dc030ef          	jal	ra,a014 <__muldf3>
    6d3c:	862a                	mv	a2,a0
    6d3e:	86ae                	mv	a3,a1
    6d40:	854a                	mv	a0,s2
    6d42:	85ce                	mv	a1,s3
    6d44:	6d5010ef          	jal	ra,8c18 <__adddf3>
    6d48:	862a                	mv	a2,a0
    6d4a:	86ae                	mv	a3,a1
    6d4c:	8526                	mv	a0,s1
    6d4e:	85a2                	mv	a1,s0
    6d50:	11b030ef          	jal	ra,a66a <__subdf3>
    6d54:	872a                	mv	a4,a0
    6d56:	87ae                	mv	a5,a1
    6d58:	b7ad                	j	6cc2 <__kernel_sin+0x102>

00006d5a <__kernel_cosf>:
    6d5a:	e0050753          	fmv.x.w	a4,fa0
    6d5e:	320006b7          	lui	a3,0x32000
    6d62:	00171793          	slli	a5,a4,0x1
    6d66:	8385                	srli	a5,a5,0x1
    6d68:	06d7df63          	bge	a5,a3,6de6 <__kernel_cosf+0x8c>
    6d6c:	c00517d3          	fcvt.w.s	a5,fa0,rtz
    6d70:	12078063          	beqz	a5,6e90 <__kernel_cosf+0x136>
    6d74:	10a576d3          	fmul.s	fa3,fa0,fa0
    6d78:	00006797          	auipc	a5,0x6
    6d7c:	ba47a787          	flw	fa5,-1116(a5) # c91c <init_jk+0x4c>
    6d80:	00006797          	auipc	a5,0x6
    6d84:	b987a507          	flw	fa0,-1128(a5) # c918 <init_jk+0x48>
    6d88:	00006797          	auipc	a5,0x6
    6d8c:	b987a007          	flw	ft0,-1128(a5) # c920 <init_jk+0x50>
    6d90:	00006797          	auipc	a5,0x6
    6d94:	b947a607          	flw	fa2,-1132(a5) # c924 <init_jk+0x54>
    6d98:	78a6f543          	fmadd.s	fa0,fa3,fa0,fa5
    6d9c:	00006797          	auipc	a5,0x6
    6da0:	b8c7a707          	flw	fa4,-1140(a5) # c928 <init_jk+0x58>
    6da4:	00006797          	auipc	a5,0x6
    6da8:	b887a787          	flw	fa5,-1144(a5) # c92c <init_jk+0x5c>
    6dac:	00a6f543          	fmadd.s	fa0,fa3,fa0,ft0
    6db0:	60a6f543          	fmadd.s	fa0,fa3,fa0,fa2
    6db4:	70a6f543          	fmadd.s	fa0,fa3,fa0,fa4
    6db8:	78a6f7c3          	fmadd.s	fa5,fa3,fa0,fa5
    6dbc:	10d7f7d3          	fmul.s	fa5,fa5,fa3
    6dc0:	f0070753          	fmv.w.x	fa4,a4
    6dc4:	00005797          	auipc	a5,0x5
    6dc8:	e887a507          	flw	fa0,-376(a5) # bc4c <strlen+0x194>
    6dcc:	10b775d3          	fmul.s	fa1,fa4,fa1
    6dd0:	00005797          	auipc	a5,0x5
    6dd4:	1bc7a707          	flw	fa4,444(a5) # bf8c <strlen+0x4d4>
    6dd8:	58f6f7c7          	fmsub.s	fa5,fa3,fa5,fa1
    6ddc:	78e6f7c7          	fmsub.s	fa5,fa3,fa4,fa5
    6de0:	08f57553          	fsub.s	fa0,fa0,fa5
    6de4:	8082                	ret
    6de6:	10a576d3          	fmul.s	fa3,fa0,fa0
    6dea:	00006697          	auipc	a3,0x6
    6dee:	b326a607          	flw	fa2,-1230(a3) # c91c <init_jk+0x4c>
    6df2:	00006697          	auipc	a3,0x6
    6df6:	b266a707          	flw	fa4,-1242(a3) # c918 <init_jk+0x48>
    6dfa:	00006697          	auipc	a3,0x6
    6dfe:	b266a787          	flw	fa5,-1242(a3) # c920 <init_jk+0x50>
    6e02:	00006697          	auipc	a3,0x6
    6e06:	b226a007          	flw	ft0,-1246(a3) # c924 <init_jk+0x54>
    6e0a:	60e6f743          	fmadd.s	fa4,fa3,fa4,fa2
    6e0e:	00006697          	auipc	a3,0x6
    6e12:	b1a6a507          	flw	fa0,-1254(a3) # c928 <init_jk+0x58>
    6e16:	00006697          	auipc	a3,0x6
    6e1a:	b166a607          	flw	fa2,-1258(a3) # c92c <init_jk+0x5c>
    6e1e:	3e99a6b7          	lui	a3,0x3e99a
    6e22:	99968693          	addi	a3,a3,-1639 # 3e999999 <_eusrstack+0x1e991999>
    6e26:	78d777c3          	fmadd.s	fa5,fa4,fa3,fa5
    6e2a:	00d7f7c3          	fmadd.s	fa5,fa5,fa3,ft0
    6e2e:	50d7f7c3          	fmadd.s	fa5,fa5,fa3,fa0
    6e32:	60d7f7c3          	fmadd.s	fa5,fa5,fa3,fa2
    6e36:	10d7f7d3          	fmul.s	fa5,fa5,fa3
    6e3a:	f8f6d3e3          	bge	a3,a5,6dc0 <__kernel_cosf+0x66>
    6e3e:	3f4806b7          	lui	a3,0x3f480
    6e42:	02f6ce63          	blt	a3,a5,6e7e <__kernel_cosf+0x124>
    6e46:	ff0006b7          	lui	a3,0xff000
    6e4a:	97b6                	add	a5,a5,a3
    6e4c:	f0078653          	fmv.w.x	fa2,a5
    6e50:	00005697          	auipc	a3,0x5
    6e54:	dfc6a507          	flw	fa0,-516(a3) # bc4c <strlen+0x194>
    6e58:	08c57553          	fsub.s	fa0,fa0,fa2
    6e5c:	f0070753          	fmv.w.x	fa4,a4
    6e60:	10b775d3          	fmul.s	fa1,fa4,fa1
    6e64:	00005797          	auipc	a5,0x5
    6e68:	1287a707          	flw	fa4,296(a5) # bf8c <strlen+0x4d4>
    6e6c:	60e6f747          	fmsub.s	fa4,fa3,fa4,fa2
    6e70:	58f6f7c7          	fmsub.s	fa5,fa3,fa5,fa1
    6e74:	08f777d3          	fsub.s	fa5,fa4,fa5
    6e78:	08f57553          	fsub.s	fa0,fa0,fa5
    6e7c:	8082                	ret
    6e7e:	00006797          	auipc	a5,0x6
    6e82:	a927a507          	flw	fa0,-1390(a5) # c910 <init_jk+0x40>
    6e86:	00006797          	auipc	a5,0x6
    6e8a:	a8e7a607          	flw	fa2,-1394(a5) # c914 <init_jk+0x44>
    6e8e:	b7f9                	j	6e5c <__kernel_cosf+0x102>
    6e90:	00005797          	auipc	a5,0x5
    6e94:	dbc7a507          	flw	fa0,-580(a5) # bc4c <strlen+0x194>
    6e98:	8082                	ret

00006e9a <__kernel_rem_pio2f>:
    6e9a:	7121                	addi	sp,sp,-448
    6e9c:	00271813          	slli	a6,a4,0x2
    6ea0:	ca3a                	sw	a4,20(sp)
    6ea2:	00006717          	auipc	a4,0x6
    6ea6:	ac670713          	addi	a4,a4,-1338 # c968 <init_jk>
    6eaa:	9742                	add	a4,a4,a6
    6eac:	1a812c23          	sw	s0,440(sp)
    6eb0:	19912a23          	sw	s9,404(sp)
    6eb4:	19a12823          	sw	s10,400(sp)
    6eb8:	8432                	mv	s0,a2
    6eba:	ce32                	sw	a2,28(sp)
    6ebc:	1a112e23          	sw	ra,444(sp)
    6ec0:	1a912a23          	sw	s1,436(sp)
    6ec4:	1b212823          	sw	s2,432(sp)
    6ec8:	1b312623          	sw	s3,428(sp)
    6ecc:	1b412423          	sw	s4,424(sp)
    6ed0:	1b512223          	sw	s5,420(sp)
    6ed4:	1b612023          	sw	s6,416(sp)
    6ed8:	19712e23          	sw	s7,412(sp)
    6edc:	19812c23          	sw	s8,408(sp)
    6ee0:	19b12623          	sw	s11,396(sp)
    6ee4:	16812e27          	fsw	fs0,380(sp)
    6ee8:	16912c27          	fsw	fs1,376(sp)
    6eec:	17212a27          	fsw	fs2,372(sp)
    6ef0:	17312827          	fsw	fs3,368(sp)
    6ef4:	17412627          	fsw	fs4,364(sp)
    6ef8:	17512427          	fsw	fs5,360(sp)
    6efc:	17612227          	fsw	fs6,356(sp)
    6f00:	5871                	li	a6,-4
    6f02:	c82e                	sw	a1,16(sp)
    6f04:	c23e                	sw	a5,4(sp)
    6f06:	862a                	mv	a2,a0
    6f08:	00072c83          	lw	s9,0(a4)
    6f0c:	fff68d13          	addi	s10,a3,-1
    6f10:	63044e63          	blt	s0,a6,754c <__kernel_rem_pio2f+0x6b2>
    6f14:	ffd40793          	addi	a5,s0,-3
    6f18:	41f7d493          	srai	s1,a5,0x1f
    6f1c:	889d                	andi	s1,s1,7
    6f1e:	94be                	add	s1,s1,a5
    6f20:	4034d793          	srai	a5,s1,0x3
    6f24:	00178b13          	addi	s6,a5,1
    6f28:	c43e                	sw	a5,8(sp)
    6f2a:	003b1793          	slli	a5,s6,0x3
    6f2e:	cc3e                	sw	a5,24(sp)
    6f30:	47a2                	lw	a5,8(sp)
    6f32:	4562                	lw	a0,24(sp)
    6f34:	45f2                	lw	a1,28(sp)
    6f36:	01ac8733          	add	a4,s9,s10
    6f3a:	41a787b3          	sub	a5,a5,s10
    6f3e:	00170813          	addi	a6,a4,1
    6f42:	40a58a33          	sub	s4,a1,a0
    6f46:	983e                	add	a6,a6,a5
    6f48:	1888                	addi	a0,sp,112
    6f4a:	02074363          	bltz	a4,6f70 <__kernel_rem_pio2f+0xd6>
    6f4e:	4592                	lw	a1,4(sp)
    6f50:	00279713          	slli	a4,a5,0x2
    6f54:	f00007d3          	fmv.w.x	fa5,zero
    6f58:	972e                	add	a4,a4,a1
    6f5a:	0007c563          	bltz	a5,6f64 <__kernel_rem_pio2f+0xca>
    6f5e:	4318                	lw	a4,0(a4)
    6f60:	d00777d3          	fcvt.s.w	fa5,a4
    6f64:	0511                	addi	a0,a0,4
    6f66:	0785                	addi	a5,a5,1
    6f68:	fef52e27          	fsw	fa5,-4(a0)
    6f6c:	ff0791e3          	bne	a5,a6,6f4e <__kernel_rem_pio2f+0xb4>
    6f70:	002c9d93          	slli	s11,s9,0x2
    6f74:	040cc463          	bltz	s9,6fbc <__kernel_rem_pio2f+0x122>
    6f78:	002d1893          	slli	a7,s10,0x2
    6f7c:	189c                	addi	a5,sp,112
    6f7e:	00488513          	addi	a0,a7,4
    6f82:	002c9d93          	slli	s11,s9,0x2
    6f86:	98be                	add	a7,a7,a5
    6f88:	0a5c                	addi	a5,sp,276
    6f8a:	11010813          	addi	a6,sp,272
    6f8e:	01b78333          	add	t1,a5,s11
    6f92:	9532                	add	a0,a0,a2
    6f94:	8746                	mv	a4,a7
    6f96:	87b2                	mv	a5,a2
    6f98:	f00007d3          	fmv.w.x	fa5,zero
    6f9c:	000d4a63          	bltz	s10,6fb0 <__kernel_rem_pio2f+0x116>
    6fa0:	6394                	flw	fa3,0(a5)
    6fa2:	6318                	flw	fa4,0(a4)
    6fa4:	0791                	addi	a5,a5,4
    6fa6:	1771                	addi	a4,a4,-4
    6fa8:	78e6f7c3          	fmadd.s	fa5,fa3,fa4,fa5
    6fac:	fea79ae3          	bne	a5,a0,6fa0 <__kernel_rem_pio2f+0x106>
    6fb0:	00f82027          	fsw	fa5,0(a6) # 3e400000 <_eusrstack+0x1e3f8000>
    6fb4:	0811                	addi	a6,a6,4
    6fb6:	0891                	addi	a7,a7,4
    6fb8:	fc681ee3          	bne	a6,t1,6f94 <__kernel_rem_pio2f+0xfa>
    6fbc:	fffc8793          	addi	a5,s9,-1
    6fc0:	ff8d8993          	addi	s3,s11,-8
    6fc4:	00279913          	slli	s2,a5,0x2
    6fc8:	02010a93          	addi	s5,sp,32
    6fcc:	087c                	addi	a5,sp,28
    6fce:	9dbe                	add	s11,s11,a5
    6fd0:	013a87b3          	add	a5,s5,s3
    6fd4:	c63e                	sw	a5,12(sp)
    6fd6:	068a                	slli	a3,a3,0x2
    6fd8:	00006797          	auipc	a5,0x6
    6fdc:	98c7a487          	flw	fs1,-1652(a5) # c964 <PIo2+0x34>
    6fe0:	00005797          	auipc	a5,0x5
    6fe4:	ce47a407          	flw	fs0,-796(a5) # bcc4 <strlen+0x20c>
    6fe8:	00005797          	auipc	a5,0x5
    6fec:	c647a907          	flw	fs2,-924(a5) # bc4c <strlen+0x194>
    6ff0:	00006797          	auipc	a5,0x6
    6ff4:	9707ab07          	flw	fs6,-1680(a5) # c960 <PIo2+0x30>
    6ff8:	00005797          	auipc	a5,0x5
    6ffc:	49c7aa87          	flw	fs5,1180(a5) # c494 <two_over_pi+0x13c>
    7000:	00005797          	auipc	a5,0x5
    7004:	f8c7a987          	flw	fs3,-116(a5) # bf8c <strlen+0x4d4>
    7008:	00d60c33          	add	s8,a2,a3
    700c:	129c                	addi	a5,sp,352
    700e:	400006b7          	lui	a3,0x40000
    7012:	89e6                	mv	s3,s9
    7014:	fff68413          	addi	s0,a3,-1 # 3fffffff <_eusrstack+0x1fff7fff>
    7018:	993e                	add	s2,s2,a5
    701a:	00299493          	slli	s1,s3,0x2
    701e:	129c                	addi	a5,sp,352
    7020:	97a6                	add	a5,a5,s1
    7022:	fb07a507          	flw	fa0,-80(a5)
    7026:	03305f63          	blez	s3,7064 <__kernel_rem_pio2f+0x1ca>
    702a:	00898533          	add	a0,s3,s0
    702e:	11010e93          	addi	t4,sp,272
    7032:	050a                	slli	a0,a0,0x2
    7034:	9576                	add	a0,a0,t4
    7036:	8356                	mv	t1,s5
    7038:	a011                	j	703c <__kernel_rem_pio2f+0x1a2>
    703a:	8572                	mv	a0,t3
    703c:	116577d3          	fmul.s	fa5,fa0,fs6
    7040:	6114                	flw	fa3,0(a0)
    7042:	0311                	addi	t1,t1,4
    7044:	ffc50e13          	addi	t3,a0,-4
    7048:	c00797d3          	fcvt.w.s	a5,fa5,rtz
    704c:	d007f7d3          	fcvt.s.w	fa5,a5
    7050:	5157f74b          	fnmsub.s	fa4,fa5,fs5,fa0
    7054:	00d7f553          	fadd.s	fa0,fa5,fa3
    7058:	c00717d3          	fcvt.w.s	a5,fa4,rtz
    705c:	fef32e23          	sw	a5,-4(t1)
    7060:	fcae9de3          	bne	t4,a0,703a <__kernel_rem_pio2f+0x1a0>
    7064:	8552                	mv	a0,s4
    7066:	c032                	sw	a2,0(sp)
    7068:	337000ef          	jal	ra,7b9e <scalbnf>
    706c:	20a50a53          	fmv.s	fs4,fa0
    7070:	10957553          	fmul.s	fa0,fa0,fs1
    7074:	279000ef          	jal	ra,7aec <floorf>
    7078:	a085754b          	fnmsub.s	fa0,fa0,fs0,fs4
    707c:	4602                	lw	a2,0(sp)
    707e:	c0051b53          	fcvt.w.s	s6,fa0,rtz
    7082:	d00b7a53          	fcvt.s.w	fs4,s6
    7086:	09457a53          	fsub.s	fs4,fa0,fs4
    708a:	0d405f63          	blez	s4,7168 <__kernel_rem_pio2f+0x2ce>
    708e:	fff98793          	addi	a5,s3,-1
    7092:	078a                	slli	a5,a5,0x2
    7094:	1298                	addi	a4,sp,352
    7096:	97ba                	add	a5,a5,a4
    7098:	ec07a303          	lw	t1,-320(a5)
    709c:	4521                	li	a0,8
    709e:	41450533          	sub	a0,a0,s4
    70a2:	40a35e33          	sra	t3,t1,a0
    70a6:	00ae1533          	sll	a0,t3,a0
    70aa:	40a30333          	sub	t1,t1,a0
    70ae:	451d                	li	a0,7
    70b0:	41450533          	sub	a0,a0,s4
    70b4:	ec67a023          	sw	t1,-320(a5)
    70b8:	40a35bb3          	sra	s7,t1,a0
    70bc:	9b72                	add	s6,s6,t3
    70be:	0d704263          	bgtz	s7,7182 <__kernel_rem_pio2f+0x2e8>
    70c2:	f00007d3          	fmv.w.x	fa5,zero
    70c6:	a0fa27d3          	feq.s	a5,fs4,fa5
    70ca:	12078a63          	beqz	a5,71fe <__kernel_rem_pio2f+0x364>
    70ce:	fff98e13          	addi	t3,s3,-1
    70d2:	019e4e63          	blt	t3,s9,70ee <__kernel_rem_pio2f+0x254>
    70d6:	008987b3          	add	a5,s3,s0
    70da:	078a                	slli	a5,a5,0x2
    70dc:	97d6                	add	a5,a5,s5
    70de:	4701                	li	a4,0
    70e0:	4388                	lw	a0,0(a5)
    70e2:	17f1                	addi	a5,a5,-4
    70e4:	8f49                	or	a4,a4,a0
    70e6:	ffb79de3          	bne	a5,s11,70e0 <__kernel_rem_pio2f+0x246>
    70ea:	30071963          	bnez	a4,73fc <__kernel_rem_pio2f+0x562>
    70ee:	ec092783          	lw	a5,-320(s2)
    70f2:	30079063          	bnez	a5,73f2 <__kernel_rem_pio2f+0x558>
    70f6:	47b2                	lw	a5,12(sp)
    70f8:	4705                	li	a4,1
    70fa:	17f1                	addi	a5,a5,-4
    70fc:	43c8                	lw	a0,4(a5)
    70fe:	0705                	addi	a4,a4,1
    7100:	dd6d                	beqz	a0,70fa <__kernel_rem_pio2f+0x260>
    7102:	00198793          	addi	a5,s3,1
    7106:	8e3e                	mv	t3,a5
    7108:	00e988b3          	add	a7,s3,a4
    710c:	4722                	lw	a4,8(sp)
    710e:	00fd0533          	add	a0,s10,a5
    7112:	9522                	add	a0,a0,s0
    7114:	00f70333          	add	t1,a4,a5
    7118:	4712                	lw	a4,4(sp)
    711a:	030a                	slli	t1,t1,0x2
    711c:	078a                	slli	a5,a5,0x2
    711e:	933a                	add	t1,t1,a4
    7120:	0a18                	addi	a4,sp,272
    7122:	050a                	slli	a0,a0,0x2
    7124:	00f70eb3          	add	t4,a4,a5
    7128:	189c                	addi	a5,sp,112
    712a:	953e                	add	a0,a0,a5
    712c:	00032783          	lw	a5,0(t1)
    7130:	f0000753          	fmv.w.x	fa4,zero
    7134:	d007f7d3          	fcvt.s.w	fa5,a5
    7138:	e15c                	fsw	fa5,4(a0)
    713a:	000d4d63          	bltz	s10,7154 <__kernel_rem_pio2f+0x2ba>
    713e:	872a                	mv	a4,a0
    7140:	87b2                	mv	a5,a2
    7142:	a019                	j	7148 <__kernel_rem_pio2f+0x2ae>
    7144:	631c                	flw	fa5,0(a4)
    7146:	1771                	addi	a4,a4,-4
    7148:	6394                	flw	fa3,0(a5)
    714a:	0791                	addi	a5,a5,4
    714c:	70f6f743          	fmadd.s	fa4,fa3,fa5,fa4
    7150:	ff879ae3          	bne	a5,s8,7144 <__kernel_rem_pio2f+0x2aa>
    7154:	00eea027          	fsw	fa4,0(t4)
    7158:	0e05                	addi	t3,t3,1
    715a:	0311                	addi	t1,t1,4
    715c:	0e91                	addi	t4,t4,4
    715e:	0511                	addi	a0,a0,4
    7160:	fdc8d6e3          	bge	a7,t3,712c <__kernel_rem_pio2f+0x292>
    7164:	89c6                	mv	s3,a7
    7166:	bd55                	j	701a <__kernel_rem_pio2f+0x180>
    7168:	260a1963          	bnez	s4,73da <__kernel_rem_pio2f+0x540>
    716c:	fff98793          	addi	a5,s3,-1
    7170:	078a                	slli	a5,a5,0x2
    7172:	1298                	addi	a4,sp,352
    7174:	97ba                	add	a5,a5,a4
    7176:	ec07a303          	lw	t1,-320(a5)
    717a:	40835b93          	srai	s7,t1,0x8
    717e:	f57052e3          	blez	s7,70c2 <__kernel_rem_pio2f+0x228>
    7182:	0b05                	addi	s6,s6,1
    7184:	3d305863          	blez	s3,7554 <__kernel_rem_pio2f+0x6ba>
    7188:	5e02                	lw	t3,32(sp)
    718a:	200e1663          	bnez	t3,7396 <__kernel_rem_pio2f+0x4fc>
    718e:	4785                	li	a5,1
    7190:	00f98e63          	beq	s3,a5,71ac <__kernel_rem_pio2f+0x312>
    7194:	02410f13          	addi	t5,sp,36
    7198:	000f2e03          	lw	t3,0(t5)
    719c:	00178513          	addi	a0,a5,1
    71a0:	0f11                	addi	t5,t5,4
    71a2:	1e0e1c63          	bnez	t3,739a <__kernel_rem_pio2f+0x500>
    71a6:	87aa                	mv	a5,a0
    71a8:	fea998e3          	bne	s3,a0,7198 <__kernel_rem_pio2f+0x2fe>
    71ac:	03405363          	blez	s4,71d2 <__kernel_rem_pio2f+0x338>
    71b0:	4785                	li	a5,1
    71b2:	38fa0163          	beq	s4,a5,7534 <__kernel_rem_pio2f+0x69a>
    71b6:	4789                	li	a5,2
    71b8:	00fa1d63          	bne	s4,a5,71d2 <__kernel_rem_pio2f+0x338>
    71bc:	fff98793          	addi	a5,s3,-1
    71c0:	078a                	slli	a5,a5,0x2
    71c2:	1298                	addi	a4,sp,352
    71c4:	97ba                	add	a5,a5,a4
    71c6:	ec07a503          	lw	a0,-320(a5)
    71ca:	03f57513          	andi	a0,a0,63
    71ce:	eca7a023          	sw	a0,-320(a5)
    71d2:	4789                	li	a5,2
    71d4:	eefb97e3          	bne	s7,a5,70c2 <__kernel_rem_pio2f+0x228>
    71d8:	09497a53          	fsub.s	fs4,fs2,fs4
    71dc:	ee0e03e3          	beqz	t3,70c2 <__kernel_rem_pio2f+0x228>
    71e0:	21290553          	fmv.s	fa0,fs2
    71e4:	8552                	mv	a0,s4
    71e6:	c032                	sw	a2,0(sp)
    71e8:	1b7000ef          	jal	ra,7b9e <scalbnf>
    71ec:	08aa7a53          	fsub.s	fs4,fs4,fa0
    71f0:	f00007d3          	fmv.w.x	fa5,zero
    71f4:	4602                	lw	a2,0(sp)
    71f6:	a0fa27d3          	feq.s	a5,fs4,fa5
    71fa:	ec079ae3          	bnez	a5,70ce <__kernel_rem_pio2f+0x234>
    71fe:	47e2                	lw	a5,24(sp)
    7200:	4772                	lw	a4,28(sp)
    7202:	214a0553          	fmv.s	fa0,fs4
    7206:	40e78533          	sub	a0,a5,a4
    720a:	195000ef          	jal	ra,7b9e <scalbnf>
    720e:	00005797          	auipc	a5,0x5
    7212:	2867a687          	flw	fa3,646(a5) # c494 <two_over_pi+0x13c>
    7216:	a0a687d3          	fle.s	a5,fa3,fa0
    721a:	32078f63          	beqz	a5,7558 <__kernel_rem_pio2f+0x6be>
    721e:	00005797          	auipc	a5,0x5
    7222:	7427a707          	flw	fa4,1858(a5) # c960 <PIo2+0x30>
    7226:	10e57753          	fmul.s	fa4,fa0,fa4
    722a:	00198e13          	addi	t3,s3,1
    722e:	129c                	addi	a5,sp,352
    7230:	002e1613          	slli	a2,t3,0x2
    7234:	00978733          	add	a4,a5,s1
    7238:	963e                	add	a2,a2,a5
    723a:	c00717d3          	fcvt.w.s	a5,fa4,rtz
    723e:	0a21                	addi	s4,s4,8
    7240:	d007f7d3          	fcvt.s.w	fa5,a5
    7244:	50d7f6cb          	fnmsub.s	fa3,fa5,fa3,fa0
    7248:	c00797d3          	fcvt.w.s	a5,fa5,rtz
    724c:	c00696d3          	fcvt.w.s	a3,fa3,rtz
    7250:	ecd72023          	sw	a3,-320(a4)
    7254:	ecf62023          	sw	a5,-320(a2) # fffec0 <_data_lma+0xff3328>
    7258:	21290553          	fmv.s	fa0,fs2
    725c:	8552                	mv	a0,s4
    725e:	c072                	sw	t3,0(sp)
    7260:	13f000ef          	jal	ra,7b9e <scalbnf>
    7264:	4e02                	lw	t3,0(sp)
    7266:	1c0e4563          	bltz	t3,7430 <__kernel_rem_pio2f+0x596>
    726a:	002e1893          	slli	a7,t3,0x2
    726e:	11010f13          	addi	t5,sp,272
    7272:	011f05b3          	add	a1,t5,a7
    7276:	011a8733          	add	a4,s5,a7
    727a:	86ae                	mv	a3,a1
    727c:	00005797          	auipc	a5,0x5
    7280:	6e47a707          	flw	fa4,1764(a5) # c960 <PIo2+0x30>
    7284:	a011                	j	7288 <__kernel_rem_pio2f+0x3ee>
    7286:	8732                	mv	a4,a2
    7288:	431c                	lw	a5,0(a4)
    728a:	16f1                	addi	a3,a3,-4
    728c:	ffc70613          	addi	a2,a4,-4
    7290:	d007f7d3          	fcvt.s.w	fa5,a5
    7294:	10a7f7d3          	fmul.s	fa5,fa5,fa0
    7298:	10e57553          	fmul.s	fa0,fa0,fa4
    729c:	e2dc                	fsw	fa5,4(a3)
    729e:	feea94e3          	bne	s5,a4,7286 <__kernel_rem_pio2f+0x3ec>
    72a2:	0c010813          	addi	a6,sp,192
    72a6:	8542                	mv	a0,a6
    72a8:	4601                	li	a2,0
    72aa:	00005797          	auipc	a5,0x5
    72ae:	6b27a607          	flw	fa2,1714(a5) # c95c <PIo2+0x2c>
    72b2:	040cc263          	bltz	s9,72f6 <__kernel_rem_pio2f+0x45c>
    72b6:	00005697          	auipc	a3,0x5
    72ba:	67e68693          	addi	a3,a3,1662 # c934 <PIo2+0x4>
    72be:	872e                	mv	a4,a1
    72c0:	20c60753          	fmv.s	fa4,fa2
    72c4:	f00007d3          	fmv.w.x	fa5,zero
    72c8:	4781                	li	a5,0
    72ca:	a029                	j	72d4 <__kernel_rem_pio2f+0x43a>
    72cc:	00f64b63          	blt	a2,a5,72e2 <__kernel_rem_pio2f+0x448>
    72d0:	6298                	flw	fa4,0(a3)
    72d2:	0691                	addi	a3,a3,4
    72d4:	6314                	flw	fa3,0(a4)
    72d6:	0785                	addi	a5,a5,1
    72d8:	0711                	addi	a4,a4,4
    72da:	78e6f7c3          	fmadd.s	fa5,fa3,fa4,fa5
    72de:	fefcd7e3          	bge	s9,a5,72cc <__kernel_rem_pio2f+0x432>
    72e2:	e11c                	fsw	fa5,0(a0)
    72e4:	0605                	addi	a2,a2,1
    72e6:	0511                	addi	a0,a0,4
    72e8:	ffc58793          	addi	a5,a1,-4
    72ec:	00bf0f63          	beq	t5,a1,730a <__kernel_rem_pio2f+0x470>
    72f0:	85be                	mv	a1,a5
    72f2:	fc0cd2e3          	bgez	s9,72b6 <__kernel_rem_pio2f+0x41c>
    72f6:	f00007d3          	fmv.w.x	fa5,zero
    72fa:	0605                	addi	a2,a2,1
    72fc:	0511                	addi	a0,a0,4
    72fe:	fef52e27          	fsw	fa5,-4(a0)
    7302:	ffc58793          	addi	a5,a1,-4
    7306:	febf15e3          	bne	t5,a1,72f0 <__kernel_rem_pio2f+0x456>
    730a:	4752                	lw	a4,20(sp)
    730c:	4789                	li	a5,2
    730e:	18e7c063          	blt	a5,a4,748e <__kernel_rem_pio2f+0x5f4>
    7312:	98c2                	add	a7,a7,a6
    7314:	f00007d3          	fmv.w.x	fa5,zero
    7318:	12e04a63          	bgtz	a4,744c <__kernel_rem_pio2f+0x5b2>
    731c:	c319                	beqz	a4,7322 <__kernel_rem_pio2f+0x488>
    731e:	a005                	j	733e <__kernel_rem_pio2f+0x4a4>
    7320:	88be                	mv	a7,a5
    7322:	0008a707          	flw	fa4,0(a7)
    7326:	ffc88793          	addi	a5,a7,-4
    732a:	00e7f7d3          	fadd.s	fa5,fa5,fa4
    732e:	ff1819e3          	bne	a6,a7,7320 <__kernel_rem_pio2f+0x486>
    7332:	000b8463          	beqz	s7,733a <__kernel_rem_pio2f+0x4a0>
    7336:	20f797d3          	fneg.s	fa5,fa5
    733a:	47c2                	lw	a5,16(sp)
    733c:	e39c                	fsw	fa5,0(a5)
    733e:	1bc12083          	lw	ra,444(sp)
    7342:	1b812403          	lw	s0,440(sp)
    7346:	007b7513          	andi	a0,s6,7
    734a:	1b412483          	lw	s1,436(sp)
    734e:	1b012903          	lw	s2,432(sp)
    7352:	1ac12983          	lw	s3,428(sp)
    7356:	1a812a03          	lw	s4,424(sp)
    735a:	1a412a83          	lw	s5,420(sp)
    735e:	1a012b03          	lw	s6,416(sp)
    7362:	19c12b83          	lw	s7,412(sp)
    7366:	19812c03          	lw	s8,408(sp)
    736a:	19412c83          	lw	s9,404(sp)
    736e:	19012d03          	lw	s10,400(sp)
    7372:	18c12d83          	lw	s11,396(sp)
    7376:	17c12407          	flw	fs0,380(sp)
    737a:	17812487          	flw	fs1,376(sp)
    737e:	17412907          	flw	fs2,372(sp)
    7382:	17012987          	flw	fs3,368(sp)
    7386:	16c12a07          	flw	fs4,364(sp)
    738a:	16812a87          	flw	fs5,360(sp)
    738e:	16412b07          	flw	fs6,356(sp)
    7392:	6139                	addi	sp,sp,448
    7394:	8082                	ret
    7396:	4505                	li	a0,1
    7398:	4781                	li	a5,0
    739a:	078a                	slli	a5,a5,0x2
    739c:	1298                	addi	a4,sp,352
    739e:	10000f13          	li	t5,256
    73a2:	97ba                	add	a5,a5,a4
    73a4:	41cf0e33          	sub	t3,t5,t3
    73a8:	edc7a023          	sw	t3,-320(a5)
    73ac:	03355563          	bge	a0,s3,73d6 <__kernel_rem_pio2f+0x53c>
    73b0:	00251793          	slli	a5,a0,0x2
    73b4:	00f70533          	add	a0,a4,a5
    73b8:	ec052503          	lw	a0,-320(a0)
    73bc:	97d6                	add	a5,a5,s5
    73be:	009a8f33          	add	t5,s5,s1
    73c2:	0ff00e13          	li	t3,255
    73c6:	a011                	j	73ca <__kernel_rem_pio2f+0x530>
    73c8:	4388                	lw	a0,0(a5)
    73ca:	40ae0533          	sub	a0,t3,a0
    73ce:	c388                	sw	a0,0(a5)
    73d0:	0791                	addi	a5,a5,4
    73d2:	ffe79be3          	bne	a5,t5,73c8 <__kernel_rem_pio2f+0x52e>
    73d6:	4e05                	li	t3,1
    73d8:	bbd1                	j	71ac <__kernel_rem_pio2f+0x312>
    73da:	a14987d3          	fle.s	a5,fs3,fs4
    73de:	4b81                	li	s7,0
    73e0:	ce0781e3          	beqz	a5,70c2 <__kernel_rem_pio2f+0x228>
    73e4:	0b05                	addi	s6,s6,1
    73e6:	4b89                	li	s7,2
    73e8:	db3040e3          	bgtz	s3,7188 <__kernel_rem_pio2f+0x2ee>
    73ec:	09497a53          	fsub.s	fs4,fs2,fs4
    73f0:	b9c9                	j	70c2 <__kernel_rem_pio2f+0x228>
    73f2:	00198793          	addi	a5,s3,1
    73f6:	8e3e                	mv	t3,a5
    73f8:	88be                	mv	a7,a5
    73fa:	bb09                	j	710c <__kernel_rem_pio2f+0x272>
    73fc:	002e1793          	slli	a5,t3,0x2
    7400:	1298                	addi	a4,sp,352
    7402:	97ba                	add	a5,a5,a4
    7404:	ec07a783          	lw	a5,-320(a5)
    7408:	1a61                	addi	s4,s4,-8
    740a:	e40797e3          	bnez	a5,7258 <__kernel_rem_pio2f+0x3be>
    740e:	00299793          	slli	a5,s3,0x2
    7412:	17e1                	addi	a5,a5,-8
    7414:	97d6                	add	a5,a5,s5
    7416:	17f1                	addi	a5,a5,-4
    7418:	43d8                	lw	a4,4(a5)
    741a:	1e7d                	addi	t3,t3,-1
    741c:	1a61                	addi	s4,s4,-8
    741e:	df65                	beqz	a4,7416 <__kernel_rem_pio2f+0x57c>
    7420:	21290553          	fmv.s	fa0,fs2
    7424:	8552                	mv	a0,s4
    7426:	c072                	sw	t3,0(sp)
    7428:	2f9d                	jal	7b9e <scalbnf>
    742a:	4e02                	lw	t3,0(sp)
    742c:	e20e5fe3          	bgez	t3,726a <__kernel_rem_pio2f+0x3d0>
    7430:	4752                	lw	a4,20(sp)
    7432:	4789                	li	a5,2
    7434:	04e7cd63          	blt	a5,a4,748e <__kernel_rem_pio2f+0x5f4>
    7438:	f00007d3          	fmv.w.x	fa5,zero
    743c:	02e04063          	bgtz	a4,745c <__kernel_rem_pio2f+0x5c2>
    7440:	ee071fe3          	bnez	a4,733e <__kernel_rem_pio2f+0x4a4>
    7444:	ee0b8be3          	beqz	s7,733a <__kernel_rem_pio2f+0x4a0>
    7448:	b5fd                	j	7336 <__kernel_rem_pio2f+0x49c>
    744a:	88be                	mv	a7,a5
    744c:	0008a707          	flw	fa4,0(a7)
    7450:	ffc88793          	addi	a5,a7,-4
    7454:	00e7f7d3          	fadd.s	fa5,fa5,fa4
    7458:	ff1819e3          	bne	a6,a7,744a <__kernel_rem_pio2f+0x5b0>
    745c:	670e                	flw	fa4,192(sp)
    745e:	08f77753          	fsub.s	fa4,fa4,fa5
    7462:	100b9363          	bnez	s7,7568 <__kernel_rem_pio2f+0x6ce>
    7466:	47c2                	lw	a5,16(sp)
    7468:	e39c                	fsw	fa5,0(a5)
    746a:	01c05f63          	blez	t3,7488 <__kernel_rem_pio2f+0x5ee>
    746e:	01d8                	addi	a4,sp,196
    7470:	4785                	li	a5,1
    7472:	631c                	flw	fa5,0(a4)
    7474:	0785                	addi	a5,a5,1
    7476:	0711                	addi	a4,a4,4
    7478:	00f77753          	fadd.s	fa4,fa4,fa5
    747c:	fefe5be3          	bge	t3,a5,7472 <__kernel_rem_pio2f+0x5d8>
    7480:	000b8463          	beqz	s7,7488 <__kernel_rem_pio2f+0x5ee>
    7484:	20e71753          	fneg.s	fa4,fa4
    7488:	47c2                	lw	a5,16(sp)
    748a:	e3d8                	fsw	fa4,4(a5)
    748c:	bd4d                	j	733e <__kernel_rem_pio2f+0x4a4>
    748e:	4752                	lw	a4,20(sp)
    7490:	478d                	li	a5,3
    7492:	eaf716e3          	bne	a4,a5,733e <__kernel_rem_pio2f+0x4a4>
    7496:	0fc05d63          	blez	t3,7590 <__kernel_rem_pio2f+0x6f6>
    749a:	002e1713          	slli	a4,t3,0x2
    749e:	1294                	addi	a3,sp,352
    74a0:	96ba                	add	a3,a3,a4
    74a2:	0c010813          	addi	a6,sp,192
    74a6:	ffc70793          	addi	a5,a4,-4
    74aa:	f606a687          	flw	fa3,-160(a3)
    74ae:	97c2                	add	a5,a5,a6
    74b0:	a011                	j	74b4 <__kernel_rem_pio2f+0x61a>
    74b2:	87b6                	mv	a5,a3
    74b4:	639c                	flw	fa5,0(a5)
    74b6:	ffc78693          	addi	a3,a5,-4
    74ba:	00d7f753          	fadd.s	fa4,fa5,fa3
    74be:	08e7f7d3          	fsub.s	fa5,fa5,fa4
    74c2:	e398                	fsw	fa4,0(a5)
    74c4:	00d7f7d3          	fadd.s	fa5,fa5,fa3
    74c8:	20e706d3          	fmv.s	fa3,fa4
    74cc:	e3dc                	fsw	fa5,4(a5)
    74ce:	fef812e3          	bne	a6,a5,74b2 <__kernel_rem_pio2f+0x618>
    74d2:	4785                	li	a5,1
    74d4:	0bc7de63          	bge	a5,t3,7590 <__kernel_rem_pio2f+0x6f6>
    74d8:	002e1793          	slli	a5,t3,0x2
    74dc:	1294                	addi	a3,sp,352
    74de:	9736                	add	a4,a4,a3
    74e0:	17f1                	addi	a5,a5,-4
    74e2:	f6072687          	flw	fa3,-160(a4)
    74e6:	00f80733          	add	a4,a6,a5
    74ea:	a011                	j	74ee <__kernel_rem_pio2f+0x654>
    74ec:	8736                	mv	a4,a3
    74ee:	631c                	flw	fa5,0(a4)
    74f0:	ffc70693          	addi	a3,a4,-4
    74f4:	00d7f753          	fadd.s	fa4,fa5,fa3
    74f8:	08e7f7d3          	fsub.s	fa5,fa5,fa4
    74fc:	e318                	fsw	fa4,0(a4)
    74fe:	00d7f7d3          	fadd.s	fa5,fa5,fa3
    7502:	20e706d3          	fmv.s	fa3,fa4
    7506:	e35c                	fsw	fa5,4(a4)
    7508:	fed812e3          	bne	a6,a3,74ec <__kernel_rem_pio2f+0x652>
    750c:	f00007d3          	fmv.w.x	fa5,zero
    7510:	0791                	addi	a5,a5,4
    7512:	983e                	add	a6,a6,a5
    7514:	00082707          	flw	fa4,0(a6)
    7518:	1871                	addi	a6,a6,-4
    751a:	00e7f7d3          	fadd.s	fa5,fa5,fa4
    751e:	ff071be3          	bne	a4,a6,7514 <__kernel_rem_pio2f+0x67a>
    7522:	668e                	flw	fa3,192(sp)
    7524:	671e                	flw	fa4,196(sp)
    7526:	040b9a63          	bnez	s7,757a <__kernel_rem_pio2f+0x6e0>
    752a:	47c2                	lw	a5,16(sp)
    752c:	e394                	fsw	fa3,0(a5)
    752e:	e3d8                	fsw	fa4,4(a5)
    7530:	e79c                	fsw	fa5,8(a5)
    7532:	b531                	j	733e <__kernel_rem_pio2f+0x4a4>
    7534:	fff98793          	addi	a5,s3,-1
    7538:	078a                	slli	a5,a5,0x2
    753a:	1298                	addi	a4,sp,352
    753c:	97ba                	add	a5,a5,a4
    753e:	ec07a503          	lw	a0,-320(a5)
    7542:	07f57513          	andi	a0,a0,127
    7546:	eca7a023          	sw	a0,-320(a5)
    754a:	b161                	j	71d2 <__kernel_rem_pio2f+0x338>
    754c:	47a1                	li	a5,8
    754e:	cc3e                	sw	a5,24(sp)
    7550:	c402                	sw	zero,8(sp)
    7552:	baf9                	j	6f30 <__kernel_rem_pio2f+0x96>
    7554:	4e01                	li	t3,0
    7556:	b999                	j	71ac <__kernel_rem_pio2f+0x312>
    7558:	c00517d3          	fcvt.w.s	a5,fa0,rtz
    755c:	1298                	addi	a4,sp,352
    755e:	9726                	add	a4,a4,s1
    7560:	8e4e                	mv	t3,s3
    7562:	ecf72023          	sw	a5,-320(a4)
    7566:	b9cd                	j	7258 <__kernel_rem_pio2f+0x3be>
    7568:	20f797d3          	fneg.s	fa5,fa5
    756c:	47c2                	lw	a5,16(sp)
    756e:	e39c                	fsw	fa5,0(a5)
    7570:	efc04fe3          	bgtz	t3,746e <__kernel_rem_pio2f+0x5d4>
    7574:	20e71753          	fneg.s	fa4,fa4
    7578:	bf01                	j	7488 <__kernel_rem_pio2f+0x5ee>
    757a:	47c2                	lw	a5,16(sp)
    757c:	20d696d3          	fneg.s	fa3,fa3
    7580:	20e71753          	fneg.s	fa4,fa4
    7584:	20f797d3          	fneg.s	fa5,fa5
    7588:	e394                	fsw	fa3,0(a5)
    758a:	e3d8                	fsw	fa4,4(a5)
    758c:	e79c                	fsw	fa5,8(a5)
    758e:	bb45                	j	733e <__kernel_rem_pio2f+0x4a4>
    7590:	f00007d3          	fmv.w.x	fa5,zero
    7594:	b779                	j	7522 <__kernel_rem_pio2f+0x688>

00007596 <__kernel_sinf>:
    7596:	e00507d3          	fmv.x.w	a5,fa0
    759a:	320006b7          	lui	a3,0x32000
    759e:	00179713          	slli	a4,a5,0x1
    75a2:	8305                	srli	a4,a4,0x1
    75a4:	00d75563          	bge	a4,a3,75ae <__kernel_sinf+0x18>
    75a8:	c0051753          	fcvt.w.s	a4,fa0,rtz
    75ac:	c749                	beqz	a4,7636 <__kernel_sinf+0xa0>
    75ae:	f00787d3          	fmv.w.x	fa5,a5
    75b2:	00005717          	auipc	a4,0x5
    75b6:	3c672687          	flw	fa3,966(a4) # c978 <init_jk+0x10>
    75ba:	00005717          	auipc	a4,0x5
    75be:	3c272007          	flw	ft0,962(a4) # c97c <init_jk+0x14>
    75c2:	10f7f753          	fmul.s	fa4,fa5,fa5
    75c6:	00005717          	auipc	a4,0x5
    75ca:	3ae72787          	flw	fa5,942(a4) # c974 <init_jk+0xc>
    75ce:	00005717          	auipc	a4,0x5
    75d2:	3b272607          	flw	fa2,946(a4) # c980 <init_jk+0x18>
    75d6:	f0078553          	fmv.w.x	fa0,a5
    75da:	68f777c3          	fmadd.s	fa5,fa4,fa5,fa3
    75de:	00005717          	auipc	a4,0x5
    75e2:	3a672687          	flw	fa3,934(a4) # c984 <init_jk+0x1c>
    75e6:	10e57553          	fmul.s	fa0,fa0,fa4
    75ea:	00e7f7c3          	fmadd.s	fa5,fa5,fa4,ft0
    75ee:	60e7f7c3          	fmadd.s	fa5,fa5,fa4,fa2
    75f2:	68e7f7c3          	fmadd.s	fa5,fa5,fa4,fa3
    75f6:	ed01                	bnez	a0,760e <__kernel_sinf+0x78>
    75f8:	00005717          	auipc	a4,0x5
    75fc:	39072587          	flw	fa1,912(a4) # c988 <init_jk+0x20>
    7600:	58f777c3          	fmadd.s	fa5,fa4,fa5,fa1
    7604:	f0078753          	fmv.w.x	fa4,a5
    7608:	70a7f543          	fmadd.s	fa0,fa5,fa0,fa4
    760c:	8082                	ret
    760e:	10f577d3          	fmul.s	fa5,fa0,fa5
    7612:	00005717          	auipc	a4,0x5
    7616:	97a72687          	flw	fa3,-1670(a4) # bf8c <strlen+0x4d4>
    761a:	00005717          	auipc	a4,0x5
    761e:	37272607          	flw	fa2,882(a4) # c98c <init_jk+0x24>
    7622:	78d5f7c7          	fmsub.s	fa5,fa1,fa3,fa5
    7626:	58e7f7c7          	fmsub.s	fa5,fa5,fa4,fa1
    762a:	78c57543          	fmadd.s	fa0,fa0,fa2,fa5
    762e:	f00787d3          	fmv.w.x	fa5,a5
    7632:	08a7f553          	fsub.s	fa0,fa5,fa0
    7636:	8082                	ret

00007638 <fabs>:
    7638:	0586                	slli	a1,a1,0x1
    763a:	8185                	srli	a1,a1,0x1
    763c:	8082                	ret

0000763e <floor>:
    763e:	4145d793          	srai	a5,a1,0x14
    7642:	1101                	addi	sp,sp,-32
    7644:	7ff7f793          	andi	a5,a5,2047
    7648:	cc22                	sw	s0,24(sp)
    764a:	ca26                	sw	s1,20(sp)
    764c:	c84a                	sw	s2,16(sp)
    764e:	c64e                	sw	s3,12(sp)
    7650:	c452                	sw	s4,8(sp)
    7652:	ce06                	sw	ra,28(sp)
    7654:	c256                	sw	s5,4(sp)
    7656:	c05a                	sw	s6,0(sp)
    7658:	c0178493          	addi	s1,a5,-1023
    765c:	474d                	li	a4,19
    765e:	842e                	mv	s0,a1
    7660:	89aa                	mv	s3,a0
    7662:	892e                	mv	s2,a1
    7664:	8a2a                	mv	s4,a0
    7666:	08974a63          	blt	a4,s1,76fa <floor+0xbc>
    766a:	0604c563          	bltz	s1,76d4 <floor+0x96>
    766e:	00100b37          	lui	s6,0x100
    7672:	fffb0a93          	addi	s5,s6,-1 # fffff <_data_lma+0xf3467>
    7676:	409adab3          	sra	s5,s5,s1
    767a:	00baf7b3          	and	a5,s5,a1
    767e:	8fc9                	or	a5,a5,a0
    7680:	86aa                	mv	a3,a0
    7682:	872e                	mv	a4,a1
    7684:	cf85                	beqz	a5,76bc <floor+0x7e>
    7686:	00005797          	auipc	a5,0x5
    768a:	30a78793          	addi	a5,a5,778 # c990 <init_jk+0x28>
    768e:	4390                	lw	a2,0(a5)
    7690:	43d4                	lw	a3,4(a5)
    7692:	586010ef          	jal	ra,8c18 <__adddf3>
    7696:	4601                	li	a2,0
    7698:	4681                	li	a3,0
    769a:	00f020ef          	jal	ra,9ea8 <__gedf2>
    769e:	00a05d63          	blez	a0,76b8 <floor+0x7a>
    76a2:	00045663          	bgez	s0,76ae <floor+0x70>
    76a6:	409b54b3          	sra	s1,s6,s1
    76aa:	00848933          	add	s2,s1,s0
    76ae:	fffaca93          	not	s5,s5
    76b2:	01597933          	and	s2,s2,s5
    76b6:	4a01                	li	s4,0
    76b8:	86d2                	mv	a3,s4
    76ba:	874a                	mv	a4,s2
    76bc:	40f2                	lw	ra,28(sp)
    76be:	4462                	lw	s0,24(sp)
    76c0:	44d2                	lw	s1,20(sp)
    76c2:	4942                	lw	s2,16(sp)
    76c4:	49b2                	lw	s3,12(sp)
    76c6:	4a22                	lw	s4,8(sp)
    76c8:	4a92                	lw	s5,4(sp)
    76ca:	4b02                	lw	s6,0(sp)
    76cc:	8536                	mv	a0,a3
    76ce:	85ba                	mv	a1,a4
    76d0:	6105                	addi	sp,sp,32
    76d2:	8082                	ret
    76d4:	00005797          	auipc	a5,0x5
    76d8:	2bc78793          	addi	a5,a5,700 # c990 <init_jk+0x28>
    76dc:	4390                	lw	a2,0(a5)
    76de:	43d4                	lw	a3,4(a5)
    76e0:	538010ef          	jal	ra,8c18 <__adddf3>
    76e4:	4601                	li	a2,0
    76e6:	4681                	li	a3,0
    76e8:	7c0020ef          	jal	ra,9ea8 <__gedf2>
    76ec:	fca056e3          	blez	a0,76b8 <floor+0x7a>
    76f0:	06044563          	bltz	s0,775a <floor+0x11c>
    76f4:	4a01                	li	s4,0
    76f6:	4901                	li	s2,0
    76f8:	b7c1                	j	76b8 <floor+0x7a>
    76fa:	03300713          	li	a4,51
    76fe:	00975f63          	bge	a4,s1,771c <floor+0xde>
    7702:	40000793          	li	a5,1024
    7706:	86aa                	mv	a3,a0
    7708:	872e                	mv	a4,a1
    770a:	faf499e3          	bne	s1,a5,76bc <floor+0x7e>
    770e:	86ae                	mv	a3,a1
    7710:	862a                	mv	a2,a0
    7712:	506010ef          	jal	ra,8c18 <__adddf3>
    7716:	86aa                	mv	a3,a0
    7718:	872e                	mv	a4,a1
    771a:	b74d                	j	76bc <floor+0x7e>
    771c:	bed78793          	addi	a5,a5,-1043
    7720:	5afd                	li	s5,-1
    7722:	00fadab3          	srl	s5,s5,a5
    7726:	00aaf7b3          	and	a5,s5,a0
    772a:	86aa                	mv	a3,a0
    772c:	872e                	mv	a4,a1
    772e:	d7d9                	beqz	a5,76bc <floor+0x7e>
    7730:	00005797          	auipc	a5,0x5
    7734:	26078793          	addi	a5,a5,608 # c990 <init_jk+0x28>
    7738:	4390                	lw	a2,0(a5)
    773a:	43d4                	lw	a3,4(a5)
    773c:	4dc010ef          	jal	ra,8c18 <__adddf3>
    7740:	4601                	li	a2,0
    7742:	4681                	li	a3,0
    7744:	764020ef          	jal	ra,9ea8 <__gedf2>
    7748:	f6a058e3          	blez	a0,76b8 <floor+0x7a>
    774c:	02044063          	bltz	s0,776c <floor+0x12e>
    7750:	fffac793          	not	a5,s5
    7754:	00fa7a33          	and	s4,s4,a5
    7758:	b785                	j	76b8 <floor+0x7a>
    775a:	0406                	slli	s0,s0,0x1
    775c:	8005                	srli	s0,s0,0x1
    775e:	01346433          	or	s0,s0,s3
    7762:	4a01                	li	s4,0
    7764:	d831                	beqz	s0,76b8 <floor+0x7a>
    7766:	bff00937          	lui	s2,0xbff00
    776a:	b7b9                	j	76b8 <floor+0x7a>
    776c:	47d1                	li	a5,20
    776e:	00f48f63          	beq	s1,a5,778c <floor+0x14e>
    7772:	03400793          	li	a5,52
    7776:	8f85                	sub	a5,a5,s1
    7778:	4485                	li	s1,1
    777a:	00f494b3          	sll	s1,s1,a5
    777e:	99a6                	add	s3,s3,s1
    7780:	0149f963          	bgeu	s3,s4,7792 <floor+0x154>
    7784:	00140913          	addi	s2,s0,1
    7788:	8a4e                	mv	s4,s3
    778a:	b7d9                	j	7750 <floor+0x112>
    778c:	00140913          	addi	s2,s0,1
    7790:	b7c1                	j	7750 <floor+0x112>
    7792:	8a4e                	mv	s4,s3
    7794:	bf75                	j	7750 <floor+0x112>

00007796 <matherr>:
    7796:	4501                	li	a0,0
    7798:	8082                	ret

0000779a <scalbn>:
    779a:	1141                	addi	sp,sp,-16
    779c:	4145d793          	srai	a5,a1,0x14
    77a0:	c422                	sw	s0,8(sp)
    77a2:	c606                	sw	ra,12(sp)
    77a4:	c226                	sw	s1,4(sp)
    77a6:	7ff7f793          	andi	a5,a5,2047
    77aa:	872e                	mv	a4,a1
    77ac:	86aa                	mv	a3,a0
    77ae:	8432                	mv	s0,a2
    77b0:	e7c1                	bnez	a5,7838 <scalbn+0x9e>
    77b2:	00159793          	slli	a5,a1,0x1
    77b6:	8385                	srli	a5,a5,0x1
    77b8:	8fc9                	or	a5,a5,a0
    77ba:	cba5                	beqz	a5,782a <scalbn+0x90>
    77bc:	00005797          	auipc	a5,0x5
    77c0:	1dc78793          	addi	a5,a5,476 # c998 <init_jk+0x30>
    77c4:	43d4                	lw	a3,4(a5)
    77c6:	4390                	lw	a2,0(a5)
    77c8:	04d020ef          	jal	ra,a014 <__muldf3>
    77cc:	77d1                	lui	a5,0xffff4
    77ce:	cb078793          	addi	a5,a5,-848 # ffff3cb0 <_eusrstack+0xdffebcb0>
    77d2:	86aa                	mv	a3,a0
    77d4:	872e                	mv	a4,a1
    77d6:	0ef44163          	blt	s0,a5,78b8 <scalbn+0x11e>
    77da:	4145d793          	srai	a5,a1,0x14
    77de:	7ff7f793          	andi	a5,a5,2047
    77e2:	862e                	mv	a2,a1
    77e4:	fca78793          	addi	a5,a5,-54
    77e8:	97a2                	add	a5,a5,s0
    77ea:	7fe00593          	li	a1,2046
    77ee:	0af5c363          	blt	a1,a5,7894 <scalbn+0xfa>
    77f2:	0af04663          	bgtz	a5,789e <scalbn+0x104>
    77f6:	fcb00593          	li	a1,-53
    77fa:	06b7d163          	bge	a5,a1,785c <scalbn+0xc2>
    77fe:	67b1                	lui	a5,0xc
    7800:	35078793          	addi	a5,a5,848 # c350 <npio2_hw+0x78>
    7804:	0887c863          	blt	a5,s0,7894 <scalbn+0xfa>
    7808:	00005797          	auipc	a5,0x5
    780c:	19878793          	addi	a5,a5,408 # c9a0 <init_jk+0x38>
    7810:	4380                	lw	s0,0(a5)
    7812:	43c4                	lw	s1,4(a5)
    7814:	8636                	mv	a2,a3
    7816:	8522                	mv	a0,s0
    7818:	86ba                	mv	a3,a4
    781a:	85a6                	mv	a1,s1
    781c:	2149                	jal	7c9e <copysign>
    781e:	86a6                	mv	a3,s1
    7820:	8622                	mv	a2,s0
    7822:	7f2020ef          	jal	ra,a014 <__muldf3>
    7826:	86aa                	mv	a3,a0
    7828:	872e                	mv	a4,a1
    782a:	40b2                	lw	ra,12(sp)
    782c:	4422                	lw	s0,8(sp)
    782e:	4492                	lw	s1,4(sp)
    7830:	8536                	mv	a0,a3
    7832:	85ba                	mv	a1,a4
    7834:	0141                	addi	sp,sp,16
    7836:	8082                	ret
    7838:	7ff00813          	li	a6,2047
    783c:	862e                	mv	a2,a1
    783e:	fb0795e3          	bne	a5,a6,77e8 <scalbn+0x4e>
    7842:	86ae                	mv	a3,a1
    7844:	862a                	mv	a2,a0
    7846:	3d2010ef          	jal	ra,8c18 <__adddf3>
    784a:	40b2                	lw	ra,12(sp)
    784c:	4422                	lw	s0,8(sp)
    784e:	86aa                	mv	a3,a0
    7850:	872e                	mv	a4,a1
    7852:	4492                	lw	s1,4(sp)
    7854:	8536                	mv	a0,a3
    7856:	85ba                	mv	a1,a4
    7858:	0141                	addi	sp,sp,16
    785a:	8082                	ret
    785c:	80100737          	lui	a4,0x80100
    7860:	177d                	addi	a4,a4,-1
    7862:	03678793          	addi	a5,a5,54
    7866:	8e79                	and	a2,a2,a4
    7868:	07d2                	slli	a5,a5,0x14
    786a:	00005717          	auipc	a4,0x5
    786e:	13e70713          	addi	a4,a4,318 # c9a8 <init_jk+0x40>
    7872:	85b6                	mv	a1,a3
    7874:	8fd1                	or	a5,a5,a2
    7876:	4354                	lw	a3,4(a4)
    7878:	4310                	lw	a2,0(a4)
    787a:	852e                	mv	a0,a1
    787c:	85be                	mv	a1,a5
    787e:	796020ef          	jal	ra,a014 <__muldf3>
    7882:	40b2                	lw	ra,12(sp)
    7884:	4422                	lw	s0,8(sp)
    7886:	86aa                	mv	a3,a0
    7888:	872e                	mv	a4,a1
    788a:	4492                	lw	s1,4(sp)
    788c:	8536                	mv	a0,a3
    788e:	85ba                	mv	a1,a4
    7890:	0141                	addi	sp,sp,16
    7892:	8082                	ret
    7894:	00005797          	auipc	a5,0x5
    7898:	0fc78793          	addi	a5,a5,252 # c990 <init_jk+0x28>
    789c:	bf95                	j	7810 <scalbn+0x76>
    789e:	80100737          	lui	a4,0x80100
    78a2:	40b2                	lw	ra,12(sp)
    78a4:	4422                	lw	s0,8(sp)
    78a6:	177d                	addi	a4,a4,-1
    78a8:	8f71                	and	a4,a4,a2
    78aa:	07d2                	slli	a5,a5,0x14
    78ac:	8f5d                	or	a4,a4,a5
    78ae:	4492                	lw	s1,4(sp)
    78b0:	8536                	mv	a0,a3
    78b2:	85ba                	mv	a1,a4
    78b4:	0141                	addi	sp,sp,16
    78b6:	8082                	ret
    78b8:	00005797          	auipc	a5,0x5
    78bc:	0e878793          	addi	a5,a5,232 # c9a0 <init_jk+0x38>
    78c0:	43d4                	lw	a3,4(a5)
    78c2:	4390                	lw	a2,0(a5)
    78c4:	750020ef          	jal	ra,a014 <__muldf3>
    78c8:	40b2                	lw	ra,12(sp)
    78ca:	4422                	lw	s0,8(sp)
    78cc:	86aa                	mv	a3,a0
    78ce:	872e                	mv	a4,a1
    78d0:	4492                	lw	s1,4(sp)
    78d2:	8536                	mv	a0,a3
    78d4:	85ba                	mv	a1,a4
    78d6:	0141                	addi	sp,sp,16
    78d8:	8082                	ret

000078da <atanf>:
    78da:	e00507d3          	fmv.x.w	a5,fa0
    78de:	1141                	addi	sp,sp,-16
    78e0:	c422                	sw	s0,8(sp)
    78e2:	00179413          	slli	s0,a5,0x1
    78e6:	c226                	sw	s1,4(sp)
    78e8:	c606                	sw	ra,12(sp)
    78ea:	50800737          	lui	a4,0x50800
    78ee:	8005                	srli	s0,s0,0x1
    78f0:	84be                	mv	s1,a5
    78f2:	02e44163          	blt	s0,a4,7914 <atanf+0x3a>
    78f6:	7f800737          	lui	a4,0x7f800
    78fa:	10874363          	blt	a4,s0,7a00 <atanf+0x126>
    78fe:	00004797          	auipc	a5,0x4
    7902:	7ea7a507          	flw	fa0,2026(a5) # c0e8 <strlen+0x630>
    7906:	12905363          	blez	s1,7a2c <atanf+0x152>
    790a:	40b2                	lw	ra,12(sp)
    790c:	4422                	lw	s0,8(sp)
    790e:	4492                	lw	s1,4(sp)
    7910:	0141                	addi	sp,sp,16
    7912:	8082                	ret
    7914:	3ee00737          	lui	a4,0x3ee00
    7918:	12e45a63          	bge	s0,a4,7a4c <atanf+0x172>
    791c:	31000737          	lui	a4,0x31000
    7920:	0ee44763          	blt	s0,a4,7a0e <atanf+0x134>
    7924:	577d                	li	a4,-1
    7926:	f0078753          	fmv.w.x	fa4,a5
    792a:	00005697          	auipc	a3,0x5
    792e:	0926a587          	flw	fa1,146(a3) # c9bc <init_jk+0x54>
    7932:	00005697          	auipc	a3,0x5
    7936:	0a26a607          	flw	fa2,162(a3) # c9d4 <init_jk+0x6c>
    793a:	10e776d3          	fmul.s	fa3,fa4,fa4
    793e:	00005697          	auipc	a3,0x5
    7942:	07a6a507          	flw	fa0,122(a3) # c9b8 <init_jk+0x50>
    7946:	00005697          	auipc	a3,0x5
    794a:	08a6a787          	flw	fa5,138(a3) # c9d0 <init_jk+0x68>
    794e:	00005697          	auipc	a3,0x5
    7952:	0726a207          	flw	ft4,114(a3) # c9c0 <init_jk+0x58>
    7956:	00005697          	auipc	a3,0x5
    795a:	0826a187          	flw	ft3,130(a3) # c9d8 <init_jk+0x70>
    795e:	10d6f753          	fmul.s	fa4,fa3,fa3
    7962:	00005697          	auipc	a3,0x5
    7966:	0626a107          	flw	ft2,98(a3) # c9c4 <init_jk+0x5c>
    796a:	00005697          	auipc	a3,0x5
    796e:	0726a087          	flw	ft1,114(a3) # c9dc <init_jk+0x74>
    7972:	00005697          	auipc	a3,0x5
    7976:	0566a007          	flw	ft0,86(a3) # c9c8 <init_jk+0x60>
    797a:	58a77543          	fmadd.s	fa0,fa4,fa0,fa1
    797e:	60f777c3          	fmadd.s	fa5,fa4,fa5,fa2
    7982:	00005697          	auipc	a3,0x5
    7986:	05e6a587          	flw	fa1,94(a3) # c9e0 <init_jk+0x78>
    798a:	00005697          	auipc	a3,0x5
    798e:	0426a607          	flw	fa2,66(a3) # c9cc <init_jk+0x64>
    7992:	56fd                	li	a3,-1
    7994:	20e57543          	fmadd.s	fa0,fa0,fa4,ft4
    7998:	18e7f7c3          	fmadd.s	fa5,fa5,fa4,ft3
    799c:	10e57543          	fmadd.s	fa0,fa0,fa4,ft2
    79a0:	08e7f7c3          	fmadd.s	fa5,fa5,fa4,ft1
    79a4:	00e57543          	fmadd.s	fa0,fa0,fa4,ft0
    79a8:	58e7f7c3          	fmadd.s	fa5,fa5,fa4,fa1
    79ac:	60e57543          	fmadd.s	fa0,fa0,fa4,fa2
    79b0:	10e7f7d3          	fmul.s	fa5,fa5,fa4
    79b4:	78d57543          	fmadd.s	fa0,fa0,fa3,fa5
    79b8:	f00787d3          	fmv.w.x	fa5,a5
    79bc:	10f57553          	fmul.s	fa0,fa0,fa5
    79c0:	06d70f63          	beq	a4,a3,7a3e <atanf+0x164>
    79c4:	070a                	slli	a4,a4,0x2
    79c6:	00005697          	auipc	a3,0x5
    79ca:	02e68693          	addi	a3,a3,46 # c9f4 <atanlo>
    79ce:	96ba                	add	a3,a3,a4
    79d0:	629c                	flw	fa5,0(a3)
    79d2:	f0078753          	fmv.w.x	fa4,a5
    79d6:	00005697          	auipc	a3,0x5
    79da:	00e68693          	addi	a3,a3,14 # c9e4 <atanhi>
    79de:	08f57553          	fsub.s	fa0,fa0,fa5
    79e2:	9736                	add	a4,a4,a3
    79e4:	631c                	flw	fa5,0(a4)
    79e6:	08e57553          	fsub.s	fa0,fa0,fa4
    79ea:	08a7f553          	fsub.s	fa0,fa5,fa0
    79ee:	f004dee3          	bgez	s1,790a <atanf+0x30>
    79f2:	40b2                	lw	ra,12(sp)
    79f4:	4422                	lw	s0,8(sp)
    79f6:	4492                	lw	s1,4(sp)
    79f8:	20a51553          	fneg.s	fa0,fa0
    79fc:	0141                	addi	sp,sp,16
    79fe:	8082                	ret
    7a00:	40b2                	lw	ra,12(sp)
    7a02:	4422                	lw	s0,8(sp)
    7a04:	4492                	lw	s1,4(sp)
    7a06:	00a57553          	fadd.s	fa0,fa0,fa0
    7a0a:	0141                	addi	sp,sp,16
    7a0c:	8082                	ret
    7a0e:	00005717          	auipc	a4,0x5
    7a12:	fa272787          	flw	fa5,-94(a4) # c9b0 <init_jk+0x48>
    7a16:	00f577d3          	fadd.s	fa5,fa0,fa5
    7a1a:	00004717          	auipc	a4,0x4
    7a1e:	23272707          	flw	fa4,562(a4) # bc4c <strlen+0x194>
    7a22:	a0f71753          	flt.s	a4,fa4,fa5
    7a26:	ee070fe3          	beqz	a4,7924 <atanf+0x4a>
    7a2a:	b5c5                	j	790a <atanf+0x30>
    7a2c:	40b2                	lw	ra,12(sp)
    7a2e:	4422                	lw	s0,8(sp)
    7a30:	00004797          	auipc	a5,0x4
    7a34:	6ac7a507          	flw	fa0,1708(a5) # c0dc <strlen+0x624>
    7a38:	4492                	lw	s1,4(sp)
    7a3a:	0141                	addi	sp,sp,16
    7a3c:	8082                	ret
    7a3e:	40b2                	lw	ra,12(sp)
    7a40:	4422                	lw	s0,8(sp)
    7a42:	4492                	lw	s1,4(sp)
    7a44:	08a7f553          	fsub.s	fa0,fa5,fa0
    7a48:	0141                	addi	sp,sp,16
    7a4a:	8082                	ret
    7a4c:	2849                	jal	7ade <fabsf>
    7a4e:	3f9807b7          	lui	a5,0x3f980
    7a52:	02f45863          	bge	s0,a5,7a82 <atanf+0x1a8>
    7a56:	3f3007b7          	lui	a5,0x3f300
    7a5a:	06f45463          	bge	s0,a5,7ac2 <atanf+0x1e8>
    7a5e:	00004797          	auipc	a5,0x4
    7a62:	1ea7a707          	flw	fa4,490(a5) # bc48 <strlen+0x190>
    7a66:	00004797          	auipc	a5,0x4
    7a6a:	25a7a787          	flw	fa5,602(a5) # bcc0 <strlen+0x208>
    7a6e:	78e577c3          	fmadd.s	fa5,fa0,fa4,fa5
    7a72:	00e57553          	fadd.s	fa0,fa0,fa4
    7a76:	4701                	li	a4,0
    7a78:	18a7f7d3          	fdiv.s	fa5,fa5,fa0
    7a7c:	e00787d3          	fmv.x.w	a5,fa5
    7a80:	b55d                	j	7926 <atanf+0x4c>
    7a82:	401c07b7          	lui	a5,0x401c0
    7a86:	02f45463          	bge	s0,a5,7aae <atanf+0x1d4>
    7a8a:	00005797          	auipc	a5,0x5
    7a8e:	f2a7a787          	flw	fa5,-214(a5) # c9b4 <init_jk+0x4c>
    7a92:	00004797          	auipc	a5,0x4
    7a96:	1ba7a687          	flw	fa3,442(a5) # bc4c <strlen+0x194>
    7a9a:	08f57753          	fsub.s	fa4,fa0,fa5
    7a9e:	68f57543          	fmadd.s	fa0,fa0,fa5,fa3
    7aa2:	4709                	li	a4,2
    7aa4:	18a777d3          	fdiv.s	fa5,fa4,fa0
    7aa8:	e00787d3          	fmv.x.w	a5,fa5
    7aac:	bdad                	j	7926 <atanf+0x4c>
    7aae:	00004797          	auipc	a5,0x4
    7ab2:	2127a787          	flw	fa5,530(a5) # bcc0 <strlen+0x208>
    7ab6:	18a7f7d3          	fdiv.s	fa5,fa5,fa0
    7aba:	470d                	li	a4,3
    7abc:	e00787d3          	fmv.x.w	a5,fa5
    7ac0:	b59d                	j	7926 <atanf+0x4c>
    7ac2:	00004797          	auipc	a5,0x4
    7ac6:	18a7a787          	flw	fa5,394(a5) # bc4c <strlen+0x194>
    7aca:	08f57753          	fsub.s	fa4,fa0,fa5
    7ace:	00f57553          	fadd.s	fa0,fa0,fa5
    7ad2:	4705                	li	a4,1
    7ad4:	18a777d3          	fdiv.s	fa5,fa4,fa0
    7ad8:	e00787d3          	fmv.x.w	a5,fa5
    7adc:	b5a9                	j	7926 <atanf+0x4c>

00007ade <fabsf>:
    7ade:	e00507d3          	fmv.x.w	a5,fa0
    7ae2:	0786                	slli	a5,a5,0x1
    7ae4:	8385                	srli	a5,a5,0x1
    7ae6:	f0078553          	fmv.w.x	fa0,a5
    7aea:	8082                	ret

00007aec <floorf>:
    7aec:	e00506d3          	fmv.x.w	a3,fa0
    7af0:	4659                	li	a2,22
    7af2:	00169713          	slli	a4,a3,0x1
    7af6:	8305                	srli	a4,a4,0x1
    7af8:	01775793          	srli	a5,a4,0x17
    7afc:	f8178793          	addi	a5,a5,-127
    7b00:	85b6                	mv	a1,a3
    7b02:	08f64163          	blt	a2,a5,7b84 <floorf+0x98>
    7b06:	0407c463          	bltz	a5,7b4e <floorf+0x62>
    7b0a:	00800837          	lui	a6,0x800
    7b0e:	fff80713          	addi	a4,a6,-1 # 7fffff <_data_lma+0x7f3467>
    7b12:	40f75733          	sra	a4,a4,a5
    7b16:	00d77533          	and	a0,a4,a3
    7b1a:	e0050653          	fmv.x.w	a2,fa0
    7b1e:	c50d                	beqz	a0,7b48 <floorf+0x5c>
    7b20:	00005517          	auipc	a0,0x5
    7b24:	e9052787          	flw	fa5,-368(a0) # c9b0 <init_jk+0x48>
    7b28:	00f577d3          	fadd.s	fa5,fa0,fa5
    7b2c:	f0000753          	fmv.w.x	fa4,zero
    7b30:	a0f71553          	flt.s	a0,fa4,fa5
    7b34:	c911                	beqz	a0,7b48 <floorf+0x5c>
    7b36:	0006d663          	bgez	a3,7b42 <floorf+0x56>
    7b3a:	40f857b3          	sra	a5,a6,a5
    7b3e:	00d785b3          	add	a1,a5,a3
    7b42:	fff74613          	not	a2,a4
    7b46:	8e6d                	and	a2,a2,a1
    7b48:	f0060553          	fmv.w.x	fa0,a2
    7b4c:	8082                	ret
    7b4e:	00005797          	auipc	a5,0x5
    7b52:	e627a787          	flw	fa5,-414(a5) # c9b0 <init_jk+0x48>
    7b56:	00f577d3          	fadd.s	fa5,fa0,fa5
    7b5a:	f0000753          	fmv.w.x	fa4,zero
    7b5e:	e0050653          	fmv.x.w	a2,fa0
    7b62:	a0f717d3          	flt.s	a5,fa4,fa5
    7b66:	d3ed                	beqz	a5,7b48 <floorf+0x5c>
    7b68:	e0070653          	fmv.x.w	a2,fa4
    7b6c:	fc06dee3          	bgez	a3,7b48 <floorf+0x5c>
    7b70:	e0050653          	fmv.x.w	a2,fa0
    7b74:	db71                	beqz	a4,7b48 <floorf+0x5c>
    7b76:	00004797          	auipc	a5,0x4
    7b7a:	14a7a787          	flw	fa5,330(a5) # bcc0 <strlen+0x208>
    7b7e:	e0078653          	fmv.x.w	a2,fa5
    7b82:	b7d9                	j	7b48 <floorf+0x5c>
    7b84:	7f8007b7          	lui	a5,0x7f800
    7b88:	e0050653          	fmv.x.w	a2,fa0
    7b8c:	faf76ee3          	bltu	a4,a5,7b48 <floorf+0x5c>
    7b90:	00a577d3          	fadd.s	fa5,fa0,fa0
    7b94:	e0078653          	fmv.x.w	a2,fa5
    7b98:	f0060553          	fmv.w.x	fa0,a2
    7b9c:	8082                	ret

00007b9e <scalbnf>:
    7b9e:	e0050753          	fmv.x.w	a4,fa0
    7ba2:	00171793          	slli	a5,a4,0x1
    7ba6:	8385                	srli	a5,a5,0x1
    7ba8:	c3b9                	beqz	a5,7bee <scalbnf+0x50>
    7baa:	7f800637          	lui	a2,0x7f800
    7bae:	02c7f963          	bgeu	a5,a2,7be0 <scalbnf+0x42>
    7bb2:	00c776b3          	and	a3,a4,a2
    7bb6:	ee9d                	bnez	a3,7bf4 <scalbnf+0x56>
    7bb8:	00005797          	auipc	a5,0x5
    7bbc:	e4c7a787          	flw	fa5,-436(a5) # ca04 <atanlo+0x10>
    7bc0:	10f577d3          	fmul.s	fa5,fa0,fa5
    7bc4:	77d1                	lui	a5,0xffff4
    7bc6:	cb078793          	addi	a5,a5,-848 # ffff3cb0 <_eusrstack+0xdffebcb0>
    7bca:	e0078753          	fmv.x.w	a4,fa5
    7bce:	08f54663          	blt	a0,a5,7c5a <scalbnf+0xbc>
    7bd2:	41775793          	srai	a5,a4,0x17
    7bd6:	0ff7f793          	andi	a5,a5,255
    7bda:	86ba                	mv	a3,a4
    7bdc:	179d                	addi	a5,a5,-25
    7bde:	a829                	j	7bf8 <scalbnf+0x5a>
    7be0:	00a577d3          	fadd.s	fa5,fa0,fa0
    7be4:	e00787d3          	fmv.x.w	a5,fa5
    7be8:	f0078553          	fmv.w.x	fa0,a5
    7bec:	8082                	ret
    7bee:	e00507d3          	fmv.x.w	a5,fa0
    7bf2:	bfdd                	j	7be8 <scalbnf+0x4a>
    7bf4:	86ba                	mv	a3,a4
    7bf6:	83dd                	srli	a5,a5,0x17
    7bf8:	1101                	addi	sp,sp,-32
    7bfa:	ce06                	sw	ra,28(sp)
    7bfc:	e622                	fsw	fs0,12(sp)
    7bfe:	97aa                	add	a5,a5,a0
    7c00:	0fe00613          	li	a2,254
    7c04:	00f64c63          	blt	a2,a5,7c1c <scalbnf+0x7e>
    7c08:	02f04d63          	bgtz	a5,7c42 <scalbnf+0xa4>
    7c0c:	5629                	li	a2,-22
    7c0e:	06c7d163          	bge	a5,a2,7c70 <scalbnf+0xd2>
    7c12:	67b1                	lui	a5,0xc
    7c14:	35078793          	addi	a5,a5,848 # c350 <npio2_hw+0x78>
    7c18:	06a7de63          	bge	a5,a0,7c94 <scalbnf+0xf6>
    7c1c:	00005797          	auipc	a5,0x5
    7c20:	d947a407          	flw	fs0,-620(a5) # c9b0 <init_jk+0x48>
    7c24:	20840553          	fmv.s	fa0,fs0
    7c28:	f00705d3          	fmv.w.x	fa1,a4
    7c2c:	2061                	jal	7cb4 <copysignf>
    7c2e:	108577d3          	fmul.s	fa5,fa0,fs0
    7c32:	40f2                	lw	ra,28(sp)
    7c34:	6432                	flw	fs0,12(sp)
    7c36:	6105                	addi	sp,sp,32
    7c38:	e00787d3          	fmv.x.w	a5,fa5
    7c3c:	f0078553          	fmv.w.x	fa0,a5
    7c40:	8082                	ret
    7c42:	80800737          	lui	a4,0x80800
    7c46:	177d                	addi	a4,a4,-1
    7c48:	8f75                	and	a4,a4,a3
    7c4a:	07de                	slli	a5,a5,0x17
    7c4c:	8fd9                	or	a5,a5,a4
    7c4e:	40f2                	lw	ra,28(sp)
    7c50:	6432                	flw	fs0,12(sp)
    7c52:	f0078553          	fmv.w.x	fa0,a5
    7c56:	6105                	addi	sp,sp,32
    7c58:	8082                	ret
    7c5a:	f0070753          	fmv.w.x	fa4,a4
    7c5e:	00005797          	auipc	a5,0x5
    7c62:	daa7a787          	flw	fa5,-598(a5) # ca08 <atanlo+0x14>
    7c66:	10f777d3          	fmul.s	fa5,fa4,fa5
    7c6a:	e00787d3          	fmv.x.w	a5,fa5
    7c6e:	bfad                	j	7be8 <scalbnf+0x4a>
    7c70:	80800737          	lui	a4,0x80800
    7c74:	177d                	addi	a4,a4,-1
    7c76:	07e5                	addi	a5,a5,25
    7c78:	8ef9                	and	a3,a3,a4
    7c7a:	07de                	slli	a5,a5,0x17
    7c7c:	8fd5                	or	a5,a5,a3
    7c7e:	f0078753          	fmv.w.x	fa4,a5
    7c82:	00005717          	auipc	a4,0x5
    7c86:	d8a72787          	flw	fa5,-630(a4) # ca0c <atanlo+0x18>
    7c8a:	10f777d3          	fmul.s	fa5,fa4,fa5
    7c8e:	e00787d3          	fmv.x.w	a5,fa5
    7c92:	bf75                	j	7c4e <scalbnf+0xb0>
    7c94:	00005797          	auipc	a5,0x5
    7c98:	d747a407          	flw	fs0,-652(a5) # ca08 <atanlo+0x14>
    7c9c:	b761                	j	7c24 <scalbnf+0x86>

00007c9e <copysign>:
    7c9e:	80000737          	lui	a4,0x80000
    7ca2:	fff74793          	not	a5,a4
    7ca6:	8ef9                	and	a3,a3,a4
    7ca8:	8fed                	and	a5,a5,a1
    7caa:	872a                	mv	a4,a0
    7cac:	8fd5                	or	a5,a5,a3
    7cae:	853a                	mv	a0,a4
    7cb0:	85be                	mv	a1,a5
    7cb2:	8082                	ret

00007cb4 <copysignf>:
    7cb4:	e00507d3          	fmv.x.w	a5,fa0
    7cb8:	e00586d3          	fmv.x.w	a3,fa1
    7cbc:	80000737          	lui	a4,0x80000
    7cc0:	fff74613          	not	a2,a4
    7cc4:	8ff1                	and	a5,a5,a2
    7cc6:	8f75                	and	a4,a4,a3
    7cc8:	8fd9                	or	a5,a5,a4
    7cca:	f0078553          	fmv.w.x	fa0,a5
    7cce:	8082                	ret

00007cd0 <printchar>:
    7cd0:	1101                	addi	sp,sp,-32
    7cd2:	ce06                	sw	ra,28(sp)
    7cd4:	c62e                	sw	a1,12(sp)
    7cd6:	cd0d                	beqz	a0,7d10 <printchar+0x40>
    7cd8:	4118                	lw	a4,0(a0)
    7cda:	87aa                	mv	a5,a0
    7cdc:	c305                	beqz	a4,7cfc <printchar+0x2c>
    7cde:	4158                	lw	a4,4(a0)
    7ce0:	557d                	li	a0,-1
    7ce2:	cb11                	beqz	a4,7cf6 <printchar+0x26>
    7ce4:	4685                	li	a3,1
    7ce6:	00d71b63          	bne	a4,a3,7cfc <printchar+0x2c>
    7cea:	4798                	lw	a4,8(a5)
    7cec:	00070023          	sb	zero,0(a4) # 80000000 <_eusrstack+0x5fff8000>
    7cf0:	0007a223          	sw	zero,4(a5)
    7cf4:	4505                	li	a0,1
    7cf6:	40f2                	lw	ra,28(sp)
    7cf8:	6105                	addi	sp,sp,32
    7cfa:	8082                	ret
    7cfc:	4798                	lw	a4,8(a5)
    7cfe:	46b2                	lw	a3,12(sp)
    7d00:	a314                	sb	a3,0(a4)
    7d02:	4798                	lw	a4,8(a5)
    7d04:	0705                	addi	a4,a4,1
    7d06:	c798                	sw	a4,8(a5)
    7d08:	43d8                	lw	a4,4(a5)
    7d0a:	177d                	addi	a4,a4,-1
    7d0c:	c3d8                	sw	a4,4(a5)
    7d0e:	b7dd                	j	7cf4 <printchar+0x24>
    7d10:	4605                	li	a2,1
    7d12:	006c                	addi	a1,sp,12
    7d14:	edcfb0ef          	jal	ra,33f0 <_write>
    7d18:	bff1                	j	7cf4 <printchar+0x24>

00007d1a <prints>:
    7d1a:	7179                	addi	sp,sp,-48
    7d1c:	d422                	sw	s0,40(sp)
    7d1e:	d226                	sw	s1,36(sp)
    7d20:	ce4e                	sw	s3,28(sp)
    7d22:	cc52                	sw	s4,24(sp)
    7d24:	ca56                	sw	s5,20(sp)
    7d26:	d606                	sw	ra,44(sp)
    7d28:	d04a                	sw	s2,32(sp)
    7d2a:	c85a                	sw	s6,16(sp)
    7d2c:	8a2a                	mv	s4,a0
    7d2e:	8aae                	mv	s5,a1
    7d30:	8432                	mv	s0,a2
    7d32:	4481                	li	s1,0
    7d34:	02000993          	li	s3,32
    7d38:	02064463          	bltz	a2,7d60 <prints+0x46>
    7d3c:	009a87b3          	add	a5,s5,s1
    7d40:	00078783          	lb	a5,0(a5)
    7d44:	e39d                	bnez	a5,7d6a <prints+0x50>
    7d46:	0284d663          	bge	s1,s0,7d72 <prints+0x58>
    7d4a:	02e4d263          	bge	s1,a4,7d6e <prints+0x54>
    7d4e:	8c19                	sub	s0,s0,a4
    7d50:	0026f793          	andi	a5,a3,2
    7d54:	02000993          	li	s3,32
    7d58:	c781                	beqz	a5,7d60 <prints+0x46>
    7d5a:	e319                	bnez	a4,7d60 <prints+0x46>
    7d5c:	03000993          	li	s3,48
    7d60:	8a85                	andi	a3,a3,1
    7d62:	4901                	li	s2,0
    7d64:	ea85                	bnez	a3,7d94 <prints+0x7a>
    7d66:	8922                	mv	s2,s0
    7d68:	a831                	j	7d84 <prints+0x6a>
    7d6a:	0485                	addi	s1,s1,1
    7d6c:	bfc1                	j	7d3c <prints+0x22>
    7d6e:	8c05                	sub	s0,s0,s1
    7d70:	b7c5                	j	7d50 <prints+0x36>
    7d72:	4401                	li	s0,0
    7d74:	bff1                	j	7d50 <prints+0x36>
    7d76:	85ce                	mv	a1,s3
    7d78:	8552                	mv	a0,s4
    7d7a:	c63a                	sw	a4,12(sp)
    7d7c:	f55ff0ef          	jal	ra,7cd0 <printchar>
    7d80:	4732                	lw	a4,12(sp)
    7d82:	197d                	addi	s2,s2,-1
    7d84:	ff2049e3          	bgtz	s2,7d76 <prints+0x5c>
    7d88:	8922                	mv	s2,s0
    7d8a:	00045363          	bgez	s0,7d90 <prints+0x76>
    7d8e:	4901                	li	s2,0
    7d90:	41240433          	sub	s0,s0,s2
    7d94:	02e4cb63          	blt	s1,a4,7dca <prints+0xb0>
    7d98:	84ca                	mv	s1,s2
    7d9a:	412487b3          	sub	a5,s1,s2
    7d9e:	97d6                	add	a5,a5,s5
    7da0:	00078583          	lb	a1,0(a5)
    7da4:	e1a1                	bnez	a1,7de4 <prints+0xca>
    7da6:	8922                	mv	s2,s0
    7da8:	05204363          	bgtz	s2,7dee <prints+0xd4>
    7dac:	00045363          	bgez	s0,7db2 <prints+0x98>
    7db0:	4401                	li	s0,0
    7db2:	00940533          	add	a0,s0,s1
    7db6:	50b2                	lw	ra,44(sp)
    7db8:	5422                	lw	s0,40(sp)
    7dba:	5492                	lw	s1,36(sp)
    7dbc:	5902                	lw	s2,32(sp)
    7dbe:	49f2                	lw	s3,28(sp)
    7dc0:	4a62                	lw	s4,24(sp)
    7dc2:	4ad2                	lw	s5,20(sp)
    7dc4:	4b42                	lw	s6,16(sp)
    7dc6:	6145                	addi	sp,sp,48
    7dc8:	8082                	ret
    7dca:	409704b3          	sub	s1,a4,s1
    7dce:	8b26                	mv	s6,s1
    7dd0:	03000593          	li	a1,48
    7dd4:	8552                	mv	a0,s4
    7dd6:	1b7d                	addi	s6,s6,-1
    7dd8:	ef9ff0ef          	jal	ra,7cd0 <printchar>
    7ddc:	fe0b1ae3          	bnez	s6,7dd0 <prints+0xb6>
    7de0:	9926                	add	s2,s2,s1
    7de2:	bf5d                	j	7d98 <prints+0x7e>
    7de4:	8552                	mv	a0,s4
    7de6:	eebff0ef          	jal	ra,7cd0 <printchar>
    7dea:	0485                	addi	s1,s1,1
    7dec:	b77d                	j	7d9a <prints+0x80>
    7dee:	85ce                	mv	a1,s3
    7df0:	8552                	mv	a0,s4
    7df2:	edfff0ef          	jal	ra,7cd0 <printchar>
    7df6:	197d                	addi	s2,s2,-1
    7df8:	bf45                	j	7da8 <prints+0x8e>

00007dfa <printInt>:
    7dfa:	715d                	addi	sp,sp,-80
    7dfc:	c2a6                	sw	s1,68(sp)
    7dfe:	dc52                	sw	s4,56(sp)
    7e00:	c686                	sw	ra,76(sp)
    7e02:	c4a2                	sw	s0,72(sp)
    7e04:	c0ca                	sw	s2,64(sp)
    7e06:	de4e                	sw	s3,60(sp)
    7e08:	da56                	sw	s5,52(sp)
    7e0a:	84ba                	mv	s1,a4
    7e0c:	8a3e                	mv	s4,a5
    7e0e:	e19d                	bnez	a1,7e34 <printInt+0x3a>
    7e10:	03000793          	li	a5,48
    7e14:	4701                	li	a4,0
    7e16:	86d2                	mv	a3,s4
    7e18:	8626                	mv	a2,s1
    7e1a:	082c                	addi	a1,sp,24
    7e1c:	84fc                	sh	a5,24(sp)
    7e1e:	efdff0ef          	jal	ra,7d1a <prints>
    7e22:	40b6                	lw	ra,76(sp)
    7e24:	4426                	lw	s0,72(sp)
    7e26:	4496                	lw	s1,68(sp)
    7e28:	4906                	lw	s2,64(sp)
    7e2a:	59f2                	lw	s3,60(sp)
    7e2c:	5a62                	lw	s4,56(sp)
    7e2e:	5ad2                	lw	s5,52(sp)
    7e30:	6161                	addi	sp,sp,80
    7e32:	8082                	ret
    7e34:	892a                	mv	s2,a0
    7e36:	8436                	mv	s0,a3
    7e38:	8ac6                	mv	s5,a7
    7e3a:	ca91                	beqz	a3,7e4e <printInt+0x54>
    7e3c:	47a9                	li	a5,10
    7e3e:	4401                	li	s0,0
    7e40:	00f61763          	bne	a2,a5,7e4e <printInt+0x54>
    7e44:	0005d563          	bgez	a1,7e4e <printInt+0x54>
    7e48:	40b005b3          	neg	a1,a1
    7e4c:	4405                	li	s0,1
    7e4e:	020107a3          	sb	zero,47(sp)
    7e52:	02f10793          	addi	a5,sp,47
    7e56:	46a5                	li	a3,9
    7e58:	fc680513          	addi	a0,a6,-58
    7e5c:	02c5f733          	remu	a4,a1,a2
    7e60:	00e6d363          	bge	a3,a4,7e66 <printInt+0x6c>
    7e64:	972a                	add	a4,a4,a0
    7e66:	03070713          	addi	a4,a4,48
    7e6a:	fee78fa3          	sb	a4,-1(a5)
    7e6e:	fff78993          	addi	s3,a5,-1
    7e72:	02c5d733          	divu	a4,a1,a2
    7e76:	04c5fb63          	bgeu	a1,a2,7ecc <printInt+0xd2>
    7e7a:	cc09                	beqz	s0,7e94 <printInt+0x9a>
    7e7c:	c8b9                	beqz	s1,7ed2 <printInt+0xd8>
    7e7e:	002a7713          	andi	a4,s4,2
    7e82:	cb21                	beqz	a4,7ed2 <printInt+0xd8>
    7e84:	02d00593          	li	a1,45
    7e88:	854a                	mv	a0,s2
    7e8a:	c642                	sw	a6,12(sp)
    7e8c:	e45ff0ef          	jal	ra,7cd0 <printchar>
    7e90:	4832                	lw	a6,12(sp)
    7e92:	14fd                	addi	s1,s1,-1
    7e94:	004a7793          	andi	a5,s4,4
    7e98:	c38d                	beqz	a5,7eba <printInt+0xc0>
    7e9a:	06100793          	li	a5,97
    7e9e:	03000593          	li	a1,48
    7ea2:	854a                	mv	a0,s2
    7ea4:	02f81f63          	bne	a6,a5,7ee2 <printInt+0xe8>
    7ea8:	e29ff0ef          	jal	ra,7cd0 <printchar>
    7eac:	07800593          	li	a1,120
    7eb0:	854a                	mv	a0,s2
    7eb2:	e1fff0ef          	jal	ra,7cd0 <printchar>
    7eb6:	0409                	addi	s0,s0,2
    7eb8:	14f9                	addi	s1,s1,-2
    7eba:	8756                	mv	a4,s5
    7ebc:	86d2                	mv	a3,s4
    7ebe:	8626                	mv	a2,s1
    7ec0:	85ce                	mv	a1,s3
    7ec2:	854a                	mv	a0,s2
    7ec4:	e57ff0ef          	jal	ra,7d1a <prints>
    7ec8:	9522                	add	a0,a0,s0
    7eca:	bfa1                	j	7e22 <printInt+0x28>
    7ecc:	85ba                	mv	a1,a4
    7ece:	87ce                	mv	a5,s3
    7ed0:	b771                	j	7e5c <printInt+0x62>
    7ed2:	02d00713          	li	a4,45
    7ed6:	fee98fa3          	sb	a4,-1(s3)
    7eda:	4401                	li	s0,0
    7edc:	ffe78993          	addi	s3,a5,-2
    7ee0:	bf55                	j	7e94 <printInt+0x9a>
    7ee2:	defff0ef          	jal	ra,7cd0 <printchar>
    7ee6:	05800593          	li	a1,88
    7eea:	b7d9                	j	7eb0 <printInt+0xb6>

00007eec <printLongLongInt>:
    7eec:	711d                	addi	sp,sp,-96
    7eee:	c8ca                	sw	s2,80(sp)
    7ef0:	c6ce                	sw	s3,76(sp)
    7ef2:	c2d6                	sw	s5,68(sp)
    7ef4:	c0da                	sw	s6,64(sp)
    7ef6:	893a                	mv	s2,a4
    7ef8:	ce86                	sw	ra,92(sp)
    7efa:	cca2                	sw	s0,88(sp)
    7efc:	caa6                	sw	s1,84(sp)
    7efe:	c4d2                	sw	s4,72(sp)
    7f00:	de5e                	sw	s7,60(sp)
    7f02:	dc62                	sw	s8,56(sp)
    7f04:	da66                	sw	s9,52(sp)
    7f06:	d86a                	sw	s10,48(sp)
    7f08:	d66e                	sw	s11,44(sp)
    7f0a:	00c5e733          	or	a4,a1,a2
    7f0e:	89be                	mv	s3,a5
    7f10:	8aaa                	mv	s5,a0
    7f12:	8b42                	mv	s6,a6
    7f14:	06014783          	lbu	a5,96(sp)
    7f18:	e331                	bnez	a4,7f5c <printLongLongInt+0x70>
    7f1a:	cf8d                	beqz	a5,7f54 <printLongLongInt+0x68>
    7f1c:	678d                	lui	a5,0x3
    7f1e:	02d78793          	addi	a5,a5,45 # 302d <rb_test08+0xfc1>
    7f22:	847c                	sh	a5,8(sp)
    7f24:	00010523          	sb	zero,10(sp)
    7f28:	4701                	li	a4,0
    7f2a:	86da                	mv	a3,s6
    7f2c:	864e                	mv	a2,s3
    7f2e:	002c                	addi	a1,sp,8
    7f30:	8556                	mv	a0,s5
    7f32:	de9ff0ef          	jal	ra,7d1a <prints>
    7f36:	40f6                	lw	ra,92(sp)
    7f38:	4466                	lw	s0,88(sp)
    7f3a:	44d6                	lw	s1,84(sp)
    7f3c:	4946                	lw	s2,80(sp)
    7f3e:	49b6                	lw	s3,76(sp)
    7f40:	4a26                	lw	s4,72(sp)
    7f42:	4a96                	lw	s5,68(sp)
    7f44:	4b06                	lw	s6,64(sp)
    7f46:	5bf2                	lw	s7,60(sp)
    7f48:	5c62                	lw	s8,56(sp)
    7f4a:	5cd2                	lw	s9,52(sp)
    7f4c:	5d42                	lw	s10,48(sp)
    7f4e:	5db2                	lw	s11,44(sp)
    7f50:	6125                	addi	sp,sp,96
    7f52:	8082                	ret
    7f54:	03000793          	li	a5,48
    7f58:	847c                	sh	a5,8(sp)
    7f5a:	b7f9                	j	7f28 <printLongLongInt+0x3c>
    7f5c:	8a36                	mv	s4,a3
    7f5e:	84ae                	mv	s1,a1
    7f60:	8432                	mv	s0,a2
    7f62:	02090063          	beqz	s2,7f82 <printLongLongInt+0x96>
    7f66:	47a9                	li	a5,10
    7f68:	4901                	li	s2,0
    7f6a:	00f69c63          	bne	a3,a5,7f82 <printLongLongInt+0x96>
    7f6e:	00065a63          	bgez	a2,7f82 <printLongLongInt+0x96>
    7f72:	40b004b3          	neg	s1,a1
    7f76:	009037b3          	snez	a5,s1
    7f7a:	40c00433          	neg	s0,a2
    7f7e:	8c1d                	sub	s0,s0,a5
    7f80:	4905                	li	s2,1
    7f82:	00010fa3          	sb	zero,31(sp)
    7f86:	01f10d13          	addi	s10,sp,31
    7f8a:	41fa5d93          	srai	s11,s4,0x1f
    7f8e:	4ca5                	li	s9,9
    7f90:	fc688c13          	addi	s8,a7,-58
    7f94:	8652                	mv	a2,s4
    7f96:	86ee                	mv	a3,s11
    7f98:	8526                	mv	a0,s1
    7f9a:	85a2                	mv	a1,s0
    7f9c:	0f3000ef          	jal	ra,888e <__umoddi3>
    7fa0:	00acd363          	bge	s9,a0,7fa6 <printLongLongInt+0xba>
    7fa4:	9562                	add	a0,a0,s8
    7fa6:	03050513          	addi	a0,a0,48
    7faa:	fead0fa3          	sb	a0,-1(s10)
    7fae:	8652                	mv	a2,s4
    7fb0:	86ee                	mv	a3,s11
    7fb2:	8526                	mv	a0,s1
    7fb4:	85a2                	mv	a1,s0
    7fb6:	fffd0b93          	addi	s7,s10,-1
    7fba:	2389                	jal	84fc <__udivdi3>
    7fbc:	01b46663          	bltu	s0,s11,7fc8 <printLongLongInt+0xdc>
    7fc0:	028d9a63          	bne	s11,s0,7ff4 <printLongLongInt+0x108>
    7fc4:	0344f863          	bgeu	s1,s4,7ff4 <printLongLongInt+0x108>
    7fc8:	00090d63          	beqz	s2,7fe2 <printLongLongInt+0xf6>
    7fcc:	02098863          	beqz	s3,7ffc <printLongLongInt+0x110>
    7fd0:	002b7793          	andi	a5,s6,2
    7fd4:	c785                	beqz	a5,7ffc <printLongLongInt+0x110>
    7fd6:	02d00593          	li	a1,45
    7fda:	8556                	mv	a0,s5
    7fdc:	cf5ff0ef          	jal	ra,7cd0 <printchar>
    7fe0:	19fd                	addi	s3,s3,-1
    7fe2:	4701                	li	a4,0
    7fe4:	86da                	mv	a3,s6
    7fe6:	864e                	mv	a2,s3
    7fe8:	85de                	mv	a1,s7
    7fea:	8556                	mv	a0,s5
    7fec:	d2fff0ef          	jal	ra,7d1a <prints>
    7ff0:	954a                	add	a0,a0,s2
    7ff2:	b791                	j	7f36 <printLongLongInt+0x4a>
    7ff4:	84aa                	mv	s1,a0
    7ff6:	842e                	mv	s0,a1
    7ff8:	8d5e                	mv	s10,s7
    7ffa:	bf69                	j	7f94 <printLongLongInt+0xa8>
    7ffc:	02d00793          	li	a5,45
    8000:	fefb8fa3          	sb	a5,-1(s7)
    8004:	4901                	li	s2,0
    8006:	ffed0b93          	addi	s7,s10,-2
    800a:	bfe1                	j	7fe2 <printLongLongInt+0xf6>

0000800c <printDouble>:
    800c:	715d                	addi	sp,sp,-80
    800e:	c2a6                	sw	s1,68(sp)
    8010:	c0ca                	sw	s2,64(sp)
    8012:	84aa                	mv	s1,a0
    8014:	892e                	mv	s2,a1
    8016:	852e                	mv	a0,a1
    8018:	85b2                	mv	a1,a2
    801a:	c686                	sw	ra,76(sp)
    801c:	ce3a                	sw	a4,28(sp)
    801e:	cc42                	sw	a6,24(sp)
    8020:	c4a2                	sw	s0,72(sp)
    8022:	de4e                	sw	s3,60(sp)
    8024:	dc52                	sw	s4,56(sp)
    8026:	89b2                	mv	s3,a2
    8028:	8a36                	mv	s4,a3
    802a:	da56                	sw	s5,52(sp)
    802c:	d85a                	sw	s6,48(sp)
    802e:	8abe                	mv	s5,a5
    8030:	d65e                	sw	s7,44(sp)
    8032:	d462                	sw	s8,40(sp)
    8034:	d266                	sw	s9,36(sp)
    8036:	8c46                	mv	s8,a7
    8038:	d06a                	sw	s10,32(sp)
    803a:	204030ef          	jal	ra,b23e <__fixdfdi>
    803e:	8b2a                	mv	s6,a0
    8040:	8bae                	mv	s7,a1
    8042:	4601                	li	a2,0
    8044:	4681                	li	a3,0
    8046:	85ce                	mv	a1,s3
    8048:	854a                	mv	a0,s2
    804a:	715010ef          	jal	ra,9f5e <__ledf2>
    804e:	4772                	lw	a4,28(sp)
    8050:	4862                	lw	a6,24(sp)
    8052:	817d                	srli	a0,a0,0x1f
    8054:	87ba                	mv	a5,a4
    8056:	c02a                	sw	a0,0(sp)
    8058:	4705                	li	a4,1
    805a:	88e2                	mv	a7,s8
    805c:	86d2                	mv	a3,s4
    805e:	85da                	mv	a1,s6
    8060:	865e                	mv	a2,s7
    8062:	8526                	mv	a0,s1
    8064:	e89ff0ef          	jal	ra,7eec <printLongLongInt>
    8068:	8d2a                	mv	s10,a0
    806a:	02e00593          	li	a1,46
    806e:	8526                	mv	a0,s1
    8070:	c61ff0ef          	jal	ra,7cd0 <printchar>
    8074:	0d05                	addi	s10,s10,1
    8076:	4781                	li	a5,0
    8078:	4c85                	li	s9,1
    807a:	4401                	li	s0,0
    807c:	4729                	li	a4,10
    807e:	0757ce63          	blt	a5,s5,80fa <printDouble+0xee>
    8082:	855a                	mv	a0,s6
    8084:	85de                	mv	a1,s7
    8086:	2e8030ef          	jal	ra,b36e <__floatdidf>
    808a:	862a                	mv	a2,a0
    808c:	86ae                	mv	a3,a1
    808e:	854a                	mv	a0,s2
    8090:	85ce                	mv	a1,s3
    8092:	5d8020ef          	jal	ra,a66a <__subdf3>
    8096:	892a                	mv	s2,a0
    8098:	89ae                	mv	s3,a1
    809a:	8566                	mv	a0,s9
    809c:	85a2                	mv	a1,s0
    809e:	2d0030ef          	jal	ra,b36e <__floatdidf>
    80a2:	862a                	mv	a2,a0
    80a4:	86ae                	mv	a3,a1
    80a6:	854a                	mv	a0,s2
    80a8:	85ce                	mv	a1,s3
    80aa:	76b010ef          	jal	ra,a014 <__muldf3>
    80ae:	190030ef          	jal	ra,b23e <__fixdfdi>
    80b2:	41f5d613          	srai	a2,a1,0x1f
    80b6:	8d31                	xor	a0,a0,a2
    80b8:	00b647b3          	xor	a5,a2,a1
    80bc:	40c505b3          	sub	a1,a0,a2
    80c0:	00b53533          	sltu	a0,a0,a1
    80c4:	40c78633          	sub	a2,a5,a2
    80c8:	c002                	sw	zero,0(sp)
    80ca:	88e2                	mv	a7,s8
    80cc:	87d6                	mv	a5,s5
    80ce:	86d2                	mv	a3,s4
    80d0:	8e09                	sub	a2,a2,a0
    80d2:	4809                	li	a6,2
    80d4:	8526                	mv	a0,s1
    80d6:	4705                	li	a4,1
    80d8:	e15ff0ef          	jal	ra,7eec <printLongLongInt>
    80dc:	40b6                	lw	ra,76(sp)
    80de:	4426                	lw	s0,72(sp)
    80e0:	956a                	add	a0,a0,s10
    80e2:	4496                	lw	s1,68(sp)
    80e4:	4906                	lw	s2,64(sp)
    80e6:	59f2                	lw	s3,60(sp)
    80e8:	5a62                	lw	s4,56(sp)
    80ea:	5ad2                	lw	s5,52(sp)
    80ec:	5b42                	lw	s6,48(sp)
    80ee:	5bb2                	lw	s7,44(sp)
    80f0:	5c22                	lw	s8,40(sp)
    80f2:	5c92                	lw	s9,36(sp)
    80f4:	5d02                	lw	s10,32(sp)
    80f6:	6161                	addi	sp,sp,80
    80f8:	8082                	ret
    80fa:	028706b3          	mul	a3,a4,s0
    80fe:	0785                	addi	a5,a5,1
    8100:	03973433          	mulhu	s0,a4,s9
    8104:	03970cb3          	mul	s9,a4,s9
    8108:	9436                	add	s0,s0,a3
    810a:	bf95                	j	807e <printDouble+0x72>

0000810c <print>:
    810c:	715d                	addi	sp,sp,-80
    810e:	d85a                	sw	s6,48(sp)
    8110:	0000db37          	lui	s6,0xd
    8114:	c4a2                	sw	s0,72(sp)
    8116:	c2a6                	sw	s1,68(sp)
    8118:	c0ca                	sw	s2,64(sp)
    811a:	de4e                	sw	s3,60(sp)
    811c:	dc52                	sw	s4,56(sp)
    811e:	da56                	sw	s5,52(sp)
    8120:	d65e                	sw	s7,44(sp)
    8122:	d462                	sw	s8,40(sp)
    8124:	c686                	sw	ra,76(sp)
    8126:	d266                	sw	s9,36(sp)
    8128:	89aa                	mv	s3,a0
    812a:	892e                	mv	s2,a1
    812c:	8432                	mv	s0,a2
    812e:	4a01                	li	s4,0
    8130:	4481                	li	s1,0
    8132:	02500b93          	li	s7,37
    8136:	02b00a93          	li	s5,43
    813a:	4c29                	li	s8,10
    813c:	a10b0b13          	addi	s6,s6,-1520 # ca10 <atanlo+0x1c>
    8140:	00090583          	lb	a1,0(s2) # bff00000 <_eusrstack+0x9fef8000>
    8144:	e58d                	bnez	a1,816e <print+0x62>
    8146:	00098663          	beqz	s3,8152 <print+0x46>
    814a:	4581                	li	a1,0
    814c:	854e                	mv	a0,s3
    814e:	b83ff0ef          	jal	ra,7cd0 <printchar>
    8152:	40b6                	lw	ra,76(sp)
    8154:	4426                	lw	s0,72(sp)
    8156:	8526                	mv	a0,s1
    8158:	4906                	lw	s2,64(sp)
    815a:	4496                	lw	s1,68(sp)
    815c:	59f2                	lw	s3,60(sp)
    815e:	5a62                	lw	s4,56(sp)
    8160:	5ad2                	lw	s5,52(sp)
    8162:	5b42                	lw	s6,48(sp)
    8164:	5bb2                	lw	s7,44(sp)
    8166:	5c22                	lw	s8,40(sp)
    8168:	5c92                	lw	s9,36(sp)
    816a:	6161                	addi	sp,sp,80
    816c:	8082                	ret
    816e:	01758863          	beq	a1,s7,817e <print+0x72>
    8172:	854e                	mv	a0,s3
    8174:	b5dff0ef          	jal	ra,7cd0 <printchar>
    8178:	0485                	addi	s1,s1,1
    817a:	0905                	addi	s2,s2,1
    817c:	b7d1                	j	8140 <print+0x34>
    817e:	00190783          	lb	a5,1(s2)
    8182:	00190c93          	addi	s9,s2,1
    8186:	01779a63          	bne	a5,s7,819a <print+0x8e>
    818a:	02500593          	li	a1,37
    818e:	854e                	mv	a0,s3
    8190:	b41ff0ef          	jal	ra,7cd0 <printchar>
    8194:	0485                	addi	s1,s1,1
    8196:	8966                	mv	s2,s9
    8198:	b7cd                	j	817a <print+0x6e>
    819a:	d7d5                	beqz	a5,8146 <print+0x3a>
    819c:	05578763          	beq	a5,s5,81ea <print+0xde>
    81a0:	00fac863          	blt	s5,a5,81b0 <print+0xa4>
    81a4:	02300713          	li	a4,35
    81a8:	04e78463          	beq	a5,a4,81f0 <print+0xe4>
    81ac:	4781                	li	a5,0
    81ae:	a005                	j	81ce <print+0xc2>
    81b0:	02d00713          	li	a4,45
    81b4:	00e78a63          	beq	a5,a4,81c8 <print+0xbc>
    81b8:	03000713          	li	a4,48
    81bc:	fee798e3          	bne	a5,a4,81ac <print+0xa0>
    81c0:	00290c93          	addi	s9,s2,2
    81c4:	4789                	li	a5,2
    81c6:	a021                	j	81ce <print+0xc2>
    81c8:	00290c93          	addi	s9,s2,2
    81cc:	4785                	li	a5,1
    81ce:	000c8703          	lb	a4,0(s9)
    81d2:	05570363          	beq	a4,s5,8218 <print+0x10c>
    81d6:	02eac163          	blt	s5,a4,81f8 <print+0xec>
    81da:	02300693          	li	a3,35
    81de:	02d70b63          	beq	a4,a3,8214 <print+0x108>
    81e2:	8966                	mv	s2,s9
    81e4:	4501                	li	a0,0
    81e6:	45a5                	li	a1,9
    81e8:	a835                	j	8224 <print+0x118>
    81ea:	00290c93          	addi	s9,s2,2
    81ee:	bf7d                	j	81ac <print+0xa0>
    81f0:	00290c93          	addi	s9,s2,2
    81f4:	4791                	li	a5,4
    81f6:	bfe1                	j	81ce <print+0xc2>
    81f8:	02d00693          	li	a3,45
    81fc:	00d70963          	beq	a4,a3,820e <print+0x102>
    8200:	03000693          	li	a3,48
    8204:	fcd71fe3          	bne	a4,a3,81e2 <print+0xd6>
    8208:	0027e793          	ori	a5,a5,2
    820c:	a031                	j	8218 <print+0x10c>
    820e:	0c85                	addi	s9,s9,1
    8210:	4785                	li	a5,1
    8212:	bfc1                	j	81e2 <print+0xd6>
    8214:	0047e793          	ori	a5,a5,4
    8218:	0c85                	addi	s9,s9,1
    821a:	b7e1                	j	81e2 <print+0xd6>
    821c:	03850533          	mul	a0,a0,s8
    8220:	0905                	addi	s2,s2,1
    8222:	9536                	add	a0,a0,a3
    8224:	00090703          	lb	a4,0(s2)
    8228:	fd070693          	addi	a3,a4,-48
    822c:	0ff6f613          	andi	a2,a3,255
    8230:	fec5f6e3          	bgeu	a1,a2,821c <print+0x110>
    8234:	02e00613          	li	a2,46
    8238:	4699                	li	a3,6
    823a:	00c71e63          	bne	a4,a2,8256 <print+0x14a>
    823e:	0905                	addi	s2,s2,1
    8240:	4681                	li	a3,0
    8242:	4625                	li	a2,9
    8244:	00090703          	lb	a4,0(s2)
    8248:	fd070713          	addi	a4,a4,-48
    824c:	0ff77593          	andi	a1,a4,255
    8250:	02b67563          	bgeu	a2,a1,827a <print+0x16e>
    8254:	8a36                	mv	s4,a3
    8256:	00090703          	lb	a4,0(s2)
    825a:	06a00613          	li	a2,106
    825e:	0ac70963          	beq	a4,a2,8310 <print+0x204>
    8262:	02e64163          	blt	a2,a4,8284 <print+0x178>
    8266:	04c00613          	li	a2,76
    826a:	0ac70363          	beq	a4,a2,8310 <print+0x204>
    826e:	06800613          	li	a2,104
    8272:	08c70863          	beq	a4,a2,8302 <print+0x1f6>
    8276:	4601                	li	a2,0
    8278:	a81d                	j	82ae <print+0x1a2>
    827a:	038686b3          	mul	a3,a3,s8
    827e:	0905                	addi	s2,s2,1
    8280:	96ba                	add	a3,a3,a4
    8282:	b7c9                	j	8244 <print+0x138>
    8284:	07400613          	li	a2,116
    8288:	08c70463          	beq	a4,a2,8310 <print+0x204>
    828c:	07a00613          	li	a2,122
    8290:	08c70063          	beq	a4,a2,8310 <print+0x204>
    8294:	06c00593          	li	a1,108
    8298:	4601                	li	a2,0
    829a:	00b71a63          	bne	a4,a1,82ae <print+0x1a2>
    829e:	00190583          	lb	a1,1(s2)
    82a2:	460d                	li	a2,3
    82a4:	00e59463          	bne	a1,a4,82ac <print+0x1a0>
    82a8:	0905                	addi	s2,s2,1
    82aa:	4611                	li	a2,4
    82ac:	0905                	addi	s2,s2,1
    82ae:	00090703          	lb	a4,0(s2)
    82b2:	06000593          	li	a1,96
    82b6:	06100813          	li	a6,97
    82ba:	00e5c463          	blt	a1,a4,82c2 <print+0x1b6>
    82be:	04100813          	li	a6,65
    82c2:	06700593          	li	a1,103
    82c6:	06e5c263          	blt	a1,a4,832a <print+0x21e>
    82ca:	06500593          	li	a1,101
    82ce:	16b75963          	bge	a4,a1,8440 <print+0x334>
    82d2:	04700593          	li	a1,71
    82d6:	02e5cf63          	blt	a1,a4,8314 <print+0x208>
    82da:	04500613          	li	a2,69
    82de:	16c75163          	bge	a4,a2,8440 <print+0x334>
    82e2:	04300693          	li	a3,67
    82e6:	e8d71ae3          	bne	a4,a3,817a <print+0x6e>
    82ea:	4018                	lw	a4,0(s0)
    82ec:	00440c93          	addi	s9,s0,4
    82f0:	00010ea3          	sb	zero,29(sp)
    82f4:	00e10e23          	sb	a4,28(sp)
    82f8:	86be                	mv	a3,a5
    82fa:	4701                	li	a4,0
    82fc:	862a                	mv	a2,a0
    82fe:	086c                	addi	a1,sp,28
    8300:	a071                	j	838c <print+0x280>
    8302:	00190583          	lb	a1,1(s2)
    8306:	4601                	li	a2,0
    8308:	fae593e3          	bne	a1,a4,82ae <print+0x1a2>
    830c:	0909                	addi	s2,s2,2
    830e:	b745                	j	82ae <print+0x1a2>
    8310:	0905                	addi	s2,s2,1
    8312:	b795                	j	8276 <print+0x16a>
    8314:	06300693          	li	a3,99
    8318:	fcd709e3          	beq	a4,a3,82ea <print+0x1de>
    831c:	06e6ce63          	blt	a3,a4,8398 <print+0x28c>
    8320:	05800693          	li	a3,88
    8324:	02d70363          	beq	a4,a3,834a <print+0x23e>
    8328:	bd89                	j	817a <print+0x6e>
    832a:	07300693          	li	a3,115
    832e:	04d70663          	beq	a4,a3,837a <print+0x26e>
    8332:	02e6cd63          	blt	a3,a4,836c <print+0x260>
    8336:	06f00693          	li	a3,111
    833a:	0cd70b63          	beq	a4,a3,8410 <print+0x304>
    833e:	07000693          	li	a3,112
    8342:	0047e793          	ori	a5,a5,4
    8346:	e2d71ae3          	bne	a4,a3,817a <print+0x6e>
    834a:	4711                	li	a4,4
    834c:	0ae61b63          	bne	a2,a4,8402 <print+0x2f6>
    8350:	041d                	addi	s0,s0,7
    8352:	ff847713          	andi	a4,s0,-8
    8356:	430c                	lw	a1,0(a4)
    8358:	4350                	lw	a2,4(a4)
    835a:	00870413          	addi	s0,a4,8
    835e:	88c2                	mv	a7,a6
    8360:	c002                	sw	zero,0(sp)
    8362:	883e                	mv	a6,a5
    8364:	4701                	li	a4,0
    8366:	87aa                	mv	a5,a0
    8368:	46c1                	li	a3,16
    836a:	a0b9                	j	83b8 <print+0x2ac>
    836c:	07500693          	li	a3,117
    8370:	06d70363          	beq	a4,a3,83d6 <print+0x2ca>
    8374:	07800693          	li	a3,120
    8378:	b775                	j	8324 <print+0x218>
    837a:	4018                	lw	a4,0(s0)
    837c:	00440c93          	addi	s9,s0,4
    8380:	85da                	mv	a1,s6
    8382:	c311                	beqz	a4,8386 <print+0x27a>
    8384:	85ba                	mv	a1,a4
    8386:	8752                	mv	a4,s4
    8388:	86be                	mv	a3,a5
    838a:	862a                	mv	a2,a0
    838c:	854e                	mv	a0,s3
    838e:	98dff0ef          	jal	ra,7d1a <prints>
    8392:	94aa                	add	s1,s1,a0
    8394:	8466                	mv	s0,s9
    8396:	b3d5                	j	817a <print+0x6e>
    8398:	4711                	li	a4,4
    839a:	02e61463          	bne	a2,a4,83c2 <print+0x2b6>
    839e:	041d                	addi	s0,s0,7
    83a0:	ff847713          	andi	a4,s0,-8
    83a4:	430c                	lw	a1,0(a4)
    83a6:	4350                	lw	a2,4(a4)
    83a8:	00870413          	addi	s0,a4,8
    83ac:	88c2                	mv	a7,a6
    83ae:	c002                	sw	zero,0(sp)
    83b0:	883e                	mv	a6,a5
    83b2:	4705                	li	a4,1
    83b4:	87aa                	mv	a5,a0
    83b6:	46a9                	li	a3,10
    83b8:	854e                	mv	a0,s3
    83ba:	b33ff0ef          	jal	ra,7eec <printLongLongInt>
    83be:	94aa                	add	s1,s1,a0
    83c0:	bb6d                	j	817a <print+0x6e>
    83c2:	400c                	lw	a1,0(s0)
    83c4:	88d2                	mv	a7,s4
    83c6:	0411                	addi	s0,s0,4
    83c8:	872a                	mv	a4,a0
    83ca:	4685                	li	a3,1
    83cc:	4629                	li	a2,10
    83ce:	854e                	mv	a0,s3
    83d0:	a2bff0ef          	jal	ra,7dfa <printInt>
    83d4:	b7ed                	j	83be <print+0x2b2>
    83d6:	4711                	li	a4,4
    83d8:	00e61f63          	bne	a2,a4,83f6 <print+0x2ea>
    83dc:	041d                	addi	s0,s0,7
    83de:	ff847713          	andi	a4,s0,-8
    83e2:	430c                	lw	a1,0(a4)
    83e4:	4350                	lw	a2,4(a4)
    83e6:	00870413          	addi	s0,a4,8
    83ea:	88c2                	mv	a7,a6
    83ec:	c002                	sw	zero,0(sp)
    83ee:	883e                	mv	a6,a5
    83f0:	4701                	li	a4,0
    83f2:	87aa                	mv	a5,a0
    83f4:	b7c9                	j	83b6 <print+0x2aa>
    83f6:	400c                	lw	a1,0(s0)
    83f8:	88d2                	mv	a7,s4
    83fa:	0411                	addi	s0,s0,4
    83fc:	872a                	mv	a4,a0
    83fe:	4681                	li	a3,0
    8400:	b7f1                	j	83cc <print+0x2c0>
    8402:	400c                	lw	a1,0(s0)
    8404:	88d2                	mv	a7,s4
    8406:	0411                	addi	s0,s0,4
    8408:	872a                	mv	a4,a0
    840a:	4681                	li	a3,0
    840c:	4641                	li	a2,16
    840e:	b7c1                	j	83ce <print+0x2c2>
    8410:	4711                	li	a4,4
    8412:	02e61063          	bne	a2,a4,8432 <print+0x326>
    8416:	041d                	addi	s0,s0,7
    8418:	ff847713          	andi	a4,s0,-8
    841c:	430c                	lw	a1,0(a4)
    841e:	4350                	lw	a2,4(a4)
    8420:	00870413          	addi	s0,a4,8
    8424:	88c2                	mv	a7,a6
    8426:	c002                	sw	zero,0(sp)
    8428:	883e                	mv	a6,a5
    842a:	4701                	li	a4,0
    842c:	87aa                	mv	a5,a0
    842e:	46a1                	li	a3,8
    8430:	b761                	j	83b8 <print+0x2ac>
    8432:	400c                	lw	a1,0(s0)
    8434:	88d2                	mv	a7,s4
    8436:	0411                	addi	s0,s0,4
    8438:	872a                	mv	a4,a0
    843a:	4681                	li	a3,0
    843c:	4621                	li	a2,8
    843e:	bf41                	j	83ce <print+0x2c2>
    8440:	041d                	addi	s0,s0,7
    8442:	ff847613          	andi	a2,s0,-8
    8446:	00860413          	addi	s0,a2,8 # 7f800008 <_eusrstack+0x5f7f8008>
    844a:	420c                	lw	a1,0(a2)
    844c:	4250                	lw	a2,4(a2)
    844e:	40d50733          	sub	a4,a0,a3
    8452:	88c2                	mv	a7,a6
    8454:	177d                	addi	a4,a4,-1
    8456:	883e                	mv	a6,a5
    8458:	854e                	mv	a0,s3
    845a:	87b6                	mv	a5,a3
    845c:	46a9                	li	a3,10
    845e:	bafff0ef          	jal	ra,800c <printDouble>
    8462:	bfb1                	j	83be <print+0x2b2>

00008464 <printf>:
    8464:	7139                	addi	sp,sp,-64
    8466:	d22e                	sw	a1,36(sp)
    8468:	d432                	sw	a2,40(sp)
    846a:	85aa                	mv	a1,a0
    846c:	1050                	addi	a2,sp,36
    846e:	4501                	li	a0,0
    8470:	ce06                	sw	ra,28(sp)
    8472:	d636                	sw	a3,44(sp)
    8474:	d83a                	sw	a4,48(sp)
    8476:	da3e                	sw	a5,52(sp)
    8478:	dc42                	sw	a6,56(sp)
    847a:	de46                	sw	a7,60(sp)
    847c:	c632                	sw	a2,12(sp)
    847e:	c8fff0ef          	jal	ra,810c <print>
    8482:	40f2                	lw	ra,28(sp)
    8484:	6121                	addi	sp,sp,64
    8486:	8082                	ret

00008488 <snprintf>:
    8488:	7139                	addi	sp,sp,-64
    848a:	8332                	mv	t1,a2
    848c:	da3e                	sw	a5,52(sp)
    848e:	c42e                	sw	a1,8(sp)
    8490:	c62a                	sw	a0,12(sp)
    8492:	1070                	addi	a2,sp,44
    8494:	4785                	li	a5,1
    8496:	0048                	addi	a0,sp,4
    8498:	859a                	mv	a1,t1
    849a:	ce06                	sw	ra,28(sp)
    849c:	d636                	sw	a3,44(sp)
    849e:	d83a                	sw	a4,48(sp)
    84a0:	dc42                	sw	a6,56(sp)
    84a2:	de46                	sw	a7,60(sp)
    84a4:	c23e                	sw	a5,4(sp)
    84a6:	c032                	sw	a2,0(sp)
    84a8:	c65ff0ef          	jal	ra,810c <print>
    84ac:	40f2                	lw	ra,28(sp)
    84ae:	6121                	addi	sp,sp,64
    84b0:	8082                	ret

000084b2 <puts>:
    84b2:	1101                	addi	sp,sp,-32
    84b4:	cc22                	sw	s0,24(sp)
    84b6:	ca26                	sw	s1,20(sp)
    84b8:	ce06                	sw	ra,28(sp)
    84ba:	211c                	lbu	a5,0(a0)
    84bc:	84aa                	mv	s1,a0
    84be:	4401                	li	s0,0
    84c0:	87dc                	sb	a5,15(sp)
    84c2:	00f10783          	lb	a5,15(sp)
    84c6:	0405                	addi	s0,s0,1
    84c8:	ef99                	bnez	a5,84e6 <puts+0x34>
    84ca:	47a9                	li	a5,10
    84cc:	00f10593          	addi	a1,sp,15
    84d0:	4605                	li	a2,1
    84d2:	4501                	li	a0,0
    84d4:	87dc                	sb	a5,15(sp)
    84d6:	f1bfa0ef          	jal	ra,33f0 <_write>
    84da:	8522                	mv	a0,s0
    84dc:	40f2                	lw	ra,28(sp)
    84de:	4462                	lw	s0,24(sp)
    84e0:	44d2                	lw	s1,20(sp)
    84e2:	6105                	addi	sp,sp,32
    84e4:	8082                	ret
    84e6:	4605                	li	a2,1
    84e8:	00f10593          	addi	a1,sp,15
    84ec:	4501                	li	a0,0
    84ee:	f03fa0ef          	jal	ra,33f0 <_write>
    84f2:	008487b3          	add	a5,s1,s0
    84f6:	239c                	lbu	a5,0(a5)
    84f8:	87dc                	sb	a5,15(sp)
    84fa:	b7e1                	j	84c2 <puts+0x10>

000084fc <__udivdi3>:
    84fc:	87b6                	mv	a5,a3
    84fe:	88b2                	mv	a7,a2
    8500:	832a                	mv	t1,a0
    8502:	882e                	mv	a6,a1
    8504:	14069b63          	bnez	a3,865a <__udivdi3+0x15e>
    8508:	0ac5f863          	bgeu	a1,a2,85b8 <__udivdi3+0xbc>
    850c:	6741                	lui	a4,0x10
    850e:	1ae66b63          	bltu	a2,a4,86c4 <__udivdi3+0x1c8>
    8512:	010007b7          	lui	a5,0x1000
    8516:	34f66063          	bltu	a2,a5,8856 <__udivdi3+0x35a>
    851a:	01865693          	srli	a3,a2,0x18
    851e:	47e1                	li	a5,24
    8520:	00004717          	auipc	a4,0x4
    8524:	57870713          	addi	a4,a4,1400 # ca98 <__clz_tab>
    8528:	9736                	add	a4,a4,a3
    852a:	2318                	lbu	a4,0(a4)
    852c:	97ba                	add	a5,a5,a4
    852e:	02000713          	li	a4,32
    8532:	8f1d                	sub	a4,a4,a5
    8534:	cb19                	beqz	a4,854a <__udivdi3+0x4e>
    8536:	00e59833          	sll	a6,a1,a4
    853a:	00f557b3          	srl	a5,a0,a5
    853e:	00e618b3          	sll	a7,a2,a4
    8542:	0107e833          	or	a6,a5,a6
    8546:	00e51333          	sll	t1,a0,a4
    854a:	0108d613          	srli	a2,a7,0x10
    854e:	02c85533          	divu	a0,a6,a2
    8552:	01089693          	slli	a3,a7,0x10
    8556:	82c1                	srli	a3,a3,0x10
    8558:	01035793          	srli	a5,t1,0x10
    855c:	02c87733          	remu	a4,a6,a2
    8560:	02a685b3          	mul	a1,a3,a0
    8564:	0742                	slli	a4,a4,0x10
    8566:	00f76833          	or	a6,a4,a5
    856a:	00b87a63          	bgeu	a6,a1,857e <__udivdi3+0x82>
    856e:	9846                	add	a6,a6,a7
    8570:	fff50793          	addi	a5,a0,-1
    8574:	01186463          	bltu	a6,a7,857c <__udivdi3+0x80>
    8578:	30b86563          	bltu	a6,a1,8882 <__udivdi3+0x386>
    857c:	853e                	mv	a0,a5
    857e:	40b80833          	sub	a6,a6,a1
    8582:	02c85733          	divu	a4,a6,a2
    8586:	0342                	slli	t1,t1,0x10
    8588:	01035313          	srli	t1,t1,0x10
    858c:	02c87833          	remu	a6,a6,a2
    8590:	02e686b3          	mul	a3,a3,a4
    8594:	0842                	slli	a6,a6,0x10
    8596:	00686833          	or	a6,a6,t1
    859a:	00d87b63          	bgeu	a6,a3,85b0 <__udivdi3+0xb4>
    859e:	9846                	add	a6,a6,a7
    85a0:	fff70793          	addi	a5,a4,-1
    85a4:	01186563          	bltu	a6,a7,85ae <__udivdi3+0xb2>
    85a8:	1779                	addi	a4,a4,-2
    85aa:	00d86363          	bltu	a6,a3,85b0 <__udivdi3+0xb4>
    85ae:	873e                	mv	a4,a5
    85b0:	0542                	slli	a0,a0,0x10
    85b2:	8d59                	or	a0,a0,a4
    85b4:	4581                	li	a1,0
    85b6:	8082                	ret
    85b8:	e601                	bnez	a2,85c0 <__udivdi3+0xc4>
    85ba:	4705                	li	a4,1
    85bc:	02c758b3          	divu	a7,a4,a2
    85c0:	6741                	lui	a4,0x10
    85c2:	0ee8e863          	bltu	a7,a4,86b2 <__udivdi3+0x1b6>
    85c6:	010007b7          	lui	a5,0x1000
    85ca:	28f8ea63          	bltu	a7,a5,885e <__udivdi3+0x362>
    85ce:	0188d693          	srli	a3,a7,0x18
    85d2:	47e1                	li	a5,24
    85d4:	00004717          	auipc	a4,0x4
    85d8:	4c470713          	addi	a4,a4,1220 # ca98 <__clz_tab>
    85dc:	9736                	add	a4,a4,a3
    85de:	2314                	lbu	a3,0(a4)
    85e0:	96be                	add	a3,a3,a5
    85e2:	02000793          	li	a5,32
    85e6:	8f95                	sub	a5,a5,a3
    85e8:	e7fd                	bnez	a5,86d6 <__udivdi3+0x1da>
    85ea:	01089e93          	slli	t4,a7,0x10
    85ee:	41158733          	sub	a4,a1,a7
    85f2:	0108df13          	srli	t5,a7,0x10
    85f6:	010ede93          	srli	t4,t4,0x10
    85fa:	4585                	li	a1,1
    85fc:	01035793          	srli	a5,t1,0x10
    8600:	03e75533          	divu	a0,a4,t5
    8604:	03e77733          	remu	a4,a4,t5
    8608:	03d506b3          	mul	a3,a0,t4
    860c:	0742                	slli	a4,a4,0x10
    860e:	8fd9                	or	a5,a5,a4
    8610:	00d7fa63          	bgeu	a5,a3,8624 <__udivdi3+0x128>
    8614:	97c6                	add	a5,a5,a7
    8616:	fff50713          	addi	a4,a0,-1
    861a:	0117e463          	bltu	a5,a7,8622 <__udivdi3+0x126>
    861e:	26d7e563          	bltu	a5,a3,8888 <__udivdi3+0x38c>
    8622:	853a                	mv	a0,a4
    8624:	8f95                	sub	a5,a5,a3
    8626:	03e7d733          	divu	a4,a5,t5
    862a:	0342                	slli	t1,t1,0x10
    862c:	01035313          	srli	t1,t1,0x10
    8630:	03e7f7b3          	remu	a5,a5,t5
    8634:	03d70eb3          	mul	t4,a4,t4
    8638:	07c2                	slli	a5,a5,0x10
    863a:	0067e7b3          	or	a5,a5,t1
    863e:	01d7fb63          	bgeu	a5,t4,8654 <__udivdi3+0x158>
    8642:	97c6                	add	a5,a5,a7
    8644:	fff70693          	addi	a3,a4,-1
    8648:	0117e563          	bltu	a5,a7,8652 <__udivdi3+0x156>
    864c:	1779                	addi	a4,a4,-2
    864e:	01d7e363          	bltu	a5,t4,8654 <__udivdi3+0x158>
    8652:	8736                	mv	a4,a3
    8654:	0542                	slli	a0,a0,0x10
    8656:	8d59                	or	a0,a0,a4
    8658:	8082                	ret
    865a:	04d5e163          	bltu	a1,a3,869c <__udivdi3+0x1a0>
    865e:	67c1                	lui	a5,0x10
    8660:	04f6e163          	bltu	a3,a5,86a2 <__udivdi3+0x1a6>
    8664:	010007b7          	lui	a5,0x1000
    8668:	1ef6e363          	bltu	a3,a5,884e <__udivdi3+0x352>
    866c:	0186d713          	srli	a4,a3,0x18
    8670:	4861                	li	a6,24
    8672:	00004797          	auipc	a5,0x4
    8676:	42678793          	addi	a5,a5,1062 # ca98 <__clz_tab>
    867a:	97ba                	add	a5,a5,a4
    867c:	2398                	lbu	a4,0(a5)
    867e:	02000e13          	li	t3,32
    8682:	9742                	add	a4,a4,a6
    8684:	40ee0e33          	sub	t3,t3,a4
    8688:	0c0e1a63          	bnez	t3,875c <__udivdi3+0x260>
    868c:	1cb6ed63          	bltu	a3,a1,8866 <__udivdi3+0x36a>
    8690:	00c53533          	sltu	a0,a0,a2
    8694:	00154513          	xori	a0,a0,1
    8698:	4581                	li	a1,0
    869a:	8082                	ret
    869c:	4581                	li	a1,0
    869e:	4501                	li	a0,0
    86a0:	8082                	ret
    86a2:	0ff00793          	li	a5,255
    86a6:	1cd7f363          	bgeu	a5,a3,886c <__udivdi3+0x370>
    86aa:	0086d713          	srli	a4,a3,0x8
    86ae:	4821                	li	a6,8
    86b0:	b7c9                	j	8672 <__udivdi3+0x176>
    86b2:	0ff00713          	li	a4,255
    86b6:	86c6                	mv	a3,a7
    86b8:	f1177ee3          	bgeu	a4,a7,85d4 <__udivdi3+0xd8>
    86bc:	0088d693          	srli	a3,a7,0x8
    86c0:	47a1                	li	a5,8
    86c2:	bf09                	j	85d4 <__udivdi3+0xd8>
    86c4:	0ff00713          	li	a4,255
    86c8:	86b2                	mv	a3,a2
    86ca:	e4c77be3          	bgeu	a4,a2,8520 <__udivdi3+0x24>
    86ce:	00865693          	srli	a3,a2,0x8
    86d2:	47a1                	li	a5,8
    86d4:	b5b1                	j	8520 <__udivdi3+0x24>
    86d6:	00f898b3          	sll	a7,a7,a5
    86da:	00d5d633          	srl	a2,a1,a3
    86de:	0108df13          	srli	t5,a7,0x10
    86e2:	03e65e33          	divu	t3,a2,t5
    86e6:	00f59733          	sll	a4,a1,a5
    86ea:	00d556b3          	srl	a3,a0,a3
    86ee:	8f55                	or	a4,a4,a3
    86f0:	01089e93          	slli	t4,a7,0x10
    86f4:	010ede93          	srli	t4,t4,0x10
    86f8:	00f51333          	sll	t1,a0,a5
    86fc:	01075593          	srli	a1,a4,0x10
    8700:	03e676b3          	remu	a3,a2,t5
    8704:	03ce87b3          	mul	a5,t4,t3
    8708:	06c2                	slli	a3,a3,0x10
    870a:	8ecd                	or	a3,a3,a1
    870c:	00f6fb63          	bgeu	a3,a5,8722 <__udivdi3+0x226>
    8710:	96c6                	add	a3,a3,a7
    8712:	fffe0613          	addi	a2,t3,-1
    8716:	1716e463          	bltu	a3,a7,887e <__udivdi3+0x382>
    871a:	16f6f263          	bgeu	a3,a5,887e <__udivdi3+0x382>
    871e:	1e79                	addi	t3,t3,-2
    8720:	96c6                	add	a3,a3,a7
    8722:	8e9d                	sub	a3,a3,a5
    8724:	03e6d633          	divu	a2,a3,t5
    8728:	01071793          	slli	a5,a4,0x10
    872c:	83c1                	srli	a5,a5,0x10
    872e:	03e6f6b3          	remu	a3,a3,t5
    8732:	02ce8533          	mul	a0,t4,a2
    8736:	01069713          	slli	a4,a3,0x10
    873a:	8f5d                	or	a4,a4,a5
    873c:	00a77b63          	bgeu	a4,a0,8752 <__udivdi3+0x256>
    8740:	9746                	add	a4,a4,a7
    8742:	fff60793          	addi	a5,a2,-1
    8746:	13176863          	bltu	a4,a7,8876 <__udivdi3+0x37a>
    874a:	12a77663          	bgeu	a4,a0,8876 <__udivdi3+0x37a>
    874e:	1679                	addi	a2,a2,-2
    8750:	9746                	add	a4,a4,a7
    8752:	010e1593          	slli	a1,t3,0x10
    8756:	8f09                	sub	a4,a4,a0
    8758:	8dd1                	or	a1,a1,a2
    875a:	b54d                	j	85fc <__udivdi3+0x100>
    875c:	00e657b3          	srl	a5,a2,a4
    8760:	01c696b3          	sll	a3,a3,t3
    8764:	8edd                	or	a3,a3,a5
    8766:	00e5d333          	srl	t1,a1,a4
    876a:	0106df13          	srli	t5,a3,0x10
    876e:	03e357b3          	divu	a5,t1,t5
    8772:	01069e93          	slli	t4,a3,0x10
    8776:	010ede93          	srli	t4,t4,0x10
    877a:	01c59833          	sll	a6,a1,t3
    877e:	00e55733          	srl	a4,a0,a4
    8782:	01076833          	or	a6,a4,a6
    8786:	01085893          	srli	a7,a6,0x10
    878a:	01c61633          	sll	a2,a2,t3
    878e:	03e37333          	remu	t1,t1,t5
    8792:	02fe85b3          	mul	a1,t4,a5
    8796:	0342                	slli	t1,t1,0x10
    8798:	011368b3          	or	a7,t1,a7
    879c:	00b8fb63          	bgeu	a7,a1,87b2 <__udivdi3+0x2b6>
    87a0:	98b6                	add	a7,a7,a3
    87a2:	fff78713          	addi	a4,a5,-1
    87a6:	0cd8ea63          	bltu	a7,a3,887a <__udivdi3+0x37e>
    87aa:	0cb8f863          	bgeu	a7,a1,887a <__udivdi3+0x37e>
    87ae:	17f9                	addi	a5,a5,-2
    87b0:	98b6                	add	a7,a7,a3
    87b2:	40b888b3          	sub	a7,a7,a1
    87b6:	03e8d733          	divu	a4,a7,t5
    87ba:	0842                	slli	a6,a6,0x10
    87bc:	01085813          	srli	a6,a6,0x10
    87c0:	03e8f8b3          	remu	a7,a7,t5
    87c4:	02ee8333          	mul	t1,t4,a4
    87c8:	08c2                	slli	a7,a7,0x10
    87ca:	0108e5b3          	or	a1,a7,a6
    87ce:	0065fb63          	bgeu	a1,t1,87e4 <__udivdi3+0x2e8>
    87d2:	95b6                	add	a1,a1,a3
    87d4:	fff70813          	addi	a6,a4,-1
    87d8:	08d5ed63          	bltu	a1,a3,8872 <__udivdi3+0x376>
    87dc:	0865fb63          	bgeu	a1,t1,8872 <__udivdi3+0x376>
    87e0:	1779                	addi	a4,a4,-2
    87e2:	95b6                	add	a1,a1,a3
    87e4:	07c2                	slli	a5,a5,0x10
    87e6:	6f41                	lui	t5,0x10
    87e8:	8fd9                	or	a5,a5,a4
    87ea:	ffff0713          	addi	a4,t5,-1 # ffff <_data_lma+0x3467>
    87ee:	00e7f6b3          	and	a3,a5,a4
    87f2:	0107d893          	srli	a7,a5,0x10
    87f6:	8f71                	and	a4,a4,a2
    87f8:	8241                	srli	a2,a2,0x10
    87fa:	02e68eb3          	mul	t4,a3,a4
    87fe:	406585b3          	sub	a1,a1,t1
    8802:	02c686b3          	mul	a3,a3,a2
    8806:	010ed813          	srli	a6,t4,0x10
    880a:	02e88733          	mul	a4,a7,a4
    880e:	96ba                	add	a3,a3,a4
    8810:	96c2                	add	a3,a3,a6
    8812:	02c88633          	mul	a2,a7,a2
    8816:	00e6f363          	bgeu	a3,a4,881c <__udivdi3+0x320>
    881a:	967a                	add	a2,a2,t5
    881c:	0106d893          	srli	a7,a3,0x10
    8820:	9646                	add	a2,a2,a7
    8822:	02c5e263          	bltu	a1,a2,8846 <__udivdi3+0x34a>
    8826:	00c58563          	beq	a1,a2,8830 <__udivdi3+0x334>
    882a:	853e                	mv	a0,a5
    882c:	4581                	li	a1,0
    882e:	8082                	ret
    8830:	6741                	lui	a4,0x10
    8832:	177d                	addi	a4,a4,-1
    8834:	8ef9                	and	a3,a3,a4
    8836:	06c2                	slli	a3,a3,0x10
    8838:	00eefeb3          	and	t4,t4,a4
    883c:	01c51533          	sll	a0,a0,t3
    8840:	96f6                	add	a3,a3,t4
    8842:	fed574e3          	bgeu	a0,a3,882a <__udivdi3+0x32e>
    8846:	fff78513          	addi	a0,a5,-1
    884a:	4581                	li	a1,0
    884c:	8082                	ret
    884e:	0106d713          	srli	a4,a3,0x10
    8852:	4841                	li	a6,16
    8854:	bd39                	j	8672 <__udivdi3+0x176>
    8856:	01065693          	srli	a3,a2,0x10
    885a:	47c1                	li	a5,16
    885c:	b1d1                	j	8520 <__udivdi3+0x24>
    885e:	0108d693          	srli	a3,a7,0x10
    8862:	47c1                	li	a5,16
    8864:	bb85                	j	85d4 <__udivdi3+0xd8>
    8866:	4581                	li	a1,0
    8868:	4505                	li	a0,1
    886a:	8082                	ret
    886c:	8736                	mv	a4,a3
    886e:	4801                	li	a6,0
    8870:	b509                	j	8672 <__udivdi3+0x176>
    8872:	8742                	mv	a4,a6
    8874:	bf85                	j	87e4 <__udivdi3+0x2e8>
    8876:	863e                	mv	a2,a5
    8878:	bde9                	j	8752 <__udivdi3+0x256>
    887a:	87ba                	mv	a5,a4
    887c:	bf1d                	j	87b2 <__udivdi3+0x2b6>
    887e:	8e32                	mv	t3,a2
    8880:	b54d                	j	8722 <__udivdi3+0x226>
    8882:	1579                	addi	a0,a0,-2
    8884:	9846                	add	a6,a6,a7
    8886:	b9e5                	j	857e <__udivdi3+0x82>
    8888:	1579                	addi	a0,a0,-2
    888a:	97c6                	add	a5,a5,a7
    888c:	bb61                	j	8624 <__udivdi3+0x128>

0000888e <__umoddi3>:
    888e:	87b6                	mv	a5,a3
    8890:	8832                	mv	a6,a2
    8892:	832a                	mv	t1,a0
    8894:	872e                	mv	a4,a1
    8896:	8e2e                	mv	t3,a1
    8898:	14069163          	bnez	a3,89da <__umoddi3+0x14c>
    889c:	0ac5f063          	bgeu	a1,a2,893c <__umoddi3+0xae>
    88a0:	6741                	lui	a4,0x10
    88a2:	1ae67663          	bgeu	a2,a4,8a4e <__umoddi3+0x1c0>
    88a6:	0ff00713          	li	a4,255
    88aa:	86b2                	mv	a3,a2
    88ac:	00c77563          	bgeu	a4,a2,88b6 <__umoddi3+0x28>
    88b0:	00865693          	srli	a3,a2,0x8
    88b4:	47a1                	li	a5,8
    88b6:	00004717          	auipc	a4,0x4
    88ba:	1e270713          	addi	a4,a4,482 # ca98 <__clz_tab>
    88be:	9736                	add	a4,a4,a3
    88c0:	2318                	lbu	a4,0(a4)
    88c2:	02000893          	li	a7,32
    88c6:	97ba                	add	a5,a5,a4
    88c8:	40f888b3          	sub	a7,a7,a5
    88cc:	00088c63          	beqz	a7,88e4 <__umoddi3+0x56>
    88d0:	011595b3          	sll	a1,a1,a7
    88d4:	00f557b3          	srl	a5,a0,a5
    88d8:	01161833          	sll	a6,a2,a7
    88dc:	00b7ee33          	or	t3,a5,a1
    88e0:	01151333          	sll	t1,a0,a7
    88e4:	01085613          	srli	a2,a6,0x10
    88e8:	02ce57b3          	divu	a5,t3,a2
    88ec:	01081513          	slli	a0,a6,0x10
    88f0:	8141                	srli	a0,a0,0x10
    88f2:	01035693          	srli	a3,t1,0x10
    88f6:	02ce7e33          	remu	t3,t3,a2
    88fa:	02f507b3          	mul	a5,a0,a5
    88fe:	0e42                	slli	t3,t3,0x10
    8900:	00de6733          	or	a4,t3,a3
    8904:	00f77863          	bgeu	a4,a5,8914 <__umoddi3+0x86>
    8908:	9742                	add	a4,a4,a6
    890a:	01076563          	bltu	a4,a6,8914 <__umoddi3+0x86>
    890e:	00f77363          	bgeu	a4,a5,8914 <__umoddi3+0x86>
    8912:	9742                	add	a4,a4,a6
    8914:	8f1d                	sub	a4,a4,a5
    8916:	02c756b3          	divu	a3,a4,a2
    891a:	01031793          	slli	a5,t1,0x10
    891e:	83c1                	srli	a5,a5,0x10
    8920:	02c77733          	remu	a4,a4,a2
    8924:	02d50533          	mul	a0,a0,a3
    8928:	0742                	slli	a4,a4,0x10
    892a:	8fd9                	or	a5,a5,a4
    892c:	08a7eb63          	bltu	a5,a0,89c2 <__umoddi3+0x134>
    8930:	40a78533          	sub	a0,a5,a0
    8934:	01155533          	srl	a0,a0,a7
    8938:	4581                	li	a1,0
    893a:	8082                	ret
    893c:	e601                	bnez	a2,8944 <__umoddi3+0xb6>
    893e:	4705                	li	a4,1
    8940:	02c75833          	divu	a6,a4,a2
    8944:	6741                	lui	a4,0x10
    8946:	0ee86b63          	bltu	a6,a4,8a3c <__umoddi3+0x1ae>
    894a:	010007b7          	lui	a5,0x1000
    894e:	2af86463          	bltu	a6,a5,8bf6 <__umoddi3+0x368>
    8952:	01885693          	srli	a3,a6,0x18
    8956:	47e1                	li	a5,24
    8958:	00004717          	auipc	a4,0x4
    895c:	14070713          	addi	a4,a4,320 # ca98 <__clz_tab>
    8960:	9736                	add	a4,a4,a3
    8962:	2318                	lbu	a4,0(a4)
    8964:	02000893          	li	a7,32
    8968:	97ba                	add	a5,a5,a4
    896a:	40f888b3          	sub	a7,a7,a5
    896e:	1e089a63          	bnez	a7,8b62 <__umoddi3+0x2d4>
    8972:	01081e13          	slli	t3,a6,0x10
    8976:	410585b3          	sub	a1,a1,a6
    897a:	01085613          	srli	a2,a6,0x10
    897e:	010e5e13          	srli	t3,t3,0x10
    8982:	01035713          	srli	a4,t1,0x10
    8986:	02c5d6b3          	divu	a3,a1,a2
    898a:	02c5f5b3          	remu	a1,a1,a2
    898e:	03c686b3          	mul	a3,a3,t3
    8992:	05c2                	slli	a1,a1,0x10
    8994:	8f4d                	or	a4,a4,a1
    8996:	00d77763          	bgeu	a4,a3,89a4 <__umoddi3+0x116>
    899a:	9742                	add	a4,a4,a6
    899c:	01076463          	bltu	a4,a6,89a4 <__umoddi3+0x116>
    89a0:	26d76a63          	bltu	a4,a3,8c14 <__umoddi3+0x386>
    89a4:	8f15                	sub	a4,a4,a3
    89a6:	02c75533          	divu	a0,a4,a2
    89aa:	0342                	slli	t1,t1,0x10
    89ac:	01035313          	srli	t1,t1,0x10
    89b0:	02c77733          	remu	a4,a4,a2
    89b4:	03c50533          	mul	a0,a0,t3
    89b8:	0742                	slli	a4,a4,0x10
    89ba:	006767b3          	or	a5,a4,t1
    89be:	00a7f863          	bgeu	a5,a0,89ce <__umoddi3+0x140>
    89c2:	97c2                	add	a5,a5,a6
    89c4:	0107e563          	bltu	a5,a6,89ce <__umoddi3+0x140>
    89c8:	00a7f363          	bgeu	a5,a0,89ce <__umoddi3+0x140>
    89cc:	97c2                	add	a5,a5,a6
    89ce:	40a78533          	sub	a0,a5,a0
    89d2:	01155533          	srl	a0,a0,a7
    89d6:	4581                	li	a1,0
    89d8:	8082                	ret
    89da:	882a                	mv	a6,a0
    89dc:	f4d5efe3          	bltu	a1,a3,893a <__umoddi3+0xac>
    89e0:	67c1                	lui	a5,0x10
    89e2:	04f6e563          	bltu	a3,a5,8a2c <__umoddi3+0x19e>
    89e6:	010007b7          	lui	a5,0x1000
    89ea:	20f6e263          	bltu	a3,a5,8bee <__umoddi3+0x360>
    89ee:	0186d313          	srli	t1,a3,0x18
    89f2:	48e1                	li	a7,24
    89f4:	00004797          	auipc	a5,0x4
    89f8:	0a478793          	addi	a5,a5,164 # ca98 <__clz_tab>
    89fc:	979a                	add	a5,a5,t1
    89fe:	0007ce03          	lbu	t3,0(a5)
    8a02:	02000313          	li	t1,32
    8a06:	9e46                	add	t3,t3,a7
    8a08:	41c30333          	sub	t1,t1,t3
    8a0c:	04031963          	bnez	t1,8a5e <__umoddi3+0x1d0>
    8a10:	00b6e463          	bltu	a3,a1,8a18 <__umoddi3+0x18a>
    8a14:	00c56963          	bltu	a0,a2,8a26 <__umoddi3+0x198>
    8a18:	40c50833          	sub	a6,a0,a2
    8a1c:	8d95                	sub	a1,a1,a3
    8a1e:	01053733          	sltu	a4,a0,a6
    8a22:	40e58733          	sub	a4,a1,a4
    8a26:	8542                	mv	a0,a6
    8a28:	85ba                	mv	a1,a4
    8a2a:	8082                	ret
    8a2c:	0ff00793          	li	a5,255
    8a30:	1cd7fb63          	bgeu	a5,a3,8c06 <__umoddi3+0x378>
    8a34:	0086d313          	srli	t1,a3,0x8
    8a38:	48a1                	li	a7,8
    8a3a:	bf6d                	j	89f4 <__umoddi3+0x166>
    8a3c:	0ff00713          	li	a4,255
    8a40:	86c2                	mv	a3,a6
    8a42:	f1077be3          	bgeu	a4,a6,8958 <__umoddi3+0xca>
    8a46:	00885693          	srli	a3,a6,0x8
    8a4a:	47a1                	li	a5,8
    8a4c:	b731                	j	8958 <__umoddi3+0xca>
    8a4e:	010007b7          	lui	a5,0x1000
    8a52:	1af66663          	bltu	a2,a5,8bfe <__umoddi3+0x370>
    8a56:	01865693          	srli	a3,a2,0x18
    8a5a:	47e1                	li	a5,24
    8a5c:	bda9                	j	88b6 <__umoddi3+0x28>
    8a5e:	01c657b3          	srl	a5,a2,t3
    8a62:	006696b3          	sll	a3,a3,t1
    8a66:	8edd                	or	a3,a3,a5
    8a68:	01c5d8b3          	srl	a7,a1,t3
    8a6c:	0106d713          	srli	a4,a3,0x10
    8a70:	02e8deb3          	divu	t4,a7,a4
    8a74:	01069f13          	slli	t5,a3,0x10
    8a78:	01c557b3          	srl	a5,a0,t3
    8a7c:	010f5f13          	srli	t5,t5,0x10
    8a80:	006595b3          	sll	a1,a1,t1
    8a84:	8ddd                	or	a1,a1,a5
    8a86:	0105d813          	srli	a6,a1,0x10
    8a8a:	00661633          	sll	a2,a2,t1
    8a8e:	00651533          	sll	a0,a0,t1
    8a92:	02e8f8b3          	remu	a7,a7,a4
    8a96:	03df07b3          	mul	a5,t5,t4
    8a9a:	08c2                	slli	a7,a7,0x10
    8a9c:	0108e833          	or	a6,a7,a6
    8aa0:	00f87b63          	bgeu	a6,a5,8ab6 <__umoddi3+0x228>
    8aa4:	9836                	add	a6,a6,a3
    8aa6:	fffe8893          	addi	a7,t4,-1
    8aaa:	16d86363          	bltu	a6,a3,8c10 <__umoddi3+0x382>
    8aae:	16f87163          	bgeu	a6,a5,8c10 <__umoddi3+0x382>
    8ab2:	1ef9                	addi	t4,t4,-2
    8ab4:	9836                	add	a6,a6,a3
    8ab6:	40f80833          	sub	a6,a6,a5
    8aba:	02e857b3          	divu	a5,a6,a4
    8abe:	05c2                	slli	a1,a1,0x10
    8ac0:	81c1                	srli	a1,a1,0x10
    8ac2:	02e87833          	remu	a6,a6,a4
    8ac6:	02ff0f33          	mul	t5,t5,a5
    8aca:	01081713          	slli	a4,a6,0x10
    8ace:	8f4d                	or	a4,a4,a1
    8ad0:	01e77b63          	bgeu	a4,t5,8ae6 <__umoddi3+0x258>
    8ad4:	9736                	add	a4,a4,a3
    8ad6:	fff78593          	addi	a1,a5,-1 # ffffff <_data_lma+0xff3467>
    8ada:	12d76963          	bltu	a4,a3,8c0c <__umoddi3+0x37e>
    8ade:	13e77763          	bgeu	a4,t5,8c0c <__umoddi3+0x37e>
    8ae2:	17f9                	addi	a5,a5,-2
    8ae4:	9736                	add	a4,a4,a3
    8ae6:	0ec2                	slli	t4,t4,0x10
    8ae8:	62c1                	lui	t0,0x10
    8aea:	00feeeb3          	or	t4,t4,a5
    8aee:	fff28813          	addi	a6,t0,-1 # ffff <_data_lma+0x3467>
    8af2:	010ef8b3          	and	a7,t4,a6
    8af6:	01065593          	srli	a1,a2,0x10
    8afa:	010ede93          	srli	t4,t4,0x10
    8afe:	01067833          	and	a6,a2,a6
    8b02:	03088fb3          	mul	t6,a7,a6
    8b06:	41e70733          	sub	a4,a4,t5
    8b0a:	030e8833          	mul	a6,t4,a6
    8b0e:	010fd793          	srli	a5,t6,0x10
    8b12:	02b888b3          	mul	a7,a7,a1
    8b16:	98c2                	add	a7,a7,a6
    8b18:	97c6                	add	a5,a5,a7
    8b1a:	02be8eb3          	mul	t4,t4,a1
    8b1e:	0107f363          	bgeu	a5,a6,8b24 <__umoddi3+0x296>
    8b22:	9e96                	add	t4,t4,t0
    8b24:	6841                	lui	a6,0x10
    8b26:	187d                	addi	a6,a6,-1
    8b28:	0107d593          	srli	a1,a5,0x10
    8b2c:	0107f7b3          	and	a5,a5,a6
    8b30:	07c2                	slli	a5,a5,0x10
    8b32:	010fffb3          	and	t6,t6,a6
    8b36:	95f6                	add	a1,a1,t4
    8b38:	97fe                	add	a5,a5,t6
    8b3a:	0ab76263          	bltu	a4,a1,8bde <__umoddi3+0x350>
    8b3e:	08b70e63          	beq	a4,a1,8bda <__umoddi3+0x34c>
    8b42:	40f507b3          	sub	a5,a0,a5
    8b46:	00f53533          	sltu	a0,a0,a5
    8b4a:	40b705b3          	sub	a1,a4,a1
    8b4e:	8d89                	sub	a1,a1,a0
    8b50:	01c59e33          	sll	t3,a1,t3
    8b54:	0067d533          	srl	a0,a5,t1
    8b58:	00ae6533          	or	a0,t3,a0
    8b5c:	0065d5b3          	srl	a1,a1,t1
    8b60:	8082                	ret
    8b62:	01181833          	sll	a6,a6,a7
    8b66:	00f5d733          	srl	a4,a1,a5
    8b6a:	01085613          	srli	a2,a6,0x10
    8b6e:	02c756b3          	divu	a3,a4,a2
    8b72:	01081e13          	slli	t3,a6,0x10
    8b76:	00f557b3          	srl	a5,a0,a5
    8b7a:	010e5e13          	srli	t3,t3,0x10
    8b7e:	011595b3          	sll	a1,a1,a7
    8b82:	8ddd                	or	a1,a1,a5
    8b84:	0105de93          	srli	t4,a1,0x10
    8b88:	01151333          	sll	t1,a0,a7
    8b8c:	02c77733          	remu	a4,a4,a2
    8b90:	02de07b3          	mul	a5,t3,a3
    8b94:	01071693          	slli	a3,a4,0x10
    8b98:	01d6e6b3          	or	a3,a3,t4
    8b9c:	00f6f863          	bgeu	a3,a5,8bac <__umoddi3+0x31e>
    8ba0:	96c2                	add	a3,a3,a6
    8ba2:	0106e563          	bltu	a3,a6,8bac <__umoddi3+0x31e>
    8ba6:	00f6f363          	bgeu	a3,a5,8bac <__umoddi3+0x31e>
    8baa:	96c2                	add	a3,a3,a6
    8bac:	8e9d                	sub	a3,a3,a5
    8bae:	02c6d733          	divu	a4,a3,a2
    8bb2:	01059793          	slli	a5,a1,0x10
    8bb6:	83c1                	srli	a5,a5,0x10
    8bb8:	02c6f6b3          	remu	a3,a3,a2
    8bbc:	02ee0733          	mul	a4,t3,a4
    8bc0:	01069593          	slli	a1,a3,0x10
    8bc4:	8ddd                	or	a1,a1,a5
    8bc6:	00e5f863          	bgeu	a1,a4,8bd6 <__umoddi3+0x348>
    8bca:	95c2                	add	a1,a1,a6
    8bcc:	0105e563          	bltu	a1,a6,8bd6 <__umoddi3+0x348>
    8bd0:	00e5f363          	bgeu	a1,a4,8bd6 <__umoddi3+0x348>
    8bd4:	95c2                	add	a1,a1,a6
    8bd6:	8d99                	sub	a1,a1,a4
    8bd8:	b36d                	j	8982 <__umoddi3+0xf4>
    8bda:	f6f574e3          	bgeu	a0,a5,8b42 <__umoddi3+0x2b4>
    8bde:	40c78633          	sub	a2,a5,a2
    8be2:	00c7b7b3          	sltu	a5,a5,a2
    8be6:	97b6                	add	a5,a5,a3
    8be8:	8d9d                	sub	a1,a1,a5
    8bea:	87b2                	mv	a5,a2
    8bec:	bf99                	j	8b42 <__umoddi3+0x2b4>
    8bee:	0106d313          	srli	t1,a3,0x10
    8bf2:	48c1                	li	a7,16
    8bf4:	b501                	j	89f4 <__umoddi3+0x166>
    8bf6:	01085693          	srli	a3,a6,0x10
    8bfa:	47c1                	li	a5,16
    8bfc:	bbb1                	j	8958 <__umoddi3+0xca>
    8bfe:	01065693          	srli	a3,a2,0x10
    8c02:	47c1                	li	a5,16
    8c04:	b94d                	j	88b6 <__umoddi3+0x28>
    8c06:	8336                	mv	t1,a3
    8c08:	4881                	li	a7,0
    8c0a:	b3ed                	j	89f4 <__umoddi3+0x166>
    8c0c:	87ae                	mv	a5,a1
    8c0e:	bde1                	j	8ae6 <__umoddi3+0x258>
    8c10:	8ec6                	mv	t4,a7
    8c12:	b555                	j	8ab6 <__umoddi3+0x228>
    8c14:	9742                	add	a4,a4,a6
    8c16:	b379                	j	89a4 <__umoddi3+0x116>

00008c18 <__adddf3>:
    8c18:	1101                	addi	sp,sp,-32
    8c1a:	ce06                	sw	ra,28(sp)
    8c1c:	cc22                	sw	s0,24(sp)
    8c1e:	ca26                	sw	s1,20(sp)
    8c20:	c84a                	sw	s2,16(sp)
    8c22:	c64e                	sw	s3,12(sp)
    8c24:	c452                	sw	s4,8(sp)
    8c26:	002029f3          	frrm	s3
    8c2a:	001008b7          	lui	a7,0x100
    8c2e:	18fd                	addi	a7,a7,-1
    8c30:	00b8f7b3          	and	a5,a7,a1
    8c34:	0146de13          	srli	t3,a3,0x14
    8c38:	00d8f8b3          	and	a7,a7,a3
    8c3c:	0145d413          	srli	s0,a1,0x14
    8c40:	01d65313          	srli	t1,a2,0x1d
    8c44:	078e                	slli	a5,a5,0x3
    8c46:	01d55713          	srli	a4,a0,0x1d
    8c4a:	088e                	slli	a7,a7,0x3
    8c4c:	01f5d913          	srli	s2,a1,0x1f
    8c50:	7ff47413          	andi	s0,s0,2047
    8c54:	7ffe7593          	andi	a1,t3,2047
    8c58:	82fd                	srli	a3,a3,0x1f
    8c5a:	011368b3          	or	a7,t1,a7
    8c5e:	8f5d                	or	a4,a4,a5
    8c60:	00351813          	slli	a6,a0,0x3
    8c64:	00361e13          	slli	t3,a2,0x3
    8c68:	40b40333          	sub	t1,s0,a1
    8c6c:	1cd90563          	beq	s2,a3,8e36 <__adddf3+0x21e>
    8c70:	16605363          	blez	t1,8dd6 <__adddf3+0x1be>
    8c74:	20058763          	beqz	a1,8e82 <__adddf3+0x26a>
    8c78:	008006b7          	lui	a3,0x800
    8c7c:	7ff00793          	li	a5,2047
    8c80:	00d8e8b3          	or	a7,a7,a3
    8c84:	3ef40063          	beq	s0,a5,9064 <__adddf3+0x44c>
    8c88:	03800793          	li	a5,56
    8c8c:	3867c863          	blt	a5,t1,901c <__adddf3+0x404>
    8c90:	47fd                	li	a5,31
    8c92:	5267cc63          	blt	a5,t1,91ca <__adddf3+0x5b2>
    8c96:	02000793          	li	a5,32
    8c9a:	406787b3          	sub	a5,a5,t1
    8c9e:	00f894b3          	sll	s1,a7,a5
    8ca2:	006e56b3          	srl	a3,t3,t1
    8ca6:	00fe17b3          	sll	a5,t3,a5
    8caa:	8cd5                	or	s1,s1,a3
    8cac:	00f03e33          	snez	t3,a5
    8cb0:	0068d8b3          	srl	a7,a7,t1
    8cb4:	01c4e4b3          	or	s1,s1,t3
    8cb8:	41170733          	sub	a4,a4,a7
    8cbc:	409804b3          	sub	s1,a6,s1
    8cc0:	00983833          	sltu	a6,a6,s1
    8cc4:	41070733          	sub	a4,a4,a6
    8cc8:	00871793          	slli	a5,a4,0x8
    8ccc:	2407d863          	bgez	a5,8f1c <__adddf3+0x304>
    8cd0:	00971a13          	slli	s4,a4,0x9
    8cd4:	009a5a13          	srli	s4,s4,0x9
    8cd8:	300a0a63          	beqz	s4,8fec <__adddf3+0x3d4>
    8cdc:	8552                	mv	a0,s4
    8cde:	4b3020ef          	jal	ra,b990 <__clzsi2>
    8ce2:	1561                	addi	a0,a0,-8
    8ce4:	02000793          	li	a5,32
    8ce8:	8f89                	sub	a5,a5,a0
    8cea:	00aa1733          	sll	a4,s4,a0
    8cee:	00f4d7b3          	srl	a5,s1,a5
    8cf2:	8fd9                	or	a5,a5,a4
    8cf4:	00a49a33          	sll	s4,s1,a0
    8cf8:	30854763          	blt	a0,s0,9006 <__adddf3+0x3ee>
    8cfc:	8d01                	sub	a0,a0,s0
    8cfe:	00150713          	addi	a4,a0,1
    8d02:	46fd                	li	a3,31
    8d04:	48e6ce63          	blt	a3,a4,91a0 <__adddf3+0x588>
    8d08:	02000693          	li	a3,32
    8d0c:	8e99                	sub	a3,a3,a4
    8d0e:	00d794b3          	sll	s1,a5,a3
    8d12:	00ea5633          	srl	a2,s4,a4
    8d16:	00da16b3          	sll	a3,s4,a3
    8d1a:	8cd1                	or	s1,s1,a2
    8d1c:	00d036b3          	snez	a3,a3
    8d20:	8cd5                	or	s1,s1,a3
    8d22:	00e7d733          	srl	a4,a5,a4
    8d26:	00e4e7b3          	or	a5,s1,a4
    8d2a:	cff5                	beqz	a5,8e26 <__adddf3+0x20e>
    8d2c:	0074f793          	andi	a5,s1,7
    8d30:	00149593          	slli	a1,s1,0x1
    8d34:	00171613          	slli	a2,a4,0x1
    8d38:	01f4d693          	srli	a3,s1,0x1f
    8d3c:	0075f513          	andi	a0,a1,7
    8d40:	96b2                	add	a3,a3,a2
    8d42:	4301                	li	t1,0
    8d44:	c911                	beqz	a0,8d58 <__adddf3+0x140>
    8d46:	4609                	li	a2,2
    8d48:	60c98363          	beq	s3,a2,934e <__adddf3+0x736>
    8d4c:	460d                	li	a2,3
    8d4e:	4305                	li	t1,1
    8d50:	62c98363          	beq	s3,a2,9376 <__adddf3+0x75e>
    8d54:	60098663          	beqz	s3,9360 <__adddf3+0x748>
    8d58:	01000637          	lui	a2,0x1000
    8d5c:	8ef1                	and	a3,a3,a2
    8d5e:	0016b613          	seqz	a2,a3
    8d62:	0a0786e3          	beqz	a5,960e <__adddf3+0x9f6>
    8d66:	4401                	li	s0,0
    8d68:	4789                	li	a5,2
    8d6a:	24f98e63          	beq	s3,a5,8fc6 <__adddf3+0x3ae>
    8d6e:	478d                	li	a5,3
    8d70:	4305                	li	t1,1
    8d72:	26f98a63          	beq	s3,a5,8fe6 <__adddf3+0x3ce>
    8d76:	22098c63          	beqz	s3,8fae <__adddf3+0x396>
    8d7a:	008007b7          	lui	a5,0x800
    8d7e:	8ff9                	and	a5,a5,a4
    8d80:	c219                	beqz	a2,8d86 <__adddf3+0x16e>
    8d82:	00236313          	ori	t1,t1,2
    8d86:	060787e3          	beqz	a5,95f4 <__adddf3+0x9dc>
    8d8a:	0405                	addi	s0,s0,1
    8d8c:	7ff00793          	li	a5,2047
    8d90:	1af40863          	beq	s0,a5,8f40 <__adddf3+0x328>
    8d94:	ff8007b7          	lui	a5,0xff800
    8d98:	17fd                	addi	a5,a5,-1
    8d9a:	8ff9                	and	a5,a5,a4
    8d9c:	01d79813          	slli	a6,a5,0x1d
    8da0:	808d                	srli	s1,s1,0x3
    8da2:	07a6                	slli	a5,a5,0x9
    8da4:	00986833          	or	a6,a6,s1
    8da8:	83b1                	srli	a5,a5,0xc
    8daa:	7ff47413          	andi	s0,s0,2047
    8dae:	00c79713          	slli	a4,a5,0xc
    8db2:	0452                	slli	s0,s0,0x14
    8db4:	8331                	srli	a4,a4,0xc
    8db6:	097e                	slli	s2,s2,0x1f
    8db8:	8f41                	or	a4,a4,s0
    8dba:	01276733          	or	a4,a4,s2
    8dbe:	8542                	mv	a0,a6
    8dc0:	85ba                	mv	a1,a4
    8dc2:	28031563          	bnez	t1,904c <__adddf3+0x434>
    8dc6:	40f2                	lw	ra,28(sp)
    8dc8:	4462                	lw	s0,24(sp)
    8dca:	44d2                	lw	s1,20(sp)
    8dcc:	4942                	lw	s2,16(sp)
    8dce:	49b2                	lw	s3,12(sp)
    8dd0:	4a22                	lw	s4,8(sp)
    8dd2:	6105                	addi	sp,sp,32
    8dd4:	8082                	ret
    8dd6:	0c031463          	bnez	t1,8e9e <__adddf3+0x286>
    8dda:	00140793          	addi	a5,s0,1
    8dde:	7fe7f793          	andi	a5,a5,2046
    8de2:	2c079163          	bnez	a5,90a4 <__adddf3+0x48c>
    8de6:	01076eb3          	or	t4,a4,a6
    8dea:	01c8e7b3          	or	a5,a7,t3
    8dee:	5c041463          	bnez	s0,93b6 <__adddf3+0x79e>
    8df2:	4e0e8663          	beqz	t4,92de <__adddf3+0x6c6>
    8df6:	4e078a63          	beqz	a5,92ea <__adddf3+0x6d2>
    8dfa:	41c805b3          	sub	a1,a6,t3
    8dfe:	00b837b3          	sltu	a5,a6,a1
    8e02:	41170633          	sub	a2,a4,a7
    8e06:	8e1d                	sub	a2,a2,a5
    8e08:	00861793          	slli	a5,a2,0x8
    8e0c:	6e07d863          	bgez	a5,94fc <__adddf3+0x8e4>
    8e10:	410e04b3          	sub	s1,t3,a6
    8e14:	009e37b3          	sltu	a5,t3,s1
    8e18:	40e88733          	sub	a4,a7,a4
    8e1c:	8f1d                	sub	a4,a4,a5
    8e1e:	00e4e7b3          	or	a5,s1,a4
    8e22:	8936                	mv	s2,a3
    8e24:	f781                	bnez	a5,8d2c <__adddf3+0x114>
    8e26:	4801                	li	a6,0
    8e28:	4401                	li	s0,0
    8e2a:	4301                	li	t1,0
    8e2c:	07b2                	slli	a5,a5,0xc
    8e2e:	83b1                	srli	a5,a5,0xc
    8e30:	7ff47413          	andi	s0,s0,2047
    8e34:	bfad                	j	8dae <__adddf3+0x196>
    8e36:	12605663          	blez	t1,8f62 <__adddf3+0x34a>
    8e3a:	c9dd                	beqz	a1,8ef0 <__adddf3+0x2d8>
    8e3c:	008006b7          	lui	a3,0x800
    8e40:	7ff00793          	li	a5,2047
    8e44:	00d8e8b3          	or	a7,a7,a3
    8e48:	20f40e63          	beq	s0,a5,9064 <__adddf3+0x44c>
    8e4c:	03800793          	li	a5,56
    8e50:	3067c663          	blt	a5,t1,915c <__adddf3+0x544>
    8e54:	47fd                	li	a5,31
    8e56:	3e67da63          	bge	a5,t1,924a <__adddf3+0x632>
    8e5a:	fe030493          	addi	s1,t1,-32
    8e5e:	02000693          	li	a3,32
    8e62:	0098d7b3          	srl	a5,a7,s1
    8e66:	00d30a63          	beq	t1,a3,8e7a <__adddf3+0x262>
    8e6a:	04000693          	li	a3,64
    8e6e:	40668333          	sub	t1,a3,t1
    8e72:	006898b3          	sll	a7,a7,t1
    8e76:	011e6e33          	or	t3,t3,a7
    8e7a:	01c034b3          	snez	s1,t3
    8e7e:	8cdd                	or	s1,s1,a5
    8e80:	a4d5                	j	9164 <__adddf3+0x54c>
    8e82:	01c8e7b3          	or	a5,a7,t3
    8e86:	1a078063          	beqz	a5,9026 <__adddf3+0x40e>
    8e8a:	fff30793          	addi	a5,t1,-1
    8e8e:	48078363          	beqz	a5,9314 <__adddf3+0x6fc>
    8e92:	7ff00693          	li	a3,2047
    8e96:	1cd30763          	beq	t1,a3,9064 <__adddf3+0x44c>
    8e9a:	833e                	mv	t1,a5
    8e9c:	b3f5                	j	8c88 <__adddf3+0x70>
    8e9e:	408587b3          	sub	a5,a1,s0
    8ea2:	28041163          	bnez	s0,9124 <__adddf3+0x50c>
    8ea6:	01076533          	or	a0,a4,a6
    8eaa:	c12d                	beqz	a0,8f0c <__adddf3+0x2f4>
    8eac:	fff78513          	addi	a0,a5,-1 # ff7fffff <_eusrstack+0xdf7f7fff>
    8eb0:	56050d63          	beqz	a0,942a <__adddf3+0x812>
    8eb4:	7ff00313          	li	t1,2047
    8eb8:	42678b63          	beq	a5,t1,92ee <__adddf3+0x6d6>
    8ebc:	87aa                	mv	a5,a0
    8ebe:	03800613          	li	a2,56
    8ec2:	32f64863          	blt	a2,a5,91f2 <__adddf3+0x5da>
    8ec6:	467d                	li	a2,31
    8ec8:	52f64d63          	blt	a2,a5,9402 <__adddf3+0x7ea>
    8ecc:	02000613          	li	a2,32
    8ed0:	8e1d                	sub	a2,a2,a5
    8ed2:	00c714b3          	sll	s1,a4,a2
    8ed6:	00f85533          	srl	a0,a6,a5
    8eda:	00c81633          	sll	a2,a6,a2
    8ede:	8cc9                	or	s1,s1,a0
    8ee0:	00c03633          	snez	a2,a2
    8ee4:	00f757b3          	srl	a5,a4,a5
    8ee8:	8cd1                	or	s1,s1,a2
    8eea:	40f888b3          	sub	a7,a7,a5
    8eee:	a631                	j	91fa <__adddf3+0x5e2>
    8ef0:	01c8e7b3          	or	a5,a7,t3
    8ef4:	12078963          	beqz	a5,9026 <__adddf3+0x40e>
    8ef8:	fff30793          	addi	a5,t1,-1
    8efc:	36078a63          	beqz	a5,9270 <__adddf3+0x658>
    8f00:	7ff00693          	li	a3,2047
    8f04:	4cd30e63          	beq	t1,a3,93e0 <__adddf3+0x7c8>
    8f08:	833e                	mv	t1,a5
    8f0a:	b789                	j	8e4c <__adddf3+0x234>
    8f0c:	7ff00713          	li	a4,2047
    8f10:	62e78b63          	beq	a5,a4,9546 <__adddf3+0x92e>
    8f14:	8746                	mv	a4,a7
    8f16:	84f2                	mv	s1,t3
    8f18:	843e                	mv	s0,a5
    8f1a:	8936                	mv	s2,a3
    8f1c:	00e4e7b3          	or	a5,s1,a4
    8f20:	e00405e3          	beqz	s0,8d2a <__adddf3+0x112>
    8f24:	0074f793          	andi	a5,s1,7
    8f28:	4601                	li	a2,0
    8f2a:	e2079fe3          	bnez	a5,8d68 <__adddf3+0x150>
    8f2e:	008007b7          	lui	a5,0x800
    8f32:	8ff9                	and	a5,a5,a4
    8f34:	4301                	li	t1,0
    8f36:	bd81                	j	8d86 <__adddf3+0x16e>
    8f38:	478d                	li	a5,3
    8f3a:	0af98063          	beq	s3,a5,8fda <__adddf3+0x3c2>
    8f3e:	4315                	li	t1,5
    8f40:	10098b63          	beqz	s3,9056 <__adddf3+0x43e>
    8f44:	478d                	li	a5,3
    8f46:	10f98663          	beq	s3,a5,9052 <__adddf3+0x43a>
    8f4a:	4789                	li	a5,2
    8f4c:	34f98d63          	beq	s3,a5,92a6 <__adddf3+0x68e>
    8f50:	00536313          	ori	t1,t1,5
    8f54:	200007b7          	lui	a5,0x20000
    8f58:	587d                	li	a6,-1
    8f5a:	17fd                	addi	a5,a5,-1
    8f5c:	7fe00413          	li	s0,2046
    8f60:	b5f1                	j	8e2c <__adddf3+0x214>
    8f62:	16031863          	bnez	t1,90d2 <__adddf3+0x4ba>
    8f66:	00140693          	addi	a3,s0,1
    8f6a:	7fe6f793          	andi	a5,a3,2046
    8f6e:	40079763          	bnez	a5,937c <__adddf3+0x764>
    8f72:	010766b3          	or	a3,a4,a6
    8f76:	32041d63          	bnez	s0,92b0 <__adddf3+0x698>
    8f7a:	01c8e7b3          	or	a5,a7,t3
    8f7e:	4a068f63          	beqz	a3,943c <__adddf3+0x824>
    8f82:	36078463          	beqz	a5,92ea <__adddf3+0x6d2>
    8f86:	01c804b3          	add	s1,a6,t3
    8f8a:	011707b3          	add	a5,a4,a7
    8f8e:	0104b833          	sltu	a6,s1,a6
    8f92:	01078733          	add	a4,a5,a6
    8f96:	00871793          	slli	a5,a4,0x8
    8f9a:	d807d6e3          	bgez	a5,8d26 <__adddf3+0x10e>
    8f9e:	ff8007b7          	lui	a5,0xff800
    8fa2:	17fd                	addi	a5,a5,-1
    8fa4:	8f7d                	and	a4,a4,a5
    8fa6:	4405                	li	s0,1
    8fa8:	0074f793          	andi	a5,s1,7
    8fac:	bfb5                	j	8f28 <__adddf3+0x310>
    8fae:	00f4f793          	andi	a5,s1,15
    8fb2:	4691                	li	a3,4
    8fb4:	dcd783e3          	beq	a5,a3,8d7a <__adddf3+0x162>
    8fb8:	00448793          	addi	a5,s1,4
    8fbc:	0097b4b3          	sltu	s1,a5,s1
    8fc0:	9726                	add	a4,a4,s1
    8fc2:	84be                	mv	s1,a5
    8fc4:	bb5d                	j	8d7a <__adddf3+0x162>
    8fc6:	4305                	li	t1,1
    8fc8:	da0909e3          	beqz	s2,8d7a <__adddf3+0x162>
    8fcc:	00848793          	addi	a5,s1,8
    8fd0:	0097b4b3          	sltu	s1,a5,s1
    8fd4:	9726                	add	a4,a4,s1
    8fd6:	84be                	mv	s1,a5
    8fd8:	b34d                	j	8d7a <__adddf3+0x162>
    8fda:	577d                	li	a4,-1
    8fdc:	54fd                	li	s1,-1
    8fde:	7fe00413          	li	s0,2046
    8fe2:	4601                	li	a2,0
    8fe4:	4315                	li	t1,5
    8fe6:	fe0903e3          	beqz	s2,8fcc <__adddf3+0x3b4>
    8fea:	bb41                	j	8d7a <__adddf3+0x162>
    8fec:	8526                	mv	a0,s1
    8fee:	1a3020ef          	jal	ra,b990 <__clzsi2>
    8ff2:	ff850793          	addi	a5,a0,-8
    8ff6:	477d                	li	a4,31
    8ff8:	0561                	addi	a0,a0,24
    8ffa:	00f497b3          	sll	a5,s1,a5
    8ffe:	cea753e3          	bge	a4,a0,8ce4 <__adddf3+0xcc>
    9002:	ce855de3          	bge	a0,s0,8cfc <__adddf3+0xe4>
    9006:	ff800737          	lui	a4,0xff800
    900a:	177d                	addi	a4,a4,-1
    900c:	8f7d                	and	a4,a4,a5
    900e:	84d2                	mv	s1,s4
    9010:	8c09                	sub	s0,s0,a0
    9012:	00e4e7b3          	or	a5,s1,a4
    9016:	d0040ae3          	beqz	s0,8d2a <__adddf3+0x112>
    901a:	b729                	j	8f24 <__adddf3+0x30c>
    901c:	01c8e8b3          	or	a7,a7,t3
    9020:	011034b3          	snez	s1,a7
    9024:	b961                	j	8cbc <__adddf3+0xa4>
    9026:	7ff00793          	li	a5,2047
    902a:	30f30363          	beq	t1,a5,9330 <__adddf3+0x718>
    902e:	008007b7          	lui	a5,0x800
    9032:	841a                	mv	s0,t1
    9034:	8ff9                	and	a5,a5,a4
    9036:	84c2                	mv	s1,a6
    9038:	4301                	li	t1,0
    903a:	b3b1                	j	8d86 <__adddf3+0x16e>
    903c:	46858863          	beq	a1,s0,94ac <__adddf3+0x894>
    9040:	46079f63          	bnez	a5,94be <__adddf3+0x8a6>
    9044:	4501                	li	a0,0
    9046:	7ff805b7          	lui	a1,0x7ff80
    904a:	4341                	li	t1,16
    904c:	00132073          	csrs	fflags,t1
    9050:	bb9d                	j	8dc6 <__adddf3+0x1ae>
    9052:	ee091fe3          	bnez	s2,8f50 <__adddf3+0x338>
    9056:	00536313          	ori	t1,t1,5
    905a:	7ff00413          	li	s0,2047
    905e:	4781                	li	a5,0
    9060:	4801                	li	a6,0
    9062:	b3b1                	j	8dae <__adddf3+0x196>
    9064:	01076833          	or	a6,a4,a6
    9068:	02080c63          	beqz	a6,90a0 <__adddf3+0x488>
    906c:	00400337          	lui	t1,0x400
    9070:	050e                	slli	a0,a0,0x3
    9072:	00677333          	and	t1,a4,t1
    9076:	01d71813          	slli	a6,a4,0x1d
    907a:	810d                	srli	a0,a0,0x3
    907c:	00133313          	seqz	t1,t1
    9080:	00a86833          	or	a6,a6,a0
    9084:	00375793          	srli	a5,a4,0x3
    9088:	0312                	slli	t1,t1,0x4
    908a:	0107e7b3          	or	a5,a5,a6
    908e:	d7f1                	beqz	a5,905a <__adddf3+0x442>
    9090:	4901                	li	s2,0
    9092:	7ff00413          	li	s0,2047
    9096:	000807b7          	lui	a5,0x80
    909a:	4801                	li	a6,0
    909c:	bb09                	j	8dae <__adddf3+0x196>
    909e:	8936                	mv	s2,a3
    90a0:	4301                	li	t1,0
    90a2:	bf65                	j	905a <__adddf3+0x442>
    90a4:	41c804b3          	sub	s1,a6,t3
    90a8:	009837b3          	sltu	a5,a6,s1
    90ac:	41170a33          	sub	s4,a4,a7
    90b0:	40fa0a33          	sub	s4,s4,a5
    90b4:	008a1793          	slli	a5,s4,0x8
    90b8:	2e07c563          	bltz	a5,93a2 <__adddf3+0x78a>
    90bc:	0144e7b3          	or	a5,s1,s4
    90c0:	c0079ce3          	bnez	a5,8cd8 <__adddf3+0xc0>
    90c4:	ffe98913          	addi	s2,s3,-2
    90c8:	00193913          	seqz	s2,s2
    90cc:	4801                	li	a6,0
    90ce:	4401                	li	s0,0
    90d0:	bbb1                	j	8e2c <__adddf3+0x214>
    90d2:	408587b3          	sub	a5,a1,s0
    90d6:	12040b63          	beqz	s0,920c <__adddf3+0x5f4>
    90da:	00800537          	lui	a0,0x800
    90de:	7ff00693          	li	a3,2047
    90e2:	8f49                	or	a4,a4,a0
    90e4:	34d58f63          	beq	a1,a3,9442 <__adddf3+0x82a>
    90e8:	03800693          	li	a3,56
    90ec:	30f6c663          	blt	a3,a5,93f8 <__adddf3+0x7e0>
    90f0:	46fd                	li	a3,31
    90f2:	40f6cf63          	blt	a3,a5,9510 <__adddf3+0x8f8>
    90f6:	02000693          	li	a3,32
    90fa:	8e9d                	sub	a3,a3,a5
    90fc:	00d714b3          	sll	s1,a4,a3
    9100:	00f85633          	srl	a2,a6,a5
    9104:	00d816b3          	sll	a3,a6,a3
    9108:	8cd1                	or	s1,s1,a2
    910a:	00d036b3          	snez	a3,a3
    910e:	00f757b3          	srl	a5,a4,a5
    9112:	8cd5                	or	s1,s1,a3
    9114:	98be                	add	a7,a7,a5
    9116:	94f2                	add	s1,s1,t3
    9118:	01c4b7b3          	sltu	a5,s1,t3
    911c:	01178733          	add	a4,a5,a7
    9120:	842e                	mv	s0,a1
    9122:	a0a9                	j	916c <__adddf3+0x554>
    9124:	00800337          	lui	t1,0x800
    9128:	7ff00513          	li	a0,2047
    912c:	00676733          	or	a4,a4,t1
    9130:	d8a597e3          	bne	a1,a0,8ebe <__adddf3+0x2a6>
    9134:	01c8e7b3          	or	a5,a7,t3
    9138:	d3bd                	beqz	a5,909e <__adddf3+0x486>
    913a:	00361813          	slli	a6,a2,0x3
    913e:	01d89793          	slli	a5,a7,0x1d
    9142:	00385813          	srli	a6,a6,0x3
    9146:	00989713          	slli	a4,a7,0x9
    914a:	00f86833          	or	a6,a6,a5
    914e:	8936                	mv	s2,a3
    9150:	0038d793          	srli	a5,a7,0x3
    9154:	1a074e63          	bltz	a4,9310 <__adddf3+0x6f8>
    9158:	4341                	li	t1,16
    915a:	bf05                	j	908a <__adddf3+0x472>
    915c:	01c8e8b3          	or	a7,a7,t3
    9160:	011034b3          	snez	s1,a7
    9164:	94c2                	add	s1,s1,a6
    9166:	0104b833          	sltu	a6,s1,a6
    916a:	9742                	add	a4,a4,a6
    916c:	00871793          	slli	a5,a4,0x8
    9170:	da07d6e3          	bgez	a5,8f1c <__adddf3+0x304>
    9174:	0405                	addi	s0,s0,1
    9176:	7ff00793          	li	a5,2047
    917a:	0af40763          	beq	s0,a5,9228 <__adddf3+0x610>
    917e:	ff8007b7          	lui	a5,0xff800
    9182:	17fd                	addi	a5,a5,-1
    9184:	8ff9                	and	a5,a5,a4
    9186:	0014d713          	srli	a4,s1,0x1
    918a:	8885                	andi	s1,s1,1
    918c:	8cd9                	or	s1,s1,a4
    918e:	01f79813          	slli	a6,a5,0x1f
    9192:	009864b3          	or	s1,a6,s1
    9196:	0017d713          	srli	a4,a5,0x1
    919a:	0074f793          	andi	a5,s1,7
    919e:	b369                	j	8f28 <__adddf3+0x310>
    91a0:	1505                	addi	a0,a0,-31
    91a2:	02000693          	li	a3,32
    91a6:	00a7d533          	srl	a0,a5,a0
    91aa:	00d70a63          	beq	a4,a3,91be <__adddf3+0x5a6>
    91ae:	04000693          	li	a3,64
    91b2:	40e68733          	sub	a4,a3,a4
    91b6:	00e797b3          	sll	a5,a5,a4
    91ba:	00fa6a33          	or	s4,s4,a5
    91be:	014037b3          	snez	a5,s4
    91c2:	8fc9                	or	a5,a5,a0
    91c4:	84be                	mv	s1,a5
    91c6:	4701                	li	a4,0
    91c8:	b68d                	j	8d2a <__adddf3+0x112>
    91ca:	fe030493          	addi	s1,t1,-32 # 7fffe0 <_data_lma+0x7f3448>
    91ce:	02000693          	li	a3,32
    91d2:	0098d7b3          	srl	a5,a7,s1
    91d6:	00d30a63          	beq	t1,a3,91ea <__adddf3+0x5d2>
    91da:	04000693          	li	a3,64
    91de:	40668333          	sub	t1,a3,t1
    91e2:	006898b3          	sll	a7,a7,t1
    91e6:	011e6e33          	or	t3,t3,a7
    91ea:	01c034b3          	snez	s1,t3
    91ee:	8cdd                	or	s1,s1,a5
    91f0:	b4f1                	j	8cbc <__adddf3+0xa4>
    91f2:	010764b3          	or	s1,a4,a6
    91f6:	009034b3          	snez	s1,s1
    91fa:	409e04b3          	sub	s1,t3,s1
    91fe:	009e37b3          	sltu	a5,t3,s1
    9202:	40f88733          	sub	a4,a7,a5
    9206:	842e                	mv	s0,a1
    9208:	8936                	mv	s2,a3
    920a:	bc7d                	j	8cc8 <__adddf3+0xb0>
    920c:	010766b3          	or	a3,a4,a6
    9210:	24068d63          	beqz	a3,946a <__adddf3+0x852>
    9214:	fff78693          	addi	a3,a5,-1 # ff7fffff <_eusrstack+0xdf7f7fff>
    9218:	32068063          	beqz	a3,9538 <__adddf3+0x920>
    921c:	7ff00513          	li	a0,2047
    9220:	22a78163          	beq	a5,a0,9442 <__adddf3+0x82a>
    9224:	87b6                	mv	a5,a3
    9226:	b5c9                	j	90e8 <__adddf3+0x4d0>
    9228:	1a098a63          	beqz	s3,93dc <__adddf3+0x7c4>
    922c:	478d                	li	a5,3
    922e:	38f98c63          	beq	s3,a5,95c6 <__adddf3+0x9ae>
    9232:	4789                	li	a5,2
    9234:	38f98063          	beq	s3,a5,95b4 <__adddf3+0x99c>
    9238:	d00990e3          	bnez	s3,8f38 <__adddf3+0x320>
    923c:	4601                	li	a2,0
    923e:	54fd                	li	s1,-1
    9240:	4315                	li	t1,5
    9242:	7fe00413          	li	s0,2046
    9246:	577d                	li	a4,-1
    9248:	bb85                	j	8fb8 <__adddf3+0x3a0>
    924a:	02000793          	li	a5,32
    924e:	406787b3          	sub	a5,a5,t1
    9252:	00f894b3          	sll	s1,a7,a5
    9256:	006e56b3          	srl	a3,t3,t1
    925a:	00fe17b3          	sll	a5,t3,a5
    925e:	8cd5                	or	s1,s1,a3
    9260:	00f03e33          	snez	t3,a5
    9264:	0068d8b3          	srl	a7,a7,t1
    9268:	01c4e4b3          	or	s1,s1,t3
    926c:	9746                	add	a4,a4,a7
    926e:	bddd                	j	9164 <__adddf3+0x54c>
    9270:	01c804b3          	add	s1,a6,t3
    9274:	011707b3          	add	a5,a4,a7
    9278:	0104b833          	sltu	a6,s1,a6
    927c:	01078733          	add	a4,a5,a6
    9280:	00871793          	slli	a5,a4,0x8
    9284:	4405                	li	s0,1
    9286:	c807dfe3          	bgez	a5,8f24 <__adddf3+0x30c>
    928a:	ff8007b7          	lui	a5,0xff800
    928e:	17fd                	addi	a5,a5,-1
    9290:	8ff9                	and	a5,a5,a4
    9292:	01f79713          	slli	a4,a5,0x1f
    9296:	8085                	srli	s1,s1,0x1
    9298:	8cd9                	or	s1,s1,a4
    929a:	4409                	li	s0,2
    929c:	0017d713          	srli	a4,a5,0x1
    92a0:	0074f793          	andi	a5,s1,7
    92a4:	b151                	j	8f28 <__adddf3+0x310>
    92a6:	00536313          	ori	t1,t1,5
    92aa:	ca0905e3          	beqz	s2,8f54 <__adddf3+0x33c>
    92ae:	b375                	j	905a <__adddf3+0x442>
    92b0:	7ff00793          	li	a5,2047
    92b4:	2cf40263          	beq	s0,a5,9578 <__adddf3+0x960>
    92b8:	2ef58463          	beq	a1,a5,95a0 <__adddf3+0x988>
    92bc:	22068563          	beqz	a3,94e6 <__adddf3+0x8ce>
    92c0:	01c8e8b3          	or	a7,a7,t3
    92c4:	dc0896e3          	bnez	a7,9090 <__adddf3+0x478>
    92c8:	00351813          	slli	a6,a0,0x3
    92cc:	01d71793          	slli	a5,a4,0x1d
    92d0:	00385813          	srli	a6,a6,0x3
    92d4:	00f86833          	or	a6,a6,a5
    92d8:	00375793          	srli	a5,a4,0x3
    92dc:	b37d                	j	908a <__adddf3+0x472>
    92de:	de0783e3          	beqz	a5,90c4 <__adddf3+0x4ac>
    92e2:	4781                	li	a5,0
    92e4:	8746                	mv	a4,a7
    92e6:	8872                	mv	a6,t3
    92e8:	8936                	mv	s2,a3
    92ea:	84c2                	mv	s1,a6
    92ec:	b491                	j	8d30 <__adddf3+0x118>
    92ee:	01c8e7b3          	or	a5,a7,t3
    92f2:	da0786e3          	beqz	a5,909e <__adddf3+0x486>
    92f6:	060e                	slli	a2,a2,0x3
    92f8:	01d89813          	slli	a6,a7,0x1d
    92fc:	820d                	srli	a2,a2,0x3
    92fe:	00989713          	slli	a4,a7,0x9
    9302:	00c86833          	or	a6,a6,a2
    9306:	0038d793          	srli	a5,a7,0x3
    930a:	8936                	mv	s2,a3
    930c:	e40756e3          	bgez	a4,9158 <__adddf3+0x540>
    9310:	4301                	li	t1,0
    9312:	bba5                	j	908a <__adddf3+0x472>
    9314:	41c804b3          	sub	s1,a6,t3
    9318:	411707b3          	sub	a5,a4,a7
    931c:	00983833          	sltu	a6,a6,s1
    9320:	41078733          	sub	a4,a5,a6
    9324:	00871793          	slli	a5,a4,0x8
    9328:	4405                	li	s0,1
    932a:	9a07c3e3          	bltz	a5,8cd0 <__adddf3+0xb8>
    932e:	bedd                	j	8f24 <__adddf3+0x30c>
    9330:	010767b3          	or	a5,a4,a6
    9334:	ebd5                	bnez	a5,93e8 <__adddf3+0x7d0>
    9336:	4701                	li	a4,0
    9338:	4801                	li	a6,0
    933a:	4301                	li	t1,0
    933c:	01d71793          	slli	a5,a4,0x1d
    9340:	00385813          	srli	a6,a6,0x3
    9344:	00f86833          	or	a6,a6,a5
    9348:	00375793          	srli	a5,a4,0x3
    934c:	bb3d                	j	908a <__adddf3+0x472>
    934e:	4305                	li	t1,1
    9350:	a00904e3          	beqz	s2,8d58 <__adddf3+0x140>
    9354:	ff85b613          	sltiu	a2,a1,-8
    9358:	00164613          	xori	a2,a2,1
    935c:	96b2                	add	a3,a3,a2
    935e:	baed                	j	8d58 <__adddf3+0x140>
    9360:	00f5f613          	andi	a2,a1,15
    9364:	4511                	li	a0,4
    9366:	9ea609e3          	beq	a2,a0,8d58 <__adddf3+0x140>
    936a:	ffc5b593          	sltiu	a1,a1,-4
    936e:	0015c593          	xori	a1,a1,1
    9372:	96ae                	add	a3,a3,a1
    9374:	b2d5                	j	8d58 <__adddf3+0x140>
    9376:	9e0911e3          	bnez	s2,8d58 <__adddf3+0x140>
    937a:	bfe9                	j	9354 <__adddf3+0x73c>
    937c:	7ff00793          	li	a5,2047
    9380:	0ef68d63          	beq	a3,a5,947a <__adddf3+0x862>
    9384:	01c807b3          	add	a5,a6,t3
    9388:	0107b833          	sltu	a6,a5,a6
    938c:	9746                	add	a4,a4,a7
    938e:	9742                	add	a4,a4,a6
    9390:	01f71493          	slli	s1,a4,0x1f
    9394:	8385                	srli	a5,a5,0x1
    9396:	8cdd                	or	s1,s1,a5
    9398:	8305                	srli	a4,a4,0x1
    939a:	0074f793          	andi	a5,s1,7
    939e:	8436                	mv	s0,a3
    93a0:	b661                	j	8f28 <__adddf3+0x310>
    93a2:	410e04b3          	sub	s1,t3,a6
    93a6:	40e888b3          	sub	a7,a7,a4
    93aa:	009e37b3          	sltu	a5,t3,s1
    93ae:	40f88a33          	sub	s4,a7,a5
    93b2:	8936                	mv	s2,a3
    93b4:	b215                	j	8cd8 <__adddf3+0xc0>
    93b6:	7ff00813          	li	a6,2047
    93ba:	0d040e63          	beq	s0,a6,9496 <__adddf3+0x87e>
    93be:	0f058763          	beq	a1,a6,94ac <__adddf3+0x894>
    93c2:	c60e8fe3          	beqz	t4,9040 <__adddf3+0x428>
    93c6:	cc0795e3          	bnez	a5,9090 <__adddf3+0x478>
    93ca:	050e                	slli	a0,a0,0x3
    93cc:	01d71813          	slli	a6,a4,0x1d
    93d0:	810d                	srli	a0,a0,0x3
    93d2:	00a86833          	or	a6,a6,a0
    93d6:	00375793          	srli	a5,a4,0x3
    93da:	b945                	j	908a <__adddf3+0x472>
    93dc:	4315                	li	t1,5
    93de:	b9b5                	j	905a <__adddf3+0x442>
    93e0:	010767b3          	or	a5,a4,a6
    93e4:	ca078ee3          	beqz	a5,90a0 <__adddf3+0x488>
    93e8:	00400337          	lui	t1,0x400
    93ec:	00677333          	and	t1,a4,t1
    93f0:	00133313          	seqz	t1,t1
    93f4:	0312                	slli	t1,t1,0x4
    93f6:	b799                	j	933c <__adddf3+0x724>
    93f8:	010764b3          	or	s1,a4,a6
    93fc:	009034b3          	snez	s1,s1
    9400:	bb19                	j	9116 <__adddf3+0x4fe>
    9402:	fe078613          	addi	a2,a5,-32 # ff7fffe0 <_eusrstack+0xdf7f7fe0>
    9406:	02000513          	li	a0,32
    940a:	00c75633          	srl	a2,a4,a2
    940e:	00a78a63          	beq	a5,a0,9422 <__adddf3+0x80a>
    9412:	04000513          	li	a0,64
    9416:	40f507b3          	sub	a5,a0,a5
    941a:	00f717b3          	sll	a5,a4,a5
    941e:	00f86833          	or	a6,a6,a5
    9422:	010034b3          	snez	s1,a6
    9426:	8cd1                	or	s1,s1,a2
    9428:	bbc9                	j	91fa <__adddf3+0x5e2>
    942a:	410e04b3          	sub	s1,t3,a6
    942e:	40e88733          	sub	a4,a7,a4
    9432:	009e37b3          	sltu	a5,t3,s1
    9436:	8f1d                	sub	a4,a4,a5
    9438:	8936                	mv	s2,a3
    943a:	b5ed                	j	9324 <__adddf3+0x70c>
    943c:	8746                	mv	a4,a7
    943e:	84f2                	mv	s1,t3
    9440:	b0ed                	j	8d2a <__adddf3+0x112>
    9442:	01c8e7b3          	or	a5,a7,t3
    9446:	c4078de3          	beqz	a5,90a0 <__adddf3+0x488>
    944a:	00400337          	lui	t1,0x400
    944e:	060e                	slli	a2,a2,0x3
    9450:	0068f333          	and	t1,a7,t1
    9454:	01d89813          	slli	a6,a7,0x1d
    9458:	820d                	srli	a2,a2,0x3
    945a:	00133313          	seqz	t1,t1
    945e:	00c86833          	or	a6,a6,a2
    9462:	0038d793          	srli	a5,a7,0x3
    9466:	0312                	slli	t1,t1,0x4
    9468:	b10d                	j	908a <__adddf3+0x472>
    946a:	7ff00713          	li	a4,2047
    946e:	0ee78963          	beq	a5,a4,9560 <__adddf3+0x948>
    9472:	8746                	mv	a4,a7
    9474:	84f2                	mv	s1,t3
    9476:	843e                	mv	s0,a5
    9478:	b455                	j	8f1c <__adddf3+0x304>
    947a:	f60981e3          	beqz	s3,93dc <__adddf3+0x7c4>
    947e:	478d                	li	a5,3
    9480:	daf999e3          	bne	s3,a5,9232 <__adddf3+0x61a>
    9484:	f4090ce3          	beqz	s2,93dc <__adddf3+0x7c4>
    9488:	4601                	li	a2,0
    948a:	7fe00413          	li	s0,2046
    948e:	4315                	li	t1,5
    9490:	577d                	li	a4,-1
    9492:	54fd                	li	s1,-1
    9494:	b0dd                	j	8d7a <__adddf3+0x162>
    9496:	ba0e83e3          	beqz	t4,903c <__adddf3+0x424>
    949a:	00971413          	slli	s0,a4,0x9
    949e:	00044363          	bltz	s0,94a4 <__adddf3+0x88c>
    94a2:	4341                	li	t1,16
    94a4:	7ff00813          	li	a6,2047
    94a8:	f1059fe3          	bne	a1,a6,93c6 <__adddf3+0x7ae>
    94ac:	12078763          	beqz	a5,95da <__adddf3+0x9c2>
    94b0:	00989793          	slli	a5,a7,0x9
    94b4:	0007c363          	bltz	a5,94ba <__adddf3+0x8a2>
    94b8:	4341                	li	t1,16
    94ba:	bc0e9be3          	bnez	t4,9090 <__adddf3+0x478>
    94be:	060e                	slli	a2,a2,0x3
    94c0:	01d89813          	slli	a6,a7,0x1d
    94c4:	820d                	srli	a2,a2,0x3
    94c6:	00c86833          	or	a6,a6,a2
    94ca:	0038d793          	srli	a5,a7,0x3
    94ce:	8936                	mv	s2,a3
    94d0:	be6d                	j	908a <__adddf3+0x472>
    94d2:	00859a63          	bne	a1,s0,94e6 <__adddf3+0x8ce>
    94d6:	01c8e7b3          	or	a5,a7,t3
    94da:	c791                	beqz	a5,94e6 <__adddf3+0x8ce>
    94dc:	00989793          	slli	a5,a7,0x9
    94e0:	0007c363          	bltz	a5,94e6 <__adddf3+0x8ce>
    94e4:	4341                	li	t1,16
    94e6:	00361813          	slli	a6,a2,0x3
    94ea:	01d89793          	slli	a5,a7,0x1d
    94ee:	00385813          	srli	a6,a6,0x3
    94f2:	00f86833          	or	a6,a6,a5
    94f6:	0038d793          	srli	a5,a7,0x3
    94fa:	be41                	j	908a <__adddf3+0x472>
    94fc:	00c5e7b3          	or	a5,a1,a2
    9500:	bc0782e3          	beqz	a5,90c4 <__adddf3+0x4ac>
    9504:	882e                	mv	a6,a1
    9506:	0075f793          	andi	a5,a1,7
    950a:	8732                	mv	a4,a2
    950c:	84c2                	mv	s1,a6
    950e:	b00d                	j	8d30 <__adddf3+0x118>
    9510:	fe078693          	addi	a3,a5,-32
    9514:	02000613          	li	a2,32
    9518:	00d756b3          	srl	a3,a4,a3
    951c:	00c78a63          	beq	a5,a2,9530 <__adddf3+0x918>
    9520:	04000613          	li	a2,64
    9524:	40f607b3          	sub	a5,a2,a5
    9528:	00f717b3          	sll	a5,a4,a5
    952c:	00f86833          	or	a6,a6,a5
    9530:	010034b3          	snez	s1,a6
    9534:	8cd5                	or	s1,s1,a3
    9536:	b6c5                	j	9116 <__adddf3+0x4fe>
    9538:	01c804b3          	add	s1,a6,t3
    953c:	9746                	add	a4,a4,a7
    953e:	01c4b7b3          	sltu	a5,s1,t3
    9542:	973e                	add	a4,a4,a5
    9544:	bb35                	j	9280 <__adddf3+0x668>
    9546:	01c8e833          	or	a6,a7,t3
    954a:	08080b63          	beqz	a6,95e0 <__adddf3+0x9c8>
    954e:	00989793          	slli	a5,a7,0x9
    9552:	8746                	mv	a4,a7
    9554:	8872                	mv	a6,t3
    9556:	8936                	mv	s2,a3
    9558:	0007ce63          	bltz	a5,9574 <__adddf3+0x95c>
    955c:	4341                	li	t1,16
    955e:	bbf9                	j	933c <__adddf3+0x724>
    9560:	01c8e833          	or	a6,a7,t3
    9564:	08080563          	beqz	a6,95ee <__adddf3+0x9d6>
    9568:	00989793          	slli	a5,a7,0x9
    956c:	8746                	mv	a4,a7
    956e:	8872                	mv	a6,t3
    9570:	fe07d6e3          	bgez	a5,955c <__adddf3+0x944>
    9574:	4301                	li	t1,0
    9576:	b3d9                	j	933c <__adddf3+0x724>
    9578:	dea9                	beqz	a3,94d2 <__adddf3+0x8ba>
    957a:	00971793          	slli	a5,a4,0x9
    957e:	0007c363          	bltz	a5,9584 <__adddf3+0x96c>
    9582:	4341                	li	t1,16
    9584:	7ff00793          	li	a5,2047
    9588:	d2f59ce3          	bne	a1,a5,92c0 <__adddf3+0x6a8>
    958c:	01c8e7b3          	or	a5,a7,t3
    9590:	d2078ce3          	beqz	a5,92c8 <__adddf3+0x6b0>
    9594:	00989793          	slli	a5,a7,0x9
    9598:	0007dc63          	bgez	a5,95b0 <__adddf3+0x998>
    959c:	d6a9                	beqz	a3,94e6 <__adddf3+0x8ce>
    959e:	bccd                	j	9090 <__adddf3+0x478>
    95a0:	01c8e7b3          	or	a5,a7,t3
    95a4:	c3b1                	beqz	a5,95e8 <__adddf3+0x9d0>
    95a6:	00989793          	slli	a5,a7,0x9
    95aa:	fe07c9e3          	bltz	a5,959c <__adddf3+0x984>
    95ae:	da9d                	beqz	a3,94e4 <__adddf3+0x8cc>
    95b0:	4341                	li	t1,16
    95b2:	bcf9                	j	9090 <__adddf3+0x478>
    95b4:	e20914e3          	bnez	s2,93dc <__adddf3+0x7c4>
    95b8:	7fe00413          	li	s0,2046
    95bc:	577d                	li	a4,-1
    95be:	54fd                	li	s1,-1
    95c0:	4315                	li	t1,5
    95c2:	fc8ff06f          	j	8d8a <__adddf3+0x172>
    95c6:	e0090be3          	beqz	s2,93dc <__adddf3+0x7c4>
    95ca:	7fe00413          	li	s0,2046
    95ce:	4601                	li	a2,0
    95d0:	4315                	li	t1,5
    95d2:	577d                	li	a4,-1
    95d4:	54fd                	li	s1,-1
    95d6:	fa4ff06f          	j	8d7a <__adddf3+0x162>
    95da:	a60e85e3          	beqz	t4,9044 <__adddf3+0x42c>
    95de:	b3f5                	j	93ca <__adddf3+0x7b2>
    95e0:	4701                	li	a4,0
    95e2:	8936                	mv	s2,a3
    95e4:	4301                	li	t1,0
    95e6:	bb99                	j	933c <__adddf3+0x724>
    95e8:	ee068fe3          	beqz	a3,94e6 <__adddf3+0x8ce>
    95ec:	b9f1                	j	92c8 <__adddf3+0x6b0>
    95ee:	4701                	li	a4,0
    95f0:	4301                	li	t1,0
    95f2:	b3a9                	j	933c <__adddf3+0x724>
    95f4:	01d71693          	slli	a3,a4,0x1d
    95f8:	0034d813          	srli	a6,s1,0x3
    95fc:	7ff00613          	li	a2,2047
    9600:	0106e833          	or	a6,a3,a6
    9604:	00375793          	srli	a5,a4,0x3
    9608:	a8c401e3          	beq	s0,a2,908a <__adddf3+0x472>
    960c:	b005                	j	8e2c <__adddf3+0x214>
    960e:	008007b7          	lui	a5,0x800
    9612:	8ff9                	and	a5,a5,a4
    9614:	4401                	li	s0,0
    9616:	f6069863          	bnez	a3,8d86 <__adddf3+0x16e>
    961a:	f6030663          	beqz	t1,8d86 <__adddf3+0x16e>
    961e:	00236313          	ori	t1,t1,2
    9622:	f64ff06f          	j	8d86 <__adddf3+0x16e>

00009626 <__divdf3>:
    9626:	7139                	addi	sp,sp,-64
    9628:	da26                	sw	s1,52(sp)
    962a:	de06                	sw	ra,60(sp)
    962c:	dc22                	sw	s0,56(sp)
    962e:	d84a                	sw	s2,48(sp)
    9630:	d64e                	sw	s3,44(sp)
    9632:	d452                	sw	s4,40(sp)
    9634:	d256                	sw	s5,36(sp)
    9636:	d05a                	sw	s6,32(sp)
    9638:	ce5e                	sw	s7,28(sp)
    963a:	cc62                	sw	s8,24(sp)
    963c:	ca66                	sw	s9,20(sp)
    963e:	84aa                	mv	s1,a0
    9640:	00202b73          	frrm	s6
    9644:	0145d513          	srli	a0,a1,0x14
    9648:	00c59413          	slli	s0,a1,0xc
    964c:	7ff57513          	andi	a0,a0,2047
    9650:	8031                	srli	s0,s0,0xc
    9652:	01f5da13          	srli	s4,a1,0x1f
    9656:	c979                	beqz	a0,972c <__divdf3+0x106>
    9658:	7ff00793          	li	a5,2047
    965c:	10f50d63          	beq	a0,a5,9776 <__divdf3+0x150>
    9660:	01d4db93          	srli	s7,s1,0x1d
    9664:	040e                	slli	s0,s0,0x3
    9666:	008be433          	or	s0,s7,s0
    966a:	00800bb7          	lui	s7,0x800
    966e:	00349c13          	slli	s8,s1,0x3
    9672:	01746bb3          	or	s7,s0,s7
    9676:	c0150993          	addi	s3,a0,-1023 # 7ffc01 <_data_lma+0x7f3069>
    967a:	4481                	li	s1,0
    967c:	4c81                	li	s9,0
    967e:	4901                	li	s2,0
    9680:	0146d793          	srli	a5,a3,0x14
    9684:	00c69413          	slli	s0,a3,0xc
    9688:	7ff7f793          	andi	a5,a5,2047
    968c:	85b2                	mv	a1,a2
    968e:	8031                	srli	s0,s0,0xc
    9690:	01f6da93          	srli	s5,a3,0x1f
    9694:	c3a5                	beqz	a5,96f4 <__divdf3+0xce>
    9696:	7ff00713          	li	a4,2047
    969a:	04e78063          	beq	a5,a4,96da <__divdf3+0xb4>
    969e:	00341513          	slli	a0,s0,0x3
    96a2:	01d65413          	srli	s0,a2,0x1d
    96a6:	8c49                	or	s0,s0,a0
    96a8:	c0178793          	addi	a5,a5,-1023 # 7ffc01 <_data_lma+0x7f3069>
    96ac:	00800537          	lui	a0,0x800
    96b0:	00361593          	slli	a1,a2,0x3
    96b4:	8c49                	or	s0,s0,a0
    96b6:	40f989b3          	sub	s3,s3,a5
    96ba:	4601                	li	a2,0
    96bc:	015a46b3          	xor	a3,s4,s5
    96c0:	47bd                	li	a5,15
    96c2:	8836                	mv	a6,a3
    96c4:	1c97e663          	bltu	a5,s1,9890 <__divdf3+0x26a>
    96c8:	00003717          	auipc	a4,0x3
    96cc:	35070713          	addi	a4,a4,848 # ca18 <atanlo+0x24>
    96d0:	048a                	slli	s1,s1,0x2
    96d2:	94ba                	add	s1,s1,a4
    96d4:	409c                	lw	a5,0(s1)
    96d6:	97ba                	add	a5,a5,a4
    96d8:	8782                	jr	a5
    96da:	8e41                	or	a2,a2,s0
    96dc:	80198993          	addi	s3,s3,-2047
    96e0:	ce79                	beqz	a2,97be <__divdf3+0x198>
    96e2:	00c41793          	slli	a5,s0,0xc
    96e6:	0034e493          	ori	s1,s1,3
    96ea:	460d                	li	a2,3
    96ec:	fc07c8e3          	bltz	a5,96bc <__divdf3+0x96>
    96f0:	4941                	li	s2,16
    96f2:	b7e9                	j	96bc <__divdf3+0x96>
    96f4:	00c467b3          	or	a5,s0,a2
    96f8:	cfcd                	beqz	a5,97b2 <__divdf3+0x18c>
    96fa:	36040363          	beqz	s0,9a60 <__divdf3+0x43a>
    96fe:	8522                	mv	a0,s0
    9700:	c432                	sw	a2,8(sp)
    9702:	28e020ef          	jal	ra,b990 <__clzsi2>
    9706:	4622                	lw	a2,8(sp)
    9708:	ff550713          	addi	a4,a0,-11 # 7ffff5 <_data_lma+0x7f345d>
    970c:	47f5                	li	a5,29
    970e:	ff850593          	addi	a1,a0,-8
    9712:	8f99                	sub	a5,a5,a4
    9714:	00b41433          	sll	s0,s0,a1
    9718:	00f657b3          	srl	a5,a2,a5
    971c:	8c5d                	or	s0,s0,a5
    971e:	00b615b3          	sll	a1,a2,a1
    9722:	954e                	add	a0,a0,s3
    9724:	3f350993          	addi	s3,a0,1011
    9728:	4601                	li	a2,0
    972a:	bf49                	j	96bc <__divdf3+0x96>
    972c:	00946bb3          	or	s7,s0,s1
    9730:	060b8b63          	beqz	s7,97a6 <__divdf3+0x180>
    9734:	c636                	sw	a3,12(sp)
    9736:	c432                	sw	a2,8(sp)
    9738:	30040263          	beqz	s0,9a3c <__divdf3+0x416>
    973c:	8522                	mv	a0,s0
    973e:	252020ef          	jal	ra,b990 <__clzsi2>
    9742:	4622                	lw	a2,8(sp)
    9744:	46b2                	lw	a3,12(sp)
    9746:	89aa                	mv	s3,a0
    9748:	ff550713          	addi	a4,a0,-11
    974c:	4bf5                	li	s7,29
    974e:	ff898c13          	addi	s8,s3,-8
    9752:	40eb8bb3          	sub	s7,s7,a4
    9756:	01841433          	sll	s0,s0,s8
    975a:	0174dbb3          	srl	s7,s1,s7
    975e:	008bebb3          	or	s7,s7,s0
    9762:	01849c33          	sll	s8,s1,s8
    9766:	c0d00513          	li	a0,-1011
    976a:	413509b3          	sub	s3,a0,s3
    976e:	4481                	li	s1,0
    9770:	4c81                	li	s9,0
    9772:	4901                	li	s2,0
    9774:	b731                	j	9680 <__divdf3+0x5a>
    9776:	00946bb3          	or	s7,s0,s1
    977a:	000b8f63          	beqz	s7,9798 <__divdf3+0x172>
    977e:	00c41793          	slli	a5,s0,0xc
    9782:	8c26                	mv	s8,s1
    9784:	8ba2                	mv	s7,s0
    9786:	44b1                	li	s1,12
    9788:	7ff00993          	li	s3,2047
    978c:	4c8d                	li	s9,3
    978e:	4941                	li	s2,16
    9790:	ee07d8e3          	bgez	a5,9680 <__divdf3+0x5a>
    9794:	4901                	li	s2,0
    9796:	b5ed                	j	9680 <__divdf3+0x5a>
    9798:	44a1                	li	s1,8
    979a:	4c01                	li	s8,0
    979c:	7ff00993          	li	s3,2047
    97a0:	4c89                	li	s9,2
    97a2:	4901                	li	s2,0
    97a4:	bdf1                	j	9680 <__divdf3+0x5a>
    97a6:	4491                	li	s1,4
    97a8:	4c01                	li	s8,0
    97aa:	4981                	li	s3,0
    97ac:	4c85                	li	s9,1
    97ae:	4901                	li	s2,0
    97b0:	bdc1                	j	9680 <__divdf3+0x5a>
    97b2:	0014e493          	ori	s1,s1,1
    97b6:	4401                	li	s0,0
    97b8:	4581                	li	a1,0
    97ba:	4605                	li	a2,1
    97bc:	b701                	j	96bc <__divdf3+0x96>
    97be:	0024e493          	ori	s1,s1,2
    97c2:	4401                	li	s0,0
    97c4:	4581                	li	a1,0
    97c6:	4609                	li	a2,2
    97c8:	bdd5                	j	96bc <__divdf3+0x96>
    97ca:	4681                	li	a3,0
    97cc:	7ff00713          	li	a4,2047
    97d0:	000807b7          	lui	a5,0x80
    97d4:	4401                	li	s0,0
    97d6:	07b2                	slli	a5,a5,0xc
    97d8:	0752                	slli	a4,a4,0x14
    97da:	83b1                	srli	a5,a5,0xc
    97dc:	06fe                	slli	a3,a3,0x1f
    97de:	8fd9                	or	a5,a5,a4
    97e0:	8fd5                	or	a5,a5,a3
    97e2:	8522                	mv	a0,s0
    97e4:	85be                	mv	a1,a5
    97e6:	0a091263          	bnez	s2,988a <__divdf3+0x264>
    97ea:	50f2                	lw	ra,60(sp)
    97ec:	5462                	lw	s0,56(sp)
    97ee:	54d2                	lw	s1,52(sp)
    97f0:	5942                	lw	s2,48(sp)
    97f2:	59b2                	lw	s3,44(sp)
    97f4:	5a22                	lw	s4,40(sp)
    97f6:	5a92                	lw	s5,36(sp)
    97f8:	5b02                	lw	s6,32(sp)
    97fa:	4bf2                	lw	s7,28(sp)
    97fc:	4c62                	lw	s8,24(sp)
    97fe:	4cd2                	lw	s9,20(sp)
    9800:	6121                	addi	sp,sp,64
    9802:	8082                	ret
    9804:	4701                	li	a4,0
    9806:	4781                	li	a5,0
    9808:	4401                	li	s0,0
    980a:	b7f1                	j	97d6 <__divdf3+0x1b0>
    980c:	8852                	mv	a6,s4
    980e:	845e                	mv	s0,s7
    9810:	85e2                	mv	a1,s8
    9812:	8666                	mv	a2,s9
    9814:	4789                	li	a5,2
    9816:	52f60163          	beq	a2,a5,9d38 <__divdf3+0x712>
    981a:	478d                	li	a5,3
    981c:	faf607e3          	beq	a2,a5,97ca <__divdf3+0x1a4>
    9820:	4785                	li	a5,1
    9822:	4cf60063          	beq	a2,a5,9ce2 <__divdf3+0x6bc>
    9826:	3ff98613          	addi	a2,s3,1023
    982a:	28c05a63          	blez	a2,9abe <__divdf3+0x498>
    982e:	0075f793          	andi	a5,a1,7
    9832:	42079463          	bnez	a5,9c5a <__divdf3+0x634>
    9836:	818d                	srli	a1,a1,0x3
    9838:	86c2                	mv	a3,a6
    983a:	00741793          	slli	a5,s0,0x7
    983e:	0007d863          	bgez	a5,984e <__divdf3+0x228>
    9842:	ff0007b7          	lui	a5,0xff000
    9846:	17fd                	addi	a5,a5,-1
    9848:	8c7d                	and	s0,s0,a5
    984a:	40098613          	addi	a2,s3,1024
    984e:	7fe00793          	li	a5,2046
    9852:	2ec7cb63          	blt	a5,a2,9b48 <__divdf3+0x522>
    9856:	01d41713          	slli	a4,s0,0x1d
    985a:	00941793          	slli	a5,s0,0x9
    985e:	83b1                	srli	a5,a5,0xc
    9860:	00b76433          	or	s0,a4,a1
    9864:	7ff67713          	andi	a4,a2,2047
    9868:	b7bd                	j	97d6 <__divdf3+0x1b0>
    986a:	7ff00713          	li	a4,2047
    986e:	4781                	li	a5,0
    9870:	4401                	li	s0,0
    9872:	b795                	j	97d6 <__divdf3+0x1b0>
    9874:	8856                	mv	a6,s5
    9876:	bf79                	j	9814 <__divdf3+0x1ee>
    9878:	00896913          	ori	s2,s2,8
    987c:	7ff00793          	li	a5,2047
    9880:	06fe                	slli	a3,a3,0x1f
    9882:	07d2                	slli	a5,a5,0x14
    9884:	8fd5                	or	a5,a5,a3
    9886:	4501                	li	a0,0
    9888:	85be                	mv	a1,a5
    988a:	00192073          	csrs	fflags,s2
    988e:	bfb1                	j	97ea <__divdf3+0x1c4>
    9890:	21746e63          	bltu	s0,s7,9aac <__divdf3+0x486>
    9894:	208b8a63          	beq	s7,s0,9aa8 <__divdf3+0x482>
    9898:	87e2                	mv	a5,s8
    989a:	19fd                	addi	s3,s3,-1
    989c:	4c01                	li	s8,0
    989e:	0422                	slli	s0,s0,0x8
    98a0:	0185d893          	srli	a7,a1,0x18
    98a4:	0088e8b3          	or	a7,a7,s0
    98a8:	0108d313          	srli	t1,a7,0x10
    98ac:	026bd433          	divu	s0,s7,t1
    98b0:	01089e13          	slli	t3,a7,0x10
    98b4:	010e5e13          	srli	t3,t3,0x10
    98b8:	0107d713          	srli	a4,a5,0x10
    98bc:	00859e93          	slli	t4,a1,0x8
    98c0:	026bfbb3          	remu	s7,s7,t1
    98c4:	028e0633          	mul	a2,t3,s0
    98c8:	0bc2                	slli	s7,s7,0x10
    98ca:	01776733          	or	a4,a4,s7
    98ce:	00c77b63          	bgeu	a4,a2,98e4 <__divdf3+0x2be>
    98d2:	9746                	add	a4,a4,a7
    98d4:	fff40593          	addi	a1,s0,-1
    98d8:	2d176a63          	bltu	a4,a7,9bac <__divdf3+0x586>
    98dc:	2cc77863          	bgeu	a4,a2,9bac <__divdf3+0x586>
    98e0:	1479                	addi	s0,s0,-2
    98e2:	9746                	add	a4,a4,a7
    98e4:	8f11                	sub	a4,a4,a2
    98e6:	02675533          	divu	a0,a4,t1
    98ea:	07c2                	slli	a5,a5,0x10
    98ec:	83c1                	srli	a5,a5,0x10
    98ee:	02677733          	remu	a4,a4,t1
    98f2:	02ae02b3          	mul	t0,t3,a0
    98f6:	0742                	slli	a4,a4,0x10
    98f8:	8fd9                	or	a5,a5,a4
    98fa:	0057fb63          	bgeu	a5,t0,9910 <__divdf3+0x2ea>
    98fe:	97c6                	add	a5,a5,a7
    9900:	fff50713          	addi	a4,a0,-1
    9904:	2b17e263          	bltu	a5,a7,9ba8 <__divdf3+0x582>
    9908:	2a57f063          	bgeu	a5,t0,9ba8 <__divdf3+0x582>
    990c:	1579                	addi	a0,a0,-2
    990e:	97c6                	add	a5,a5,a7
    9910:	0442                	slli	s0,s0,0x10
    9912:	63c1                	lui	t2,0x10
    9914:	8c49                	or	s0,s0,a0
    9916:	fff38513          	addi	a0,t2,-1 # ffff <_data_lma+0x3467>
    991a:	00a47633          	and	a2,s0,a0
    991e:	01045593          	srli	a1,s0,0x10
    9922:	010edf13          	srli	t5,t4,0x10
    9926:	00aef533          	and	a0,t4,a0
    992a:	02c50fb3          	mul	t6,a0,a2
    992e:	405787b3          	sub	a5,a5,t0
    9932:	02cf0633          	mul	a2,t5,a2
    9936:	010fd713          	srli	a4,t6,0x10
    993a:	02a582b3          	mul	t0,a1,a0
    993e:	9616                	add	a2,a2,t0
    9940:	9732                	add	a4,a4,a2
    9942:	03e585b3          	mul	a1,a1,t5
    9946:	00577363          	bgeu	a4,t0,994c <__divdf3+0x326>
    994a:	959e                	add	a1,a1,t2
    994c:	62c1                	lui	t0,0x10
    994e:	12fd                	addi	t0,t0,-1
    9950:	01075613          	srli	a2,a4,0x10
    9954:	00577733          	and	a4,a4,t0
    9958:	0742                	slli	a4,a4,0x10
    995a:	005fffb3          	and	t6,t6,t0
    995e:	962e                	add	a2,a2,a1
    9960:	977e                	add	a4,a4,t6
    9962:	12c7e463          	bltu	a5,a2,9a8a <__divdf3+0x464>
    9966:	12c78063          	beq	a5,a2,9a86 <__divdf3+0x460>
    996a:	40ec0733          	sub	a4,s8,a4
    996e:	8f91                	sub	a5,a5,a2
    9970:	00ec3c33          	sltu	s8,s8,a4
    9974:	418787b3          	sub	a5,a5,s8
    9978:	3ff98613          	addi	a2,s3,1023
    997c:	2af88f63          	beq	a7,a5,9c3a <__divdf3+0x614>
    9980:	0267d5b3          	divu	a1,a5,t1
    9984:	01075693          	srli	a3,a4,0x10
    9988:	0267f7b3          	remu	a5,a5,t1
    998c:	02be0fb3          	mul	t6,t3,a1
    9990:	07c2                	slli	a5,a5,0x10
    9992:	8fd5                	or	a5,a5,a3
    9994:	01f7fb63          	bgeu	a5,t6,99aa <__divdf3+0x384>
    9998:	97c6                	add	a5,a5,a7
    999a:	fff58693          	addi	a3,a1,-1 # 7ff7ffff <_eusrstack+0x5ff77fff>
    999e:	2f17e063          	bltu	a5,a7,9c7e <__divdf3+0x658>
    99a2:	2df7fe63          	bgeu	a5,t6,9c7e <__divdf3+0x658>
    99a6:	15f9                	addi	a1,a1,-2
    99a8:	97c6                	add	a5,a5,a7
    99aa:	41f787b3          	sub	a5,a5,t6
    99ae:	0267d6b3          	divu	a3,a5,t1
    99b2:	0742                	slli	a4,a4,0x10
    99b4:	8341                	srli	a4,a4,0x10
    99b6:	0267f7b3          	remu	a5,a5,t1
    99ba:	02de0e33          	mul	t3,t3,a3
    99be:	07c2                	slli	a5,a5,0x10
    99c0:	8fd9                	or	a5,a5,a4
    99c2:	01c7fb63          	bgeu	a5,t3,99d8 <__divdf3+0x3b2>
    99c6:	97c6                	add	a5,a5,a7
    99c8:	fff68713          	addi	a4,a3,-1 # 7fffff <_data_lma+0x7f3467>
    99cc:	2b17eb63          	bltu	a5,a7,9c82 <__divdf3+0x65c>
    99d0:	2bc7f963          	bgeu	a5,t3,9c82 <__divdf3+0x65c>
    99d4:	16f9                	addi	a3,a3,-2
    99d6:	97c6                	add	a5,a5,a7
    99d8:	05c2                	slli	a1,a1,0x10
    99da:	8dd5                	or	a1,a1,a3
    99dc:	01059693          	slli	a3,a1,0x10
    99e0:	0105df93          	srli	t6,a1,0x10
    99e4:	82c1                	srli	a3,a3,0x10
    99e6:	02a68333          	mul	t1,a3,a0
    99ea:	41c787b3          	sub	a5,a5,t3
    99ee:	02df06b3          	mul	a3,t5,a3
    99f2:	01035713          	srli	a4,t1,0x10
    99f6:	02af8533          	mul	a0,t6,a0
    99fa:	96aa                	add	a3,a3,a0
    99fc:	9736                	add	a4,a4,a3
    99fe:	03ff0f33          	mul	t5,t5,t6
    9a02:	00a77463          	bgeu	a4,a0,9a0a <__divdf3+0x3e4>
    9a06:	66c1                	lui	a3,0x10
    9a08:	9f36                	add	t5,t5,a3
    9a0a:	6541                	lui	a0,0x10
    9a0c:	157d                	addi	a0,a0,-1
    9a0e:	01075693          	srli	a3,a4,0x10
    9a12:	8f69                	and	a4,a4,a0
    9a14:	0742                	slli	a4,a4,0x10
    9a16:	00a37333          	and	t1,t1,a0
    9a1a:	9f36                	add	t5,t5,a3
    9a1c:	971a                	add	a4,a4,t1
    9a1e:	17e7fa63          	bgeu	a5,t5,9b92 <__divdf3+0x56c>
    9a22:	97c6                	add	a5,a5,a7
    9a24:	fff58693          	addi	a3,a1,-1
    9a28:	2d17e263          	bltu	a5,a7,9cec <__divdf3+0x6c6>
    9a2c:	27e7eb63          	bltu	a5,t5,9ca2 <__divdf3+0x67c>
    9a30:	35e78a63          	beq	a5,t5,9d84 <__divdf3+0x75e>
    9a34:	85b6                	mv	a1,a3
    9a36:	0015e593          	ori	a1,a1,1
    9a3a:	bbc5                	j	982a <__divdf3+0x204>
    9a3c:	8526                	mv	a0,s1
    9a3e:	753010ef          	jal	ra,b990 <__clzsi2>
    9a42:	01550713          	addi	a4,a0,21 # 10015 <_data_lma+0x347d>
    9a46:	45f1                	li	a1,28
    9a48:	02050993          	addi	s3,a0,32
    9a4c:	4622                	lw	a2,8(sp)
    9a4e:	46b2                	lw	a3,12(sp)
    9a50:	cee5dee3          	bge	a1,a4,974c <__divdf3+0x126>
    9a54:	ff850413          	addi	s0,a0,-8
    9a58:	00849bb3          	sll	s7,s1,s0
    9a5c:	4c01                	li	s8,0
    9a5e:	b321                	j	9766 <__divdf3+0x140>
    9a60:	8532                	mv	a0,a2
    9a62:	c432                	sw	a2,8(sp)
    9a64:	72d010ef          	jal	ra,b990 <__clzsi2>
    9a68:	01550713          	addi	a4,a0,21
    9a6c:	46f1                	li	a3,28
    9a6e:	87aa                	mv	a5,a0
    9a70:	4622                	lw	a2,8(sp)
    9a72:	02050513          	addi	a0,a0,32
    9a76:	c8e6dbe3          	bge	a3,a4,970c <__divdf3+0xe6>
    9a7a:	ff878413          	addi	s0,a5,-8 # fefffff8 <_eusrstack+0xdeff7ff8>
    9a7e:	4581                	li	a1,0
    9a80:	00861433          	sll	s0,a2,s0
    9a84:	b979                	j	9722 <__divdf3+0xfc>
    9a86:	eeec72e3          	bgeu	s8,a4,996a <__divdf3+0x344>
    9a8a:	9c76                	add	s8,s8,t4
    9a8c:	01dc35b3          	sltu	a1,s8,t4
    9a90:	95c6                	add	a1,a1,a7
    9a92:	97ae                	add	a5,a5,a1
    9a94:	fff40593          	addi	a1,s0,-1
    9a98:	10f8f263          	bgeu	a7,a5,9b9c <__divdf3+0x576>
    9a9c:	18c7e863          	bltu	a5,a2,9c2c <__divdf3+0x606>
    9aa0:	18f60463          	beq	a2,a5,9c28 <__divdf3+0x602>
    9aa4:	842e                	mv	s0,a1
    9aa6:	b5d1                	j	996a <__divdf3+0x344>
    9aa8:	debc68e3          	bltu	s8,a1,9898 <__divdf3+0x272>
    9aac:	01fb9713          	slli	a4,s7,0x1f
    9ab0:	001c5793          	srli	a5,s8,0x1
    9ab4:	001bdb93          	srli	s7,s7,0x1
    9ab8:	8fd9                	or	a5,a5,a4
    9aba:	0c7e                	slli	s8,s8,0x1f
    9abc:	b3cd                	j	989e <__divdf3+0x278>
    9abe:	86c2                	mv	a3,a6
    9ac0:	e635                	bnez	a2,9b2c <__divdf3+0x506>
    9ac2:	0075f613          	andi	a2,a1,7
    9ac6:	88a2                	mv	a7,s0
    9ac8:	24061263          	bnez	a2,9d0c <__divdf3+0x6e6>
    9acc:	8061                	srli	s0,s0,0x18
    9ace:	00144413          	xori	s0,s0,1
    9ad2:	00147613          	andi	a2,s0,1
    9ad6:	4785                	li	a5,1
    9ad8:	41e98513          	addi	a0,s3,1054
    9adc:	00a89733          	sll	a4,a7,a0
    9ae0:	00f5d433          	srl	s0,a1,a5
    9ae4:	00a595b3          	sll	a1,a1,a0
    9ae8:	8c59                	or	s0,s0,a4
    9aea:	00b035b3          	snez	a1,a1
    9aee:	8c4d                	or	s0,s0,a1
    9af0:	00747593          	andi	a1,s0,7
    9af4:	00f8d733          	srl	a4,a7,a5
    9af8:	c999                	beqz	a1,9b0e <__divdf3+0x4e8>
    9afa:	4789                	li	a5,2
    9afc:	00196913          	ori	s2,s2,1
    9b00:	2efb0663          	beq	s6,a5,9dec <__divdf3+0x7c6>
    9b04:	478d                	li	a5,3
    9b06:	2cfb0863          	beq	s6,a5,9dd6 <__divdf3+0x7b0>
    9b0a:	280b0563          	beqz	s6,9d94 <__divdf3+0x76e>
    9b0e:	00871793          	slli	a5,a4,0x8
    9b12:	2207dd63          	bgez	a5,9d4c <__divdf3+0x726>
    9b16:	00196913          	ori	s2,s2,1
    9b1a:	4785                	li	a5,1
    9b1c:	d60602e3          	beqz	a2,9880 <__divdf3+0x25a>
    9b20:	4605                	li	a2,1
    9b22:	4781                	li	a5,0
    9b24:	4401                	li	s0,0
    9b26:	00296913          	ori	s2,s2,2
    9b2a:	a081                	j	9b6a <__divdf3+0x544>
    9b2c:	4785                	li	a5,1
    9b2e:	8f91                	sub	a5,a5,a2
    9b30:	03800713          	li	a4,56
    9b34:	08f75c63          	bge	a4,a5,9bcc <__divdf3+0x5a6>
    9b38:	8c4d                	or	s0,s0,a1
    9b3a:	14041663          	bnez	s0,9c86 <__divdf3+0x660>
    9b3e:	00296913          	ori	s2,s2,2
    9b42:	4601                	li	a2,0
    9b44:	4781                	li	a5,0
    9b46:	a015                	j	9b6a <__divdf3+0x544>
    9b48:	4789                	li	a5,2
    9b4a:	0cfb0c63          	beq	s6,a5,9c22 <__divdf3+0x5fc>
    9b4e:	478d                	li	a5,3
    9b50:	06fb0063          	beq	s6,a5,9bb0 <__divdf3+0x58a>
    9b54:	060b0063          	beqz	s6,9bb4 <__divdf3+0x58e>
    9b58:	00100437          	lui	s0,0x100
    9b5c:	fff40793          	addi	a5,s0,-1 # fffff <_data_lma+0xf3467>
    9b60:	7fe00613          	li	a2,2046
    9b64:	547d                	li	s0,-1
    9b66:	00596913          	ori	s2,s2,5
    9b6a:	00c79713          	slli	a4,a5,0xc
    9b6e:	8331                	srli	a4,a4,0xc
    9b70:	01461793          	slli	a5,a2,0x14
    9b74:	06fe                	slli	a3,a3,0x1f
    9b76:	8fd9                	or	a5,a5,a4
    9b78:	8fd5                	or	a5,a5,a3
    9b7a:	8522                	mv	a0,s0
    9b7c:	85be                	mv	a1,a5
    9b7e:	00192073          	csrs	fflags,s2
    9b82:	b1a5                	j	97ea <__divdf3+0x1c4>
    9b84:	4501                	li	a0,0
    9b86:	7ff805b7          	lui	a1,0x7ff80
    9b8a:	4941                	li	s2,16
    9b8c:	00192073          	csrs	fflags,s2
    9b90:	b9a9                	j	97ea <__divdf3+0x1c4>
    9b92:	ebe792e3          	bne	a5,t5,9a36 <__divdf3+0x410>
    9b96:	c8070ae3          	beqz	a4,982a <__divdf3+0x204>
    9b9a:	b561                	j	9a22 <__divdf3+0x3fc>
    9b9c:	f0f894e3          	bne	a7,a5,9aa4 <__divdf3+0x47e>
    9ba0:	efdc7ee3          	bgeu	s8,t4,9a9c <__divdf3+0x476>
    9ba4:	842e                	mv	s0,a1
    9ba6:	b3d1                	j	996a <__divdf3+0x344>
    9ba8:	853a                	mv	a0,a4
    9baa:	b39d                	j	9910 <__divdf3+0x2ea>
    9bac:	842e                	mv	s0,a1
    9bae:	bb1d                	j	98e4 <__divdf3+0x2be>
    9bb0:	fa0814e3          	bnez	a6,9b58 <__divdf3+0x532>
    9bb4:	7ff00613          	li	a2,2047
    9bb8:	4781                	li	a5,0
    9bba:	4401                	li	s0,0
    9bbc:	b76d                	j	9b66 <__divdf3+0x540>
    9bbe:	4785                	li	a5,1
    9bc0:	8f91                	sub	a5,a5,a2
    9bc2:	03800713          	li	a4,56
    9bc6:	0cf74063          	blt	a4,a5,9c86 <__divdf3+0x660>
    9bca:	55fd                	li	a1,-1
    9bcc:	477d                	li	a4,31
    9bce:	22f75e63          	bge	a4,a5,9e0a <__divdf3+0x7e4>
    9bd2:	5705                	li	a4,-31
    9bd4:	8f11                	sub	a4,a4,a2
    9bd6:	02000613          	li	a2,32
    9bda:	00e45733          	srl	a4,s0,a4
    9bde:	00c78763          	beq	a5,a2,9bec <__divdf3+0x5c6>
    9be2:	43e98513          	addi	a0,s3,1086
    9be6:	00a41433          	sll	s0,s0,a0
    9bea:	8dc1                	or	a1,a1,s0
    9bec:	00b03433          	snez	s0,a1
    9bf0:	8c59                	or	s0,s0,a4
    9bf2:	00747793          	andi	a5,s0,7
    9bf6:	cb99                	beqz	a5,9c0c <__divdf3+0x5e6>
    9bf8:	4789                	li	a5,2
    9bfa:	00196913          	ori	s2,s2,1
    9bfe:	1efb0563          	beq	s6,a5,9de8 <__divdf3+0x7c2>
    9c02:	478d                	li	a5,3
    9c04:	1cfb0763          	beq	s6,a5,9dd2 <__divdf3+0x7ac>
    9c08:	180b0463          	beqz	s6,9d90 <__divdf3+0x76a>
    9c0c:	800d                	srli	s0,s0,0x3
    9c0e:	4781                	li	a5,0
    9c10:	00197613          	andi	a2,s2,1
    9c14:	4701                	li	a4,0
    9c16:	bc0600e3          	beqz	a2,97d6 <__divdf3+0x1b0>
    9c1a:	4601                	li	a2,0
    9c1c:	00296913          	ori	s2,s2,2
    9c20:	b7a9                	j	9b6a <__divdf3+0x544>
    9c22:	f2080be3          	beqz	a6,9b58 <__divdf3+0x532>
    9c26:	b779                	j	9bb4 <__divdf3+0x58e>
    9c28:	e6ec7ee3          	bgeu	s8,a4,9aa4 <__divdf3+0x47e>
    9c2c:	9c76                	add	s8,s8,t4
    9c2e:	01dc35b3          	sltu	a1,s8,t4
    9c32:	95c6                	add	a1,a1,a7
    9c34:	1479                	addi	s0,s0,-2
    9c36:	97ae                	add	a5,a5,a1
    9c38:	bb0d                	j	996a <__divdf3+0x344>
    9c3a:	08c05363          	blez	a2,9cc0 <__divdf3+0x69a>
    9c3e:	4789                	li	a5,2
    9c40:	00196913          	ori	s2,s2,1
    9c44:	0afb0e63          	beq	s6,a5,9d00 <__divdf3+0x6da>
    9c48:	478d                	li	a5,3
    9c4a:	0afb0563          	beq	s6,a5,9cf4 <__divdf3+0x6ce>
    9c4e:	0e0b0b63          	beqz	s6,9d44 <__divdf3+0x71e>
    9c52:	200005b7          	lui	a1,0x20000
    9c56:	15fd                	addi	a1,a1,-1
    9c58:	b6cd                	j	983a <__divdf3+0x214>
    9c5a:	4789                	li	a5,2
    9c5c:	00196913          	ori	s2,s2,1
    9c60:	0afb0163          	beq	s6,a5,9d02 <__divdf3+0x6dc>
    9c64:	478d                	li	a5,3
    9c66:	08fb0863          	beq	s6,a5,9cf6 <__divdf3+0x6d0>
    9c6a:	bc0b16e3          	bnez	s6,9836 <__divdf3+0x210>
    9c6e:	00f5f793          	andi	a5,a1,15
    9c72:	4711                	li	a4,4
    9c74:	86c2                	mv	a3,a6
    9c76:	16e79e63          	bne	a5,a4,9df2 <__divdf3+0x7cc>
    9c7a:	818d                	srli	a1,a1,0x3
    9c7c:	be7d                	j	983a <__divdf3+0x214>
    9c7e:	85b6                	mv	a1,a3
    9c80:	b32d                	j	99aa <__divdf3+0x384>
    9c82:	86ba                	mv	a3,a4
    9c84:	bb91                	j	99d8 <__divdf3+0x3b2>
    9c86:	4789                	li	a5,2
    9c88:	00196913          	ori	s2,s2,1
    9c8c:	01003433          	snez	s0,a6
    9c90:	eafb07e3          	beq	s6,a5,9b3e <__divdf3+0x518>
    9c94:	478d                	li	a5,3
    9c96:	4401                	li	s0,0
    9c98:	eafb13e3          	bne	s6,a5,9b3e <__divdf3+0x518>
    9c9c:	00183413          	seqz	s0,a6
    9ca0:	bd79                	j	9b3e <__divdf3+0x518>
    9ca2:	001e9693          	slli	a3,t4,0x1
    9ca6:	01d6beb3          	sltu	t4,a3,t4
    9caa:	98f6                	add	a7,a7,t4
    9cac:	97c6                	add	a5,a5,a7
    9cae:	15f9                	addi	a1,a1,-2
    9cb0:	8eb6                	mv	t4,a3
    9cb2:	d9e792e3          	bne	a5,t5,9a36 <__divdf3+0x410>
    9cb6:	b7d70ae3          	beq	a4,t4,982a <__divdf3+0x204>
    9cba:	0015e593          	ori	a1,a1,1
    9cbe:	b6b5                	j	982a <__divdf3+0x204>
    9cc0:	ee061fe3          	bnez	a2,9bbe <__divdf3+0x598>
    9cc4:	4789                	li	a5,2
    9cc6:	00196913          	ori	s2,s2,1
    9cca:	0efb0d63          	beq	s6,a5,9dc4 <__divdf3+0x79e>
    9cce:	478d                	li	a5,3
    9cd0:	0cfb0e63          	beq	s6,a5,9dac <__divdf3+0x786>
    9cd4:	120b0763          	beqz	s6,9e02 <__divdf3+0x7dc>
    9cd8:	88a2                	mv	a7,s0
    9cda:	55fd                	li	a1,-1
    9cdc:	c0100993          	li	s3,-1023
    9ce0:	b3f5                	j	9acc <__divdf3+0x4a6>
    9ce2:	86c2                	mv	a3,a6
    9ce4:	4701                	li	a4,0
    9ce6:	4781                	li	a5,0
    9ce8:	4401                	li	s0,0
    9cea:	b4f5                	j	97d6 <__divdf3+0x1b0>
    9cec:	85b6                	mv	a1,a3
    9cee:	fde784e3          	beq	a5,t5,9cb6 <__divdf3+0x690>
    9cf2:	b391                	j	9a36 <__divdf3+0x410>
    9cf4:	55fd                	li	a1,-1
    9cf6:	06080e63          	beqz	a6,9d72 <__divdf3+0x74c>
    9cfa:	818d                	srli	a1,a1,0x3
    9cfc:	4685                	li	a3,1
    9cfe:	be35                	j	983a <__divdf3+0x214>
    9d00:	55fd                	li	a1,-1
    9d02:	04081f63          	bnez	a6,9d60 <__divdf3+0x73a>
    9d06:	818d                	srli	a1,a1,0x3
    9d08:	4681                	li	a3,0
    9d0a:	be05                	j	983a <__divdf3+0x214>
    9d0c:	4789                	li	a5,2
    9d0e:	00196913          	ori	s2,s2,1
    9d12:	0afb0d63          	beq	s6,a5,9dcc <__divdf3+0x7a6>
    9d16:	478d                	li	a5,3
    9d18:	08fb0d63          	beq	s6,a5,9db2 <__divdf3+0x78c>
    9d1c:	da0b18e3          	bnez	s6,9acc <__divdf3+0x4a6>
    9d20:	00f5f793          	andi	a5,a1,15
    9d24:	4711                	li	a4,4
    9d26:	dae783e3          	beq	a5,a4,9acc <__divdf3+0x4a6>
    9d2a:	ffc5b793          	sltiu	a5,a1,-4
    9d2e:	0017c793          	xori	a5,a5,1
    9d32:	88a2                	mv	a7,s0
    9d34:	943e                	add	s0,s0,a5
    9d36:	bb59                	j	9acc <__divdf3+0x4a6>
    9d38:	86c2                	mv	a3,a6
    9d3a:	7ff00713          	li	a4,2047
    9d3e:	4781                	li	a5,0
    9d40:	4401                	li	s0,0
    9d42:	bc51                	j	97d6 <__divdf3+0x1b0>
    9d44:	4785                	li	a5,1
    9d46:	4581                	li	a1,0
    9d48:	943e                	add	s0,s0,a5
    9d4a:	bcc5                	j	983a <__divdf3+0x214>
    9d4c:	00971793          	slli	a5,a4,0x9
    9d50:	800d                	srli	s0,s0,0x3
    9d52:	0776                	slli	a4,a4,0x1d
    9d54:	83b1                	srli	a5,a5,0xc
    9d56:	8c59                	or	s0,s0,a4
    9d58:	ea061ce3          	bnez	a2,9c10 <__divdf3+0x5ea>
    9d5c:	4701                	li	a4,0
    9d5e:	bca5                	j	97d6 <__divdf3+0x1b0>
    9d60:	00858793          	addi	a5,a1,8 # 20000008 <_data_vma+0x8>
    9d64:	00b7b5b3          	sltu	a1,a5,a1
    9d68:	942e                	add	s0,s0,a1
    9d6a:	4685                	li	a3,1
    9d6c:	0037d593          	srli	a1,a5,0x3
    9d70:	b4e9                	j	983a <__divdf3+0x214>
    9d72:	00858793          	addi	a5,a1,8
    9d76:	00b7b5b3          	sltu	a1,a5,a1
    9d7a:	942e                	add	s0,s0,a1
    9d7c:	4681                	li	a3,0
    9d7e:	0037d593          	srli	a1,a5,0x3
    9d82:	bc65                	j	983a <__divdf3+0x214>
    9d84:	f0eeefe3          	bltu	t4,a4,9ca2 <__divdf3+0x67c>
    9d88:	85b6                	mv	a1,a3
    9d8a:	f3d718e3          	bne	a4,t4,9cba <__divdf3+0x694>
    9d8e:	bc71                	j	982a <__divdf3+0x204>
    9d90:	4605                	li	a2,1
    9d92:	4701                	li	a4,0
    9d94:	00f47793          	andi	a5,s0,15
    9d98:	4591                	li	a1,4
    9d9a:	d6b78ae3          	beq	a5,a1,9b0e <__divdf3+0x4e8>
    9d9e:	00440793          	addi	a5,s0,4
    9da2:	0087b433          	sltu	s0,a5,s0
    9da6:	9722                	add	a4,a4,s0
    9da8:	843e                	mv	s0,a5
    9daa:	b395                	j	9b0e <__divdf3+0x4e8>
    9dac:	55fd                	li	a1,-1
    9dae:	c0100993          	li	s3,-1023
    9db2:	88a2                	mv	a7,s0
    9db4:	d0081ce3          	bnez	a6,9acc <__divdf3+0x4a6>
    9db8:	ff85b793          	sltiu	a5,a1,-8
    9dbc:	0017c793          	xori	a5,a5,1
    9dc0:	943e                	add	s0,s0,a5
    9dc2:	b329                	j	9acc <__divdf3+0x4a6>
    9dc4:	88a2                	mv	a7,s0
    9dc6:	55fd                	li	a1,-1
    9dc8:	c0100993          	li	s3,-1023
    9dcc:	d00800e3          	beqz	a6,9acc <__divdf3+0x4a6>
    9dd0:	b7e5                	j	9db8 <__divdf3+0x792>
    9dd2:	4605                	li	a2,1
    9dd4:	4701                	li	a4,0
    9dd6:	d2081ce3          	bnez	a6,9b0e <__divdf3+0x4e8>
    9dda:	00840793          	addi	a5,s0,8
    9dde:	0087b433          	sltu	s0,a5,s0
    9de2:	9722                	add	a4,a4,s0
    9de4:	843e                	mv	s0,a5
    9de6:	b325                	j	9b0e <__divdf3+0x4e8>
    9de8:	4605                	li	a2,1
    9dea:	4701                	li	a4,0
    9dec:	d20801e3          	beqz	a6,9b0e <__divdf3+0x4e8>
    9df0:	b7ed                	j	9dda <__divdf3+0x7b4>
    9df2:	ffc5b793          	sltiu	a5,a1,-4
    9df6:	0017c793          	xori	a5,a5,1
    9dfa:	0591                	addi	a1,a1,4
    9dfc:	818d                	srli	a1,a1,0x3
    9dfe:	943e                	add	s0,s0,a5
    9e00:	bc2d                	j	983a <__divdf3+0x214>
    9e02:	55fd                	li	a1,-1
    9e04:	c0100993          	li	s3,-1023
    9e08:	b70d                	j	9d2a <__divdf3+0x704>
    9e0a:	88a2                	mv	a7,s0
    9e0c:	4605                	li	a2,1
    9e0e:	b1e9                	j	9ad8 <__divdf3+0x4b2>

00009e10 <__eqdf2>:
    9e10:	002027f3          	frrm	a5
    9e14:	001007b7          	lui	a5,0x100
    9e18:	0145d713          	srli	a4,a1,0x14
    9e1c:	17fd                	addi	a5,a5,-1
    9e1e:	0146d813          	srli	a6,a3,0x14
    9e22:	7ff77713          	andi	a4,a4,2047
    9e26:	7ff00893          	li	a7,2047
    9e2a:	00b7f333          	and	t1,a5,a1
    9e2e:	8eaa                	mv	t4,a0
    9e30:	8ff5                	and	a5,a5,a3
    9e32:	81fd                	srli	a1,a1,0x1f
    9e34:	8e32                	mv	t3,a2
    9e36:	7ff87813          	andi	a6,a6,2047
    9e3a:	82fd                	srli	a3,a3,0x1f
    9e3c:	01170c63          	beq	a4,a7,9e54 <__eqdf2+0x44>
    9e40:	01180663          	beq	a6,a7,9e4c <__eqdf2+0x3c>
    9e44:	4505                	li	a0,1
    9e46:	01070f63          	beq	a4,a6,9e64 <__eqdf2+0x54>
    9e4a:	8082                	ret
    9e4c:	8e5d                	or	a2,a2,a5
    9e4e:	e631                	bnez	a2,9e9a <__eqdf2+0x8a>
    9e50:	4505                	li	a0,1
    9e52:	8082                	ret
    9e54:	00a36533          	or	a0,t1,a0
    9e58:	e50d                	bnez	a0,9e82 <__eqdf2+0x72>
    9e5a:	fee81be3          	bne	a6,a4,9e50 <__eqdf2+0x40>
    9e5e:	00c7e533          	or	a0,a5,a2
    9e62:	ed05                	bnez	a0,9e9a <__eqdf2+0x8a>
    9e64:	4505                	li	a0,1
    9e66:	fef312e3          	bne	t1,a5,9e4a <__eqdf2+0x3a>
    9e6a:	ffde10e3          	bne	t3,t4,9e4a <__eqdf2+0x3a>
    9e6e:	4501                	li	a0,0
    9e70:	fcd58de3          	beq	a1,a3,9e4a <__eqdf2+0x3a>
    9e74:	4505                	li	a0,1
    9e76:	fb71                	bnez	a4,9e4a <__eqdf2+0x3a>
    9e78:	00c36633          	or	a2,t1,a2
    9e7c:	00c03533          	snez	a0,a2
    9e80:	8082                	ret
    9e82:	00c31693          	slli	a3,t1,0xc
    9e86:	0006c563          	bltz	a3,9e90 <__eqdf2+0x80>
    9e8a:	00186073          	csrsi	fflags,16
    9e8e:	b7c9                	j	9e50 <__eqdf2+0x40>
    9e90:	4505                	li	a0,1
    9e92:	fae81ce3          	bne	a6,a4,9e4a <__eqdf2+0x3a>
    9e96:	8e5d                	or	a2,a2,a5
    9e98:	da4d                	beqz	a2,9e4a <__eqdf2+0x3a>
    9e9a:	00c79713          	slli	a4,a5,0xc
    9e9e:	fa0749e3          	bltz	a4,9e50 <__eqdf2+0x40>
    9ea2:	00186073          	csrsi	fflags,16
    9ea6:	b76d                	j	9e50 <__eqdf2+0x40>

00009ea8 <__gedf2>:
    9ea8:	002027f3          	frrm	a5
    9eac:	001007b7          	lui	a5,0x100
    9eb0:	0145d713          	srli	a4,a1,0x14
    9eb4:	17fd                	addi	a5,a5,-1
    9eb6:	0146d813          	srli	a6,a3,0x14
    9eba:	7ff77713          	andi	a4,a4,2047
    9ebe:	7ff00893          	li	a7,2047
    9ec2:	00b7f333          	and	t1,a5,a1
    9ec6:	8e2a                	mv	t3,a0
    9ec8:	8ff5                	and	a5,a5,a3
    9eca:	81fd                	srli	a1,a1,0x1f
    9ecc:	8eb2                	mv	t4,a2
    9ece:	7ff87813          	andi	a6,a6,2047
    9ed2:	82fd                	srli	a3,a3,0x1f
    9ed4:	03170a63          	beq	a4,a7,9f08 <__gedf2+0x60>
    9ed8:	03180063          	beq	a6,a7,9ef8 <__gedf2+0x50>
    9edc:	eb1d                	bnez	a4,9f12 <__gedf2+0x6a>
    9ede:	00a368b3          	or	a7,t1,a0
    9ee2:	00081463          	bnez	a6,9eea <__gedf2+0x42>
    9ee6:	8e5d                	or	a2,a2,a5
    9ee8:	ca39                	beqz	a2,9f3e <__gedf2+0x96>
    9eea:	04088763          	beqz	a7,9f38 <__gedf2+0x90>
    9eee:	02d58a63          	beq	a1,a3,9f22 <__gedf2+0x7a>
    9ef2:	4505                	li	a0,1
    9ef4:	e1a1                	bnez	a1,9f34 <__gedf2+0x8c>
    9ef6:	8082                	ret
    9ef8:	00c7e8b3          	or	a7,a5,a2
    9efc:	fe0880e3          	beqz	a7,9edc <__gedf2+0x34>
    9f00:	00186073          	csrsi	fflags,16
    9f04:	5579                	li	a0,-2
    9f06:	8082                	ret
    9f08:	00a36533          	or	a0,t1,a0
    9f0c:	f975                	bnez	a0,9f00 <__gedf2+0x58>
    9f0e:	02e80c63          	beq	a6,a4,9f46 <__gedf2+0x9e>
    9f12:	00081463          	bnez	a6,9f1a <__gedf2+0x72>
    9f16:	8e5d                	or	a2,a2,a5
    9f18:	de69                	beqz	a2,9ef2 <__gedf2+0x4a>
    9f1a:	fcd59ce3          	bne	a1,a3,9ef2 <__gedf2+0x4a>
    9f1e:	fce84ae3          	blt	a6,a4,9ef2 <__gedf2+0x4a>
    9f22:	01074863          	blt	a4,a6,9f32 <__gedf2+0x8a>
    9f26:	fc67e6e3          	bltu	a5,t1,9ef2 <__gedf2+0x4a>
    9f2a:	02f30363          	beq	t1,a5,9f50 <__gedf2+0xa8>
    9f2e:	00f37f63          	bgeu	t1,a5,9f4c <__gedf2+0xa4>
    9f32:	e581                	bnez	a1,9f3a <__gedf2+0x92>
    9f34:	557d                	li	a0,-1
    9f36:	8082                	ret
    9f38:	def5                	beqz	a3,9f34 <__gedf2+0x8c>
    9f3a:	4505                	li	a0,1
    9f3c:	8082                	ret
    9f3e:	4501                	li	a0,0
    9f40:	fa0899e3          	bnez	a7,9ef2 <__gedf2+0x4a>
    9f44:	8082                	ret
    9f46:	8e5d                	or	a2,a2,a5
    9f48:	da69                	beqz	a2,9f1a <__gedf2+0x72>
    9f4a:	bf5d                	j	9f00 <__gedf2+0x58>
    9f4c:	4501                	li	a0,0
    9f4e:	8082                	ret
    9f50:	fbcee1e3          	bltu	t4,t3,9ef2 <__gedf2+0x4a>
    9f54:	4501                	li	a0,0
    9f56:	fbde70e3          	bgeu	t3,t4,9ef6 <__gedf2+0x4e>
    9f5a:	f1e5                	bnez	a1,9f3a <__gedf2+0x92>
    9f5c:	bfe1                	j	9f34 <__gedf2+0x8c>

00009f5e <__ledf2>:
    9f5e:	002027f3          	frrm	a5
    9f62:	001007b7          	lui	a5,0x100
    9f66:	0145d713          	srli	a4,a1,0x14
    9f6a:	17fd                	addi	a5,a5,-1
    9f6c:	0146d813          	srli	a6,a3,0x14
    9f70:	7ff77713          	andi	a4,a4,2047
    9f74:	7ff00893          	li	a7,2047
    9f78:	00b7f333          	and	t1,a5,a1
    9f7c:	8e2a                	mv	t3,a0
    9f7e:	8ff5                	and	a5,a5,a3
    9f80:	81fd                	srli	a1,a1,0x1f
    9f82:	8eb2                	mv	t4,a2
    9f84:	7ff87813          	andi	a6,a6,2047
    9f88:	82fd                	srli	a3,a3,0x1f
    9f8a:	03170f63          	beq	a4,a7,9fc8 <__ledf2+0x6a>
    9f8e:	01180d63          	beq	a6,a7,9fa8 <__ledf2+0x4a>
    9f92:	e321                	bnez	a4,9fd2 <__ledf2+0x74>
    9f94:	00a368b3          	or	a7,t1,a0
    9f98:	02081063          	bnez	a6,9fb8 <__ledf2+0x5a>
    9f9c:	8e5d                	or	a2,a2,a5
    9f9e:	ee09                	bnez	a2,9fb8 <__ledf2+0x5a>
    9fa0:	4501                	li	a0,0
    9fa2:	00089f63          	bnez	a7,9fc0 <__ledf2+0x62>
    9fa6:	8082                	ret
    9fa8:	00c7e8b3          	or	a7,a5,a2
    9fac:	fe0883e3          	beqz	a7,9f92 <__ledf2+0x34>
    9fb0:	00186073          	csrsi	fflags,16
    9fb4:	4509                	li	a0,2
    9fb6:	8082                	ret
    9fb8:	02088f63          	beqz	a7,9ff6 <__ledf2+0x98>
    9fbc:	02d58363          	beq	a1,a3,9fe2 <__ledf2+0x84>
    9fc0:	4505                	li	a0,1
    9fc2:	d1f5                	beqz	a1,9fa6 <__ledf2+0x48>
    9fc4:	557d                	li	a0,-1
    9fc6:	8082                	ret
    9fc8:	00a36533          	or	a0,t1,a0
    9fcc:	f175                	bnez	a0,9fb0 <__ledf2+0x52>
    9fce:	02e80763          	beq	a6,a4,9ffc <__ledf2+0x9e>
    9fd2:	00081463          	bnez	a6,9fda <__ledf2+0x7c>
    9fd6:	8e5d                	or	a2,a2,a5
    9fd8:	d665                	beqz	a2,9fc0 <__ledf2+0x62>
    9fda:	fed593e3          	bne	a1,a3,9fc0 <__ledf2+0x62>
    9fde:	fee841e3          	blt	a6,a4,9fc0 <__ledf2+0x62>
    9fe2:	01074863          	blt	a4,a6,9ff2 <__ledf2+0x94>
    9fe6:	fc67ede3          	bltu	a5,t1,9fc0 <__ledf2+0x62>
    9fea:	00f30e63          	beq	t1,a5,a006 <__ledf2+0xa8>
    9fee:	00f37a63          	bgeu	t1,a5,a002 <__ledf2+0xa4>
    9ff2:	e199                	bnez	a1,9ff8 <__ledf2+0x9a>
    9ff4:	bfc1                	j	9fc4 <__ledf2+0x66>
    9ff6:	d6f9                	beqz	a3,9fc4 <__ledf2+0x66>
    9ff8:	4505                	li	a0,1
    9ffa:	8082                	ret
    9ffc:	8e5d                	or	a2,a2,a5
    9ffe:	de71                	beqz	a2,9fda <__ledf2+0x7c>
    a000:	bf45                	j	9fb0 <__ledf2+0x52>
    a002:	4501                	li	a0,0
    a004:	8082                	ret
    a006:	fbceede3          	bltu	t4,t3,9fc0 <__ledf2+0x62>
    a00a:	4501                	li	a0,0
    a00c:	f9de7de3          	bgeu	t3,t4,9fa6 <__ledf2+0x48>
    a010:	f5e5                	bnez	a1,9ff8 <__ledf2+0x9a>
    a012:	bf4d                	j	9fc4 <__ledf2+0x66>

0000a014 <__muldf3>:
    a014:	7139                	addi	sp,sp,-64
    a016:	d452                	sw	s4,40(sp)
    a018:	de06                	sw	ra,60(sp)
    a01a:	dc22                	sw	s0,56(sp)
    a01c:	da26                	sw	s1,52(sp)
    a01e:	d84a                	sw	s2,48(sp)
    a020:	d64e                	sw	s3,44(sp)
    a022:	d256                	sw	s5,36(sp)
    a024:	d05a                	sw	s6,32(sp)
    a026:	ce5e                	sw	s7,28(sp)
    a028:	cc62                	sw	s8,24(sp)
    a02a:	ca66                	sw	s9,20(sp)
    a02c:	8a2a                	mv	s4,a0
    a02e:	00202b73          	frrm	s6
    a032:	0145d913          	srli	s2,a1,0x14
    a036:	00c59993          	slli	s3,a1,0xc
    a03a:	7ff97913          	andi	s2,s2,2047
    a03e:	00c9d993          	srli	s3,s3,0xc
    a042:	01f5db93          	srli	s7,a1,0x1f
    a046:	12090e63          	beqz	s2,a182 <__muldf3+0x16e>
    a04a:	7ff00793          	li	a5,2047
    a04e:	16f90d63          	beq	s2,a5,a1c8 <__muldf3+0x1b4>
    a052:	01d55413          	srli	s0,a0,0x1d
    a056:	098e                	slli	s3,s3,0x3
    a058:	013469b3          	or	s3,s0,s3
    a05c:	00800437          	lui	s0,0x800
    a060:	0089e433          	or	s0,s3,s0
    a064:	00351493          	slli	s1,a0,0x3
    a068:	c0190913          	addi	s2,s2,-1023
    a06c:	4a01                	li	s4,0
    a06e:	4c81                	li	s9,0
    a070:	4a81                	li	s5,0
    a072:	0146d793          	srli	a5,a3,0x14
    a076:	00c69993          	slli	s3,a3,0xc
    a07a:	7ff7f793          	andi	a5,a5,2047
    a07e:	85b2                	mv	a1,a2
    a080:	00c9d993          	srli	s3,s3,0xc
    a084:	01f6dc13          	srli	s8,a3,0x1f
    a088:	cfd5                	beqz	a5,a144 <__muldf3+0x130>
    a08a:	7ff00713          	li	a4,2047
    a08e:	04e78463          	beq	a5,a4,a0d6 <__muldf3+0xc2>
    a092:	00399513          	slli	a0,s3,0x3
    a096:	01d65993          	srli	s3,a2,0x1d
    a09a:	00a9e9b3          	or	s3,s3,a0
    a09e:	c0178793          	addi	a5,a5,-1023 # ffc01 <_data_lma+0xf3069>
    a0a2:	00800537          	lui	a0,0x800
    a0a6:	00a9e9b3          	or	s3,s3,a0
    a0aa:	00361593          	slli	a1,a2,0x3
    a0ae:	993e                	add	s2,s2,a5
    a0b0:	4801                	li	a6,0
    a0b2:	018bc633          	xor	a2,s7,s8
    a0b6:	47bd                	li	a5,15
    a0b8:	86b2                	mv	a3,a2
    a0ba:	00190713          	addi	a4,s2,1
    a0be:	1747ef63          	bltu	a5,s4,a23c <__muldf3+0x228>
    a0c2:	00003517          	auipc	a0,0x3
    a0c6:	99650513          	addi	a0,a0,-1642 # ca58 <atanlo+0x64>
    a0ca:	0a0a                	slli	s4,s4,0x2
    a0cc:	9a2a                	add	s4,s4,a0
    a0ce:	000a2783          	lw	a5,0(s4)
    a0d2:	97aa                	add	a5,a5,a0
    a0d4:	8782                	jr	a5
    a0d6:	00c9e633          	or	a2,s3,a2
    a0da:	7ff90913          	addi	s2,s2,2047
    a0de:	12060863          	beqz	a2,a20e <__muldf3+0x1fa>
    a0e2:	00c99793          	slli	a5,s3,0xc
    a0e6:	003a6a13          	ori	s4,s4,3
    a0ea:	480d                	li	a6,3
    a0ec:	fc07c3e3          	bltz	a5,a0b2 <__muldf3+0x9e>
    a0f0:	4ac1                	li	s5,16
    a0f2:	b7c1                	j	a0b2 <__muldf3+0x9e>
    a0f4:	86e2                	mv	a3,s8
    a0f6:	844e                	mv	s0,s3
    a0f8:	84ae                	mv	s1,a1
    a0fa:	8cc2                	mv	s9,a6
    a0fc:	4789                	li	a5,2
    a0fe:	12fc8963          	beq	s9,a5,a230 <__muldf3+0x21c>
    a102:	478d                	li	a5,3
    a104:	10fc8b63          	beq	s9,a5,a21a <__muldf3+0x206>
    a108:	4785                	li	a5,1
    a10a:	8636                	mv	a2,a3
    a10c:	4cfc9263          	bne	s9,a5,a5d0 <__muldf3+0x5bc>
    a110:	4701                	li	a4,0
    a112:	4781                	li	a5,0
    a114:	4401                	li	s0,0
    a116:	07b2                	slli	a5,a5,0xc
    a118:	0752                	slli	a4,a4,0x14
    a11a:	83b1                	srli	a5,a5,0xc
    a11c:	067e                	slli	a2,a2,0x1f
    a11e:	8fd9                	or	a5,a5,a4
    a120:	8fd1                	or	a5,a5,a2
    a122:	8522                	mv	a0,s0
    a124:	85be                	mv	a1,a5
    a126:	340a9963          	bnez	s5,a478 <__muldf3+0x464>
    a12a:	50f2                	lw	ra,60(sp)
    a12c:	5462                	lw	s0,56(sp)
    a12e:	54d2                	lw	s1,52(sp)
    a130:	5942                	lw	s2,48(sp)
    a132:	59b2                	lw	s3,44(sp)
    a134:	5a22                	lw	s4,40(sp)
    a136:	5a92                	lw	s5,36(sp)
    a138:	5b02                	lw	s6,32(sp)
    a13a:	4bf2                	lw	s7,28(sp)
    a13c:	4c62                	lw	s8,24(sp)
    a13e:	4cd2                	lw	s9,20(sp)
    a140:	6121                	addi	sp,sp,64
    a142:	8082                	ret
    a144:	00c9e7b3          	or	a5,s3,a2
    a148:	cfcd                	beqz	a5,a202 <__muldf3+0x1ee>
    a14a:	34098a63          	beqz	s3,a49e <__muldf3+0x48a>
    a14e:	854e                	mv	a0,s3
    a150:	c432                	sw	a2,8(sp)
    a152:	03f010ef          	jal	ra,b990 <__clzsi2>
    a156:	4622                	lw	a2,8(sp)
    a158:	87aa                	mv	a5,a0
    a15a:	ff550693          	addi	a3,a0,-11
    a15e:	4775                	li	a4,29
    a160:	ff878593          	addi	a1,a5,-8
    a164:	8f15                	sub	a4,a4,a3
    a166:	00b999b3          	sll	s3,s3,a1
    a16a:	00e65733          	srl	a4,a2,a4
    a16e:	013769b3          	or	s3,a4,s3
    a172:	00b615b3          	sll	a1,a2,a1
    a176:	40f90933          	sub	s2,s2,a5
    a17a:	c0d90913          	addi	s2,s2,-1011
    a17e:	4801                	li	a6,0
    a180:	bf0d                	j	a0b2 <__muldf3+0x9e>
    a182:	00a9e433          	or	s0,s3,a0
    a186:	c825                	beqz	s0,a1f6 <__muldf3+0x1e2>
    a188:	c636                	sw	a3,12(sp)
    a18a:	c432                	sw	a2,8(sp)
    a18c:	2e098963          	beqz	s3,a47e <__muldf3+0x46a>
    a190:	854e                	mv	a0,s3
    a192:	7fe010ef          	jal	ra,b990 <__clzsi2>
    a196:	4622                	lw	a2,8(sp)
    a198:	46b2                	lw	a3,12(sp)
    a19a:	87aa                	mv	a5,a0
    a19c:	ff550713          	addi	a4,a0,-11
    a1a0:	4475                	li	s0,29
    a1a2:	ff878493          	addi	s1,a5,-8
    a1a6:	8c19                	sub	s0,s0,a4
    a1a8:	009999b3          	sll	s3,s3,s1
    a1ac:	008a5433          	srl	s0,s4,s0
    a1b0:	01346433          	or	s0,s0,s3
    a1b4:	009a14b3          	sll	s1,s4,s1
    a1b8:	c0d00913          	li	s2,-1011
    a1bc:	40f90933          	sub	s2,s2,a5
    a1c0:	4a01                	li	s4,0
    a1c2:	4c81                	li	s9,0
    a1c4:	4a81                	li	s5,0
    a1c6:	b575                	j	a072 <__muldf3+0x5e>
    a1c8:	00a9e433          	or	s0,s3,a0
    a1cc:	cc11                	beqz	s0,a1e8 <__muldf3+0x1d4>
    a1ce:	00c99793          	slli	a5,s3,0xc
    a1d2:	84aa                	mv	s1,a0
    a1d4:	844e                	mv	s0,s3
    a1d6:	4a31                	li	s4,12
    a1d8:	7ff00913          	li	s2,2047
    a1dc:	4c8d                	li	s9,3
    a1de:	4ac1                	li	s5,16
    a1e0:	e807d9e3          	bgez	a5,a072 <__muldf3+0x5e>
    a1e4:	4a81                	li	s5,0
    a1e6:	b571                	j	a072 <__muldf3+0x5e>
    a1e8:	4a21                	li	s4,8
    a1ea:	4481                	li	s1,0
    a1ec:	7ff00913          	li	s2,2047
    a1f0:	4c89                	li	s9,2
    a1f2:	4a81                	li	s5,0
    a1f4:	bdbd                	j	a072 <__muldf3+0x5e>
    a1f6:	4a11                	li	s4,4
    a1f8:	4481                	li	s1,0
    a1fa:	4901                	li	s2,0
    a1fc:	4c85                	li	s9,1
    a1fe:	4a81                	li	s5,0
    a200:	bd8d                	j	a072 <__muldf3+0x5e>
    a202:	001a6a13          	ori	s4,s4,1
    a206:	4981                	li	s3,0
    a208:	4581                	li	a1,0
    a20a:	4805                	li	a6,1
    a20c:	b55d                	j	a0b2 <__muldf3+0x9e>
    a20e:	002a6a13          	ori	s4,s4,2
    a212:	4981                	li	s3,0
    a214:	4581                	li	a1,0
    a216:	4809                	li	a6,2
    a218:	bd69                	j	a0b2 <__muldf3+0x9e>
    a21a:	4601                	li	a2,0
    a21c:	7ff00713          	li	a4,2047
    a220:	000807b7          	lui	a5,0x80
    a224:	4401                	li	s0,0
    a226:	bdc5                	j	a116 <__muldf3+0x102>
    a228:	4789                	li	a5,2
    a22a:	86de                	mv	a3,s7
    a22c:	ecfc9be3          	bne	s9,a5,a102 <__muldf3+0xee>
    a230:	8636                	mv	a2,a3
    a232:	7ff00713          	li	a4,2047
    a236:	4781                	li	a5,0
    a238:	4401                	li	s0,0
    a23a:	bdf1                	j	a116 <__muldf3+0x102>
    a23c:	6341                	lui	t1,0x10
    a23e:	fff30793          	addi	a5,t1,-1 # ffff <_data_lma+0x3467>
    a242:	0104d513          	srli	a0,s1,0x10
    a246:	0105de13          	srli	t3,a1,0x10
    a24a:	8cfd                	and	s1,s1,a5
    a24c:	8dfd                	and	a1,a1,a5
    a24e:	029587b3          	mul	a5,a1,s1
    a252:	02b508b3          	mul	a7,a0,a1
    a256:	0107d393          	srli	t2,a5,0x10
    a25a:	029e0833          	mul	a6,t3,s1
    a25e:	9846                	add	a6,a6,a7
    a260:	93c2                	add	t2,t2,a6
    a262:	03c50833          	mul	a6,a0,t3
    a266:	0113f363          	bgeu	t2,a7,a26c <__muldf3+0x258>
    a26a:	981a                	add	a6,a6,t1
    a26c:	6341                	lui	t1,0x10
    a26e:	fff30e93          	addi	t4,t1,-1 # ffff <_data_lma+0x3467>
    a272:	0109d293          	srli	t0,s3,0x10
    a276:	01d9f9b3          	and	s3,s3,t4
    a27a:	01d3f8b3          	and	a7,t2,t4
    a27e:	01d7f7b3          	and	a5,a5,t4
    a282:	08c2                	slli	a7,a7,0x10
    a284:	03348eb3          	mul	t4,s1,s3
    a288:	98be                	add	a7,a7,a5
    a28a:	0103d393          	srli	t2,t2,0x10
    a28e:	03350fb3          	mul	t6,a0,s3
    a292:	010edf13          	srli	t5,t4,0x10
    a296:	029284b3          	mul	s1,t0,s1
    a29a:	94fe                	add	s1,s1,t6
    a29c:	94fa                	add	s1,s1,t5
    a29e:	025507b3          	mul	a5,a0,t0
    a2a2:	01f4f363          	bgeu	s1,t6,a2a8 <__muldf3+0x294>
    a2a6:	979a                	add	a5,a5,t1
    a2a8:	6341                	lui	t1,0x10
    a2aa:	fff30b93          	addi	s7,t1,-1 # ffff <_data_lma+0x3467>
    a2ae:	01045a13          	srli	s4,s0,0x10
    a2b2:	01747533          	and	a0,s0,s7
    a2b6:	0174ffb3          	and	t6,s1,s7
    a2ba:	80c1                	srli	s1,s1,0x10
    a2bc:	00f48f33          	add	t5,s1,a5
    a2c0:	02a58433          	mul	s0,a1,a0
    a2c4:	017efeb3          	and	t4,t4,s7
    a2c8:	0fc2                	slli	t6,t6,0x10
    a2ca:	9ff6                	add	t6,t6,t4
    a2cc:	93fe                	add	t2,t2,t6
    a2ce:	02ae07b3          	mul	a5,t3,a0
    a2d2:	01045e93          	srli	t4,s0,0x10
    a2d6:	02ba05b3          	mul	a1,s4,a1
    a2da:	97ae                	add	a5,a5,a1
    a2dc:	9ebe                	add	t4,t4,a5
    a2de:	034e0e33          	mul	t3,t3,s4
    a2e2:	00bef363          	bgeu	t4,a1,a2e8 <__muldf3+0x2d4>
    a2e6:	9e1a                	add	t3,t3,t1
    a2e8:	67c1                	lui	a5,0x10
    a2ea:	fff78593          	addi	a1,a5,-1 # ffff <_data_lma+0x3467>
    a2ee:	00bef333          	and	t1,t4,a1
    a2f2:	8c6d                	and	s0,s0,a1
    a2f4:	0342                	slli	t1,t1,0x10
    a2f6:	9322                	add	t1,t1,s0
    a2f8:	010ede93          	srli	t4,t4,0x10
    a2fc:	033505b3          	mul	a1,a0,s3
    a300:	9e76                	add	t3,t3,t4
    a302:	02a28533          	mul	a0,t0,a0
    a306:	0105d413          	srli	s0,a1,0x10
    a30a:	033a09b3          	mul	s3,s4,s3
    a30e:	954e                	add	a0,a0,s3
    a310:	9522                	add	a0,a0,s0
    a312:	034282b3          	mul	t0,t0,s4
    a316:	01357363          	bgeu	a0,s3,a31c <__muldf3+0x308>
    a31a:	92be                	add	t0,t0,a5
    a31c:	6ec1                	lui	t4,0x10
    a31e:	1efd                	addi	t4,t4,-1
    a320:	01d577b3          	and	a5,a0,t4
    a324:	07c2                	slli	a5,a5,0x10
    a326:	01d5feb3          	and	t4,a1,t4
    a32a:	97f6                	add	a5,a5,t4
    a32c:	007805b3          	add	a1,a6,t2
    a330:	01f5bfb3          	sltu	t6,a1,t6
    a334:	97fa                	add	a5,a5,t5
    a336:	959a                	add	a1,a1,t1
    a338:	01f78433          	add	s0,a5,t6
    a33c:	0065b833          	sltu	a6,a1,t1
    a340:	01c40eb3          	add	t4,s0,t3
    a344:	010e8333          	add	t1,t4,a6
    a348:	01f43433          	sltu	s0,s0,t6
    a34c:	01e7b7b3          	sltu	a5,a5,t5
    a350:	8fc1                	or	a5,a5,s0
    a352:	01033833          	sltu	a6,t1,a6
    a356:	01055413          	srli	s0,a0,0x10
    a35a:	01cebe33          	sltu	t3,t4,t3
    a35e:	943e                	add	s0,s0,a5
    a360:	010e6833          	or	a6,t3,a6
    a364:	9442                	add	s0,s0,a6
    a366:	00959493          	slli	s1,a1,0x9
    a36a:	9416                	add	s0,s0,t0
    a36c:	01735513          	srli	a0,t1,0x17
    a370:	0114e4b3          	or	s1,s1,a7
    a374:	0426                	slli	s0,s0,0x9
    a376:	009034b3          	snez	s1,s1
    a37a:	81dd                	srli	a1,a1,0x17
    a37c:	8c49                	or	s0,s0,a0
    a37e:	8ccd                	or	s1,s1,a1
    a380:	0326                	slli	t1,t1,0x9
    a382:	00741793          	slli	a5,s0,0x7
    a386:	0064e4b3          	or	s1,s1,t1
    a38a:	0007db63          	bgez	a5,a3a0 <__muldf3+0x38c>
    a38e:	0014d793          	srli	a5,s1,0x1
    a392:	8885                	andi	s1,s1,1
    a394:	01f41593          	slli	a1,s0,0x1f
    a398:	8cdd                	or	s1,s1,a5
    a39a:	8ccd                	or	s1,s1,a1
    a39c:	8005                	srli	s0,s0,0x1
    a39e:	893a                	mv	s2,a4
    a3a0:	3ff90713          	addi	a4,s2,1023
    a3a4:	04e05963          	blez	a4,a3f6 <__muldf3+0x3e2>
    a3a8:	0074f793          	andi	a5,s1,7
    a3ac:	cb99                	beqz	a5,a3c2 <__muldf3+0x3ae>
    a3ae:	4789                	li	a5,2
    a3b0:	001aea93          	ori	s5,s5,1
    a3b4:	20fb0b63          	beq	s6,a5,a5ca <__muldf3+0x5b6>
    a3b8:	478d                	li	a5,3
    a3ba:	1efb0d63          	beq	s6,a5,a5b4 <__muldf3+0x5a0>
    a3be:	1c0b0f63          	beqz	s6,a59c <__muldf3+0x588>
    a3c2:	00741793          	slli	a5,s0,0x7
    a3c6:	0007d863          	bgez	a5,a3d6 <__muldf3+0x3c2>
    a3ca:	ff0007b7          	lui	a5,0xff000
    a3ce:	17fd                	addi	a5,a5,-1
    a3d0:	8c7d                	and	s0,s0,a5
    a3d2:	40090713          	addi	a4,s2,1024
    a3d6:	7fe00793          	li	a5,2046
    a3da:	10e7c963          	blt	a5,a4,a4ec <__muldf3+0x4d8>
    a3de:	0034d693          	srli	a3,s1,0x3
    a3e2:	00941793          	slli	a5,s0,0x9
    a3e6:	01d41493          	slli	s1,s0,0x1d
    a3ea:	00d4e433          	or	s0,s1,a3
    a3ee:	83b1                	srli	a5,a5,0xc
    a3f0:	7ff77713          	andi	a4,a4,2047
    a3f4:	b30d                	j	a116 <__muldf3+0x102>
    a3f6:	4785                	li	a5,1
    a3f8:	8f99                	sub	a5,a5,a4
    a3fa:	e379                	bnez	a4,a4c0 <__muldf3+0x4ac>
    a3fc:	0074f593          	andi	a1,s1,7
    a400:	8722                	mv	a4,s0
    a402:	cd81                	beqz	a1,a41a <__muldf3+0x406>
    a404:	4709                	li	a4,2
    a406:	001aea93          	ori	s5,s5,1
    a40a:	20eb0963          	beq	s6,a4,a61c <__muldf3+0x608>
    a40e:	470d                	li	a4,3
    a410:	1eeb0d63          	beq	s6,a4,a60a <__muldf3+0x5f6>
    a414:	8722                	mv	a4,s0
    a416:	1c0b0f63          	beqz	s6,a5f4 <__muldf3+0x5e0>
    a41a:	8361                	srli	a4,a4,0x18
    a41c:	00174713          	xori	a4,a4,1
    a420:	00177593          	andi	a1,a4,1
    a424:	41e90913          	addi	s2,s2,1054
    a428:	01249733          	sll	a4,s1,s2
    a42c:	01241933          	sll	s2,s0,s2
    a430:	00f4d4b3          	srl	s1,s1,a5
    a434:	00e03733          	snez	a4,a4
    a438:	009964b3          	or	s1,s2,s1
    a43c:	8cd9                	or	s1,s1,a4
    a43e:	0074f513          	andi	a0,s1,7
    a442:	00f45733          	srl	a4,s0,a5
    a446:	c919                	beqz	a0,a45c <__muldf3+0x448>
    a448:	4789                	li	a5,2
    a44a:	001aea93          	ori	s5,s5,1
    a44e:	1efb0863          	beq	s6,a5,a63e <__muldf3+0x62a>
    a452:	478d                	li	a5,3
    a454:	1cfb0a63          	beq	s6,a5,a628 <__muldf3+0x614>
    a458:	1e0b0863          	beqz	s6,a648 <__muldf3+0x634>
    a45c:	00871793          	slli	a5,a4,0x8
    a460:	1807d063          	bgez	a5,a5e0 <__muldf3+0x5cc>
    a464:	001aea93          	ori	s5,s5,1
    a468:	16059663          	bnez	a1,a5d4 <__muldf3+0x5c0>
    a46c:	067e                	slli	a2,a2,0x1f
    a46e:	001007b7          	lui	a5,0x100
    a472:	8fd1                	or	a5,a5,a2
    a474:	4501                	li	a0,0
    a476:	85be                	mv	a1,a5
    a478:	001aa073          	csrs	fflags,s5
    a47c:	b17d                	j	a12a <__muldf3+0x116>
    a47e:	512010ef          	jal	ra,b990 <__clzsi2>
    a482:	01550713          	addi	a4,a0,21
    a486:	45f1                	li	a1,28
    a488:	02050793          	addi	a5,a0,32
    a48c:	4622                	lw	a2,8(sp)
    a48e:	46b2                	lw	a3,12(sp)
    a490:	d0e5d8e3          	bge	a1,a4,a1a0 <__muldf3+0x18c>
    a494:	1561                	addi	a0,a0,-8
    a496:	00aa1433          	sll	s0,s4,a0
    a49a:	4481                	li	s1,0
    a49c:	bb31                	j	a1b8 <__muldf3+0x1a4>
    a49e:	8532                	mv	a0,a2
    a4a0:	c432                	sw	a2,8(sp)
    a4a2:	4ee010ef          	jal	ra,b990 <__clzsi2>
    a4a6:	01550693          	addi	a3,a0,21
    a4aa:	4771                	li	a4,28
    a4ac:	02050793          	addi	a5,a0,32
    a4b0:	4622                	lw	a2,8(sp)
    a4b2:	cad756e3          	bge	a4,a3,a15e <__muldf3+0x14a>
    a4b6:	1561                	addi	a0,a0,-8
    a4b8:	4581                	li	a1,0
    a4ba:	00a619b3          	sll	s3,a2,a0
    a4be:	b965                	j	a176 <__muldf3+0x162>
    a4c0:	03800593          	li	a1,56
    a4c4:	06f5d963          	bge	a1,a5,a536 <__muldf3+0x522>
    a4c8:	8c45                	or	s0,s0,s1
    a4ca:	cc01                	beqz	s0,a4e2 <__muldf3+0x4ce>
    a4cc:	4789                	li	a5,2
    a4ce:	001aea93          	ori	s5,s5,1
    a4d2:	00d03433          	snez	s0,a3
    a4d6:	00fb0663          	beq	s6,a5,a4e2 <__muldf3+0x4ce>
    a4da:	478d                	li	a5,3
    a4dc:	4401                	li	s0,0
    a4de:	18fb0163          	beq	s6,a5,a660 <__muldf3+0x64c>
    a4e2:	002aea93          	ori	s5,s5,2
    a4e6:	4681                	li	a3,0
    a4e8:	4781                	li	a5,0
    a4ea:	a015                	j	a50e <__muldf3+0x4fa>
    a4ec:	4789                	li	a5,2
    a4ee:	0cfb0c63          	beq	s6,a5,a5c6 <__muldf3+0x5b2>
    a4f2:	478d                	li	a5,3
    a4f4:	08fb0e63          	beq	s6,a5,a590 <__muldf3+0x57c>
    a4f8:	080b0d63          	beqz	s6,a592 <__muldf3+0x57e>
    a4fc:	00100437          	lui	s0,0x100
    a500:	fff40793          	addi	a5,s0,-1 # fffff <_data_lma+0xf3467>
    a504:	7fe00693          	li	a3,2046
    a508:	547d                	li	s0,-1
    a50a:	005aea93          	ori	s5,s5,5
    a50e:	00c79713          	slli	a4,a5,0xc
    a512:	8331                	srli	a4,a4,0xc
    a514:	01469793          	slli	a5,a3,0x14
    a518:	067e                	slli	a2,a2,0x1f
    a51a:	8fd9                	or	a5,a5,a4
    a51c:	8fd1                	or	a5,a5,a2
    a51e:	8522                	mv	a0,s0
    a520:	85be                	mv	a1,a5
    a522:	001aa073          	csrs	fflags,s5
    a526:	b111                	j	a12a <__muldf3+0x116>
    a528:	4501                	li	a0,0
    a52a:	7ff805b7          	lui	a1,0x7ff80
    a52e:	4ac1                	li	s5,16
    a530:	001aa073          	csrs	fflags,s5
    a534:	bedd                	j	a12a <__muldf3+0x116>
    a536:	45fd                	li	a1,31
    a538:	12f5d763          	bge	a1,a5,a666 <__muldf3+0x652>
    a53c:	5585                	li	a1,-31
    a53e:	40e58733          	sub	a4,a1,a4
    a542:	02000593          	li	a1,32
    a546:	00e45733          	srl	a4,s0,a4
    a54a:	00b78763          	beq	a5,a1,a558 <__muldf3+0x544>
    a54e:	43e90913          	addi	s2,s2,1086
    a552:	01241433          	sll	s0,s0,s2
    a556:	8cc1                	or	s1,s1,s0
    a558:	009034b3          	snez	s1,s1
    a55c:	8cd9                	or	s1,s1,a4
    a55e:	0074f793          	andi	a5,s1,7
    a562:	cb99                	beqz	a5,a578 <__muldf3+0x564>
    a564:	4789                	li	a5,2
    a566:	001aea93          	ori	s5,s5,1
    a56a:	0cfb0863          	beq	s6,a5,a63a <__muldf3+0x626>
    a56e:	478d                	li	a5,3
    a570:	0afb0a63          	beq	s6,a5,a624 <__muldf3+0x610>
    a574:	0c0b0863          	beqz	s6,a644 <__muldf3+0x630>
    a578:	0034d413          	srli	s0,s1,0x3
    a57c:	4781                	li	a5,0
    a57e:	001af693          	andi	a3,s5,1
    a582:	4701                	li	a4,0
    a584:	b80689e3          	beqz	a3,a116 <__muldf3+0x102>
    a588:	4681                	li	a3,0
    a58a:	002aea93          	ori	s5,s5,2
    a58e:	b741                	j	a50e <__muldf3+0x4fa>
    a590:	f6b5                	bnez	a3,a4fc <__muldf3+0x4e8>
    a592:	7ff00693          	li	a3,2047
    a596:	4781                	li	a5,0
    a598:	4401                	li	s0,0
    a59a:	bf85                	j	a50a <__muldf3+0x4f6>
    a59c:	00f4f793          	andi	a5,s1,15
    a5a0:	4591                	li	a1,4
    a5a2:	e2b780e3          	beq	a5,a1,a3c2 <__muldf3+0x3ae>
    a5a6:	00448793          	addi	a5,s1,4
    a5aa:	0097b4b3          	sltu	s1,a5,s1
    a5ae:	9426                	add	s0,s0,s1
    a5b0:	84be                	mv	s1,a5
    a5b2:	bd01                	j	a3c2 <__muldf3+0x3ae>
    a5b4:	e00697e3          	bnez	a3,a3c2 <__muldf3+0x3ae>
    a5b8:	00848793          	addi	a5,s1,8
    a5bc:	0097b4b3          	sltu	s1,a5,s1
    a5c0:	9426                	add	s0,s0,s1
    a5c2:	84be                	mv	s1,a5
    a5c4:	bbfd                	j	a3c2 <__muldf3+0x3ae>
    a5c6:	da9d                	beqz	a3,a4fc <__muldf3+0x4e8>
    a5c8:	b7e9                	j	a592 <__muldf3+0x57e>
    a5ca:	de068ce3          	beqz	a3,a3c2 <__muldf3+0x3ae>
    a5ce:	b7ed                	j	a5b8 <__muldf3+0x5a4>
    a5d0:	893a                	mv	s2,a4
    a5d2:	b3f9                	j	a3a0 <__muldf3+0x38c>
    a5d4:	4685                	li	a3,1
    a5d6:	4781                	li	a5,0
    a5d8:	4401                	li	s0,0
    a5da:	002aea93          	ori	s5,s5,2
    a5de:	bf05                	j	a50e <__muldf3+0x4fa>
    a5e0:	00971793          	slli	a5,a4,0x9
    a5e4:	0034d413          	srli	s0,s1,0x3
    a5e8:	0776                	slli	a4,a4,0x1d
    a5ea:	83b1                	srli	a5,a5,0xc
    a5ec:	8c59                	or	s0,s0,a4
    a5ee:	f9c1                	bnez	a1,a57e <__muldf3+0x56a>
    a5f0:	4701                	li	a4,0
    a5f2:	b615                	j	a116 <__muldf3+0x102>
    a5f4:	00f4f593          	andi	a1,s1,15
    a5f8:	4511                	li	a0,4
    a5fa:	e2a580e3          	beq	a1,a0,a41a <__muldf3+0x406>
    a5fe:	ffc4b713          	sltiu	a4,s1,-4
    a602:	00174713          	xori	a4,a4,1
    a606:	9722                	add	a4,a4,s0
    a608:	bd09                	j	a41a <__muldf3+0x406>
    a60a:	8722                	mv	a4,s0
    a60c:	e00697e3          	bnez	a3,a41a <__muldf3+0x406>
    a610:	ff84b713          	sltiu	a4,s1,-8
    a614:	00174713          	xori	a4,a4,1
    a618:	9722                	add	a4,a4,s0
    a61a:	b501                	j	a41a <__muldf3+0x406>
    a61c:	8722                	mv	a4,s0
    a61e:	de068ee3          	beqz	a3,a41a <__muldf3+0x406>
    a622:	b7fd                	j	a610 <__muldf3+0x5fc>
    a624:	4585                	li	a1,1
    a626:	4701                	li	a4,0
    a628:	e2069ae3          	bnez	a3,a45c <__muldf3+0x448>
    a62c:	00848793          	addi	a5,s1,8
    a630:	0097b4b3          	sltu	s1,a5,s1
    a634:	9726                	add	a4,a4,s1
    a636:	84be                	mv	s1,a5
    a638:	b515                	j	a45c <__muldf3+0x448>
    a63a:	4585                	li	a1,1
    a63c:	4701                	li	a4,0
    a63e:	e0068fe3          	beqz	a3,a45c <__muldf3+0x448>
    a642:	b7ed                	j	a62c <__muldf3+0x618>
    a644:	4585                	li	a1,1
    a646:	4701                	li	a4,0
    a648:	00f4f793          	andi	a5,s1,15
    a64c:	4691                	li	a3,4
    a64e:	e0d787e3          	beq	a5,a3,a45c <__muldf3+0x448>
    a652:	00448793          	addi	a5,s1,4
    a656:	0097b4b3          	sltu	s1,a5,s1
    a65a:	9726                	add	a4,a4,s1
    a65c:	84be                	mv	s1,a5
    a65e:	bbfd                	j	a45c <__muldf3+0x448>
    a660:	0016b413          	seqz	s0,a3
    a664:	bdbd                	j	a4e2 <__muldf3+0x4ce>
    a666:	4585                	li	a1,1
    a668:	bb75                	j	a424 <__muldf3+0x410>

0000a66a <__subdf3>:
    a66a:	1101                	addi	sp,sp,-32
    a66c:	ce06                	sw	ra,28(sp)
    a66e:	cc22                	sw	s0,24(sp)
    a670:	ca26                	sw	s1,20(sp)
    a672:	c84a                	sw	s2,16(sp)
    a674:	c64e                	sw	s3,12(sp)
    a676:	c452                	sw	s4,8(sp)
    a678:	002029f3          	frrm	s3
    a67c:	00100837          	lui	a6,0x100
    a680:	187d                	addi	a6,a6,-1
    a682:	00b87733          	and	a4,a6,a1
    a686:	0146d893          	srli	a7,a3,0x14
    a68a:	00d87833          	and	a6,a6,a3
    a68e:	0145d413          	srli	s0,a1,0x14
    a692:	00371e13          	slli	t3,a4,0x3
    a696:	01d55793          	srli	a5,a0,0x1d
    a69a:	080e                	slli	a6,a6,0x3
    a69c:	01d65313          	srli	t1,a2,0x1d
    a6a0:	7ff8f893          	andi	a7,a7,2047
    a6a4:	7ff00e93          	li	t4,2047
    a6a8:	01f5d493          	srli	s1,a1,0x1f
    a6ac:	01c7e733          	or	a4,a5,t3
    a6b0:	7ff47413          	andi	s0,s0,2047
    a6b4:	00351e13          	slli	t3,a0,0x3
    a6b8:	82fd                	srli	a3,a3,0x1f
    a6ba:	01036833          	or	a6,t1,a6
    a6be:	00361593          	slli	a1,a2,0x3
    a6c2:	1dd88263          	beq	a7,t4,a886 <__subdf3+0x21c>
    a6c6:	0016c693          	xori	a3,a3,1
    a6ca:	41140333          	sub	t1,s0,a7
    a6ce:	16d48763          	beq	s1,a3,a83c <__subdf3+0x1d2>
    a6d2:	1c605363          	blez	t1,a898 <__subdf3+0x22e>
    a6d6:	22088463          	beqz	a7,a8fe <__subdf3+0x294>
    a6da:	008007b7          	lui	a5,0x800
    a6de:	00f86833          	or	a6,a6,a5
    a6e2:	6dd40263          	beq	s0,t4,ada6 <__subdf3+0x73c>
    a6e6:	03800793          	li	a5,56
    a6ea:	3a67cd63          	blt	a5,t1,aaa4 <__subdf3+0x43a>
    a6ee:	47fd                	li	a5,31
    a6f0:	5267c263          	blt	a5,t1,ac14 <__subdf3+0x5aa>
    a6f4:	02000793          	li	a5,32
    a6f8:	406787b3          	sub	a5,a5,t1
    a6fc:	0065d933          	srl	s2,a1,t1
    a700:	00f81633          	sll	a2,a6,a5
    a704:	00f595b3          	sll	a1,a1,a5
    a708:	01266633          	or	a2,a2,s2
    a70c:	00685333          	srl	t1,a6,t1
    a710:	00b03933          	snez	s2,a1
    a714:	01266633          	or	a2,a2,s2
    a718:	40670733          	sub	a4,a4,t1
    a71c:	40ce0933          	sub	s2,t3,a2
    a720:	012e3633          	sltu	a2,t3,s2
    a724:	8f11                	sub	a4,a4,a2
    a726:	00871793          	slli	a5,a4,0x8
    a72a:	2a07da63          	bgez	a5,a9de <__subdf3+0x374>
    a72e:	00971a13          	slli	s4,a4,0x9
    a732:	009a5a13          	srli	s4,s4,0x9
    a736:	340a0b63          	beqz	s4,aa8c <__subdf3+0x422>
    a73a:	8552                	mv	a0,s4
    a73c:	254010ef          	jal	ra,b990 <__clzsi2>
    a740:	1561                	addi	a0,a0,-8
    a742:	02000793          	li	a5,32
    a746:	8f89                	sub	a5,a5,a0
    a748:	00aa1733          	sll	a4,s4,a0
    a74c:	00f957b3          	srl	a5,s2,a5
    a750:	8fd9                	or	a5,a5,a4
    a752:	00a91a33          	sll	s4,s2,a0
    a756:	32854063          	blt	a0,s0,aa76 <__subdf3+0x40c>
    a75a:	8d01                	sub	a0,a0,s0
    a75c:	00150713          	addi	a4,a0,1
    a760:	46fd                	li	a3,31
    a762:	44e6c063          	blt	a3,a4,aba2 <__subdf3+0x538>
    a766:	02000693          	li	a3,32
    a76a:	8e99                	sub	a3,a3,a4
    a76c:	00ea5933          	srl	s2,s4,a4
    a770:	00d79633          	sll	a2,a5,a3
    a774:	00da16b3          	sll	a3,s4,a3
    a778:	01266633          	or	a2,a2,s2
    a77c:	00d036b3          	snez	a3,a3
    a780:	00d66933          	or	s2,a2,a3
    a784:	00e7d733          	srl	a4,a5,a4
    a788:	00e967b3          	or	a5,s2,a4
    a78c:	16078063          	beqz	a5,a8ec <__subdf3+0x282>
    a790:	00797793          	andi	a5,s2,7
    a794:	00191593          	slli	a1,s2,0x1
    a798:	00171613          	slli	a2,a4,0x1
    a79c:	01f95693          	srli	a3,s2,0x1f
    a7a0:	0075f513          	andi	a0,a1,7
    a7a4:	96b2                	add	a3,a3,a2
    a7a6:	4301                	li	t1,0
    a7a8:	c911                	beqz	a0,a7bc <__subdf3+0x152>
    a7aa:	4609                	li	a2,2
    a7ac:	66c98163          	beq	s3,a2,ae0e <__subdf3+0x7a4>
    a7b0:	460d                	li	a2,3
    a7b2:	4305                	li	t1,1
    a7b4:	64c98563          	beq	s3,a2,adfe <__subdf3+0x794>
    a7b8:	62098863          	beqz	s3,ade8 <__subdf3+0x77e>
    a7bc:	01000637          	lui	a2,0x1000
    a7c0:	8ef1                	and	a3,a3,a2
    a7c2:	0016b513          	seqz	a0,a3
    a7c6:	10078ce3          	beqz	a5,b0de <__subdf3+0xa74>
    a7ca:	4401                	li	s0,0
    a7cc:	4789                	li	a5,2
    a7ce:	26f98c63          	beq	s3,a5,aa46 <__subdf3+0x3dc>
    a7d2:	478d                	li	a5,3
    a7d4:	28f98863          	beq	s3,a5,aa64 <__subdf3+0x3fa>
    a7d8:	24098263          	beqz	s3,aa1c <__subdf3+0x3b2>
    a7dc:	008005b7          	lui	a1,0x800
    a7e0:	8df9                	and	a1,a1,a4
    a7e2:	4305                	li	t1,1
    a7e4:	c119                	beqz	a0,a7ea <__subdf3+0x180>
    a7e6:	00236313          	ori	t1,t1,2
    a7ea:	4a058363          	beqz	a1,ac90 <__subdf3+0x626>
    a7ee:	0405                	addi	s0,s0,1
    a7f0:	7ff00793          	li	a5,2047
    a7f4:	20f40363          	beq	s0,a5,a9fa <__subdf3+0x390>
    a7f8:	ff8007b7          	lui	a5,0xff800
    a7fc:	17fd                	addi	a5,a5,-1
    a7fe:	8ff9                	and	a5,a5,a4
    a800:	01d79613          	slli	a2,a5,0x1d
    a804:	00395913          	srli	s2,s2,0x3
    a808:	07a6                	slli	a5,a5,0x9
    a80a:	01266633          	or	a2,a2,s2
    a80e:	83b1                	srli	a5,a5,0xc
    a810:	7ff47413          	andi	s0,s0,2047
    a814:	8885                	andi	s1,s1,1
    a816:	00c79713          	slli	a4,a5,0xc
    a81a:	0452                	slli	s0,s0,0x14
    a81c:	8331                	srli	a4,a4,0xc
    a81e:	04fe                	slli	s1,s1,0x1f
    a820:	8f41                	or	a4,a4,s0
    a822:	8f45                	or	a4,a4,s1
    a824:	8532                	mv	a0,a2
    a826:	85ba                	mv	a1,a4
    a828:	2a031463          	bnez	t1,aad0 <__subdf3+0x466>
    a82c:	40f2                	lw	ra,28(sp)
    a82e:	4462                	lw	s0,24(sp)
    a830:	44d2                	lw	s1,20(sp)
    a832:	4942                	lw	s2,16(sp)
    a834:	49b2                	lw	s3,12(sp)
    a836:	4a22                	lw	s4,8(sp)
    a838:	6105                	addi	sp,sp,32
    a83a:	8082                	ret
    a83c:	0c605d63          	blez	t1,a916 <__subdf3+0x2ac>
    a840:	16088c63          	beqz	a7,a9b8 <__subdf3+0x34e>
    a844:	008007b7          	lui	a5,0x800
    a848:	00f86833          	or	a6,a6,a5
    a84c:	51d40a63          	beq	s0,t4,ad60 <__subdf3+0x6f6>
    a850:	03800793          	li	a5,56
    a854:	3667cc63          	blt	a5,t1,abcc <__subdf3+0x562>
    a858:	47fd                	li	a5,31
    a85a:	4667d063          	bge	a5,t1,acba <__subdf3+0x650>
    a85e:	fe030613          	addi	a2,t1,-32
    a862:	02000793          	li	a5,32
    a866:	00c85633          	srl	a2,a6,a2
    a86a:	00f30a63          	beq	t1,a5,a87e <__subdf3+0x214>
    a86e:	04000793          	li	a5,64
    a872:	40678333          	sub	t1,a5,t1
    a876:	00681833          	sll	a6,a6,t1
    a87a:	0105e5b3          	or	a1,a1,a6
    a87e:	00b035b3          	snez	a1,a1
    a882:	8e4d                	or	a2,a2,a1
    a884:	ae81                	j	abd4 <__subdf3+0x56a>
    a886:	00b867b3          	or	a5,a6,a1
    a88a:	80140313          	addi	t1,s0,-2047
    a88e:	e399                	bnez	a5,a894 <__subdf3+0x22a>
    a890:	0016c693          	xori	a3,a3,1
    a894:	08d48163          	beq	s1,a3,a916 <__subdf3+0x2ac>
    a898:	0c031563          	bnez	t1,a962 <__subdf3+0x2f8>
    a89c:	00140793          	addi	a5,s0,1
    a8a0:	7fe7f793          	andi	a5,a5,2046
    a8a4:	24079263          	bnez	a5,aae8 <__subdf3+0x47e>
    a8a8:	01c76eb3          	or	t4,a4,t3
    a8ac:	00b867b3          	or	a5,a6,a1
    a8b0:	5a041263          	bnez	s0,ae54 <__subdf3+0x7ea>
    a8b4:	480e8e63          	beqz	t4,ad50 <__subdf3+0x6e6>
    a8b8:	4a078263          	beqz	a5,ad5c <__subdf3+0x6f2>
    a8bc:	40be0533          	sub	a0,t3,a1
    a8c0:	00ae37b3          	sltu	a5,t3,a0
    a8c4:	41070633          	sub	a2,a4,a6
    a8c8:	8e1d                	sub	a2,a2,a5
    a8ca:	00861793          	slli	a5,a2,0x8
    a8ce:	6a07d463          	bgez	a5,af76 <__subdf3+0x90c>
    a8d2:	41c58933          	sub	s2,a1,t3
    a8d6:	40e807b3          	sub	a5,a6,a4
    a8da:	0125b5b3          	sltu	a1,a1,s2
    a8de:	40b78733          	sub	a4,a5,a1
    a8e2:	00e967b3          	or	a5,s2,a4
    a8e6:	84b6                	mv	s1,a3
    a8e8:	ea0794e3          	bnez	a5,a790 <__subdf3+0x126>
    a8ec:	4601                	li	a2,0
    a8ee:	4401                	li	s0,0
    a8f0:	4301                	li	t1,0
    a8f2:	07b2                	slli	a5,a5,0xc
    a8f4:	83b1                	srli	a5,a5,0xc
    a8f6:	7ff47413          	andi	s0,s0,2047
    a8fa:	8885                	andi	s1,s1,1
    a8fc:	bf29                	j	a816 <__subdf3+0x1ac>
    a8fe:	00b867b3          	or	a5,a6,a1
    a902:	1a078663          	beqz	a5,aaae <__subdf3+0x444>
    a906:	fff30793          	addi	a5,t1,-1
    a90a:	48078063          	beqz	a5,ad8a <__subdf3+0x720>
    a90e:	45d30963          	beq	t1,t4,ad60 <__subdf3+0x6f6>
    a912:	833e                	mv	t1,a5
    a914:	bbc9                	j	a6e6 <__subdf3+0x7c>
    a916:	20031063          	bnez	t1,ab16 <__subdf3+0x4ac>
    a91a:	00140693          	addi	a3,s0,1
    a91e:	7fe6f793          	andi	a5,a3,2046
    a922:	4e079a63          	bnez	a5,ae16 <__subdf3+0x7ac>
    a926:	01c766b3          	or	a3,a4,t3
    a92a:	3e041e63          	bnez	s0,ad26 <__subdf3+0x6bc>
    a92e:	00b867b3          	or	a5,a6,a1
    a932:	5a068a63          	beqz	a3,aee6 <__subdf3+0x87c>
    a936:	42078363          	beqz	a5,ad5c <__subdf3+0x6f2>
    a93a:	00be0933          	add	s2,t3,a1
    a93e:	010707b3          	add	a5,a4,a6
    a942:	01c93633          	sltu	a2,s2,t3
    a946:	00c78733          	add	a4,a5,a2
    a94a:	00871793          	slli	a5,a4,0x8
    a94e:	e207dde3          	bgez	a5,a788 <__subdf3+0x11e>
    a952:	ff8007b7          	lui	a5,0xff800
    a956:	17fd                	addi	a5,a5,-1
    a958:	8f7d                	and	a4,a4,a5
    a95a:	4405                	li	s0,1
    a95c:	00797793          	andi	a5,s2,7
    a960:	a069                	j	a9ea <__subdf3+0x380>
    a962:	408887b3          	sub	a5,a7,s0
    a966:	20041363          	bnez	s0,ab6c <__subdf3+0x502>
    a96a:	01c76533          	or	a0,a4,t3
    a96e:	c125                	beqz	a0,a9ce <__subdf3+0x364>
    a970:	fff78513          	addi	a0,a5,-1 # ff7fffff <_eusrstack+0xdf7f7fff>
    a974:	54050f63          	beqz	a0,aed2 <__subdf3+0x868>
    a978:	7ff00313          	li	t1,2047
    a97c:	60678663          	beq	a5,t1,af88 <__subdf3+0x91e>
    a980:	87aa                	mv	a5,a0
    a982:	03800613          	li	a2,56
    a986:	2af64b63          	blt	a2,a5,ac3c <__subdf3+0x5d2>
    a98a:	467d                	li	a2,31
    a98c:	50f64863          	blt	a2,a5,ae9c <__subdf3+0x832>
    a990:	02000513          	li	a0,32
    a994:	8d1d                	sub	a0,a0,a5
    a996:	00a71633          	sll	a2,a4,a0
    a99a:	00fe5333          	srl	t1,t3,a5
    a99e:	00ae1533          	sll	a0,t3,a0
    a9a2:	00666633          	or	a2,a2,t1
    a9a6:	00a03933          	snez	s2,a0
    a9aa:	00f757b3          	srl	a5,a4,a5
    a9ae:	01266633          	or	a2,a2,s2
    a9b2:	40f80833          	sub	a6,a6,a5
    a9b6:	a479                	j	ac44 <__subdf3+0x5da>
    a9b8:	00b867b3          	or	a5,a6,a1
    a9bc:	cbed                	beqz	a5,aaae <__subdf3+0x444>
    a9be:	fff30793          	addi	a5,t1,-1
    a9c2:	32078063          	beqz	a5,ace2 <__subdf3+0x678>
    a9c6:	4bd30b63          	beq	t1,t4,ae7c <__subdf3+0x812>
    a9ca:	833e                	mv	t1,a5
    a9cc:	b551                	j	a850 <__subdf3+0x1e6>
    a9ce:	7ff00713          	li	a4,2047
    a9d2:	5ee78a63          	beq	a5,a4,afc6 <__subdf3+0x95c>
    a9d6:	8742                	mv	a4,a6
    a9d8:	892e                	mv	s2,a1
    a9da:	843e                	mv	s0,a5
    a9dc:	84b6                	mv	s1,a3
    a9de:	00e967b3          	or	a5,s2,a4
    a9e2:	da0405e3          	beqz	s0,a78c <__subdf3+0x122>
    a9e6:	00797793          	andi	a5,s2,7
    a9ea:	4501                	li	a0,0
    a9ec:	de0790e3          	bnez	a5,a7cc <__subdf3+0x162>
    a9f0:	008005b7          	lui	a1,0x800
    a9f4:	8df9                	and	a1,a1,a4
    a9f6:	4301                	li	t1,0
    a9f8:	bbcd                	j	a7ea <__subdf3+0x180>
    a9fa:	0c098f63          	beqz	s3,aad8 <__subdf3+0x46e>
    a9fe:	478d                	li	a5,3
    aa00:	0cf98b63          	beq	s3,a5,aad6 <__subdf3+0x46c>
    aa04:	4789                	li	a5,2
    aa06:	30f98b63          	beq	s3,a5,ad1c <__subdf3+0x6b2>
    aa0a:	00536313          	ori	t1,t1,5
    aa0e:	200007b7          	lui	a5,0x20000
    aa12:	567d                	li	a2,-1
    aa14:	17fd                	addi	a5,a5,-1
    aa16:	7fe00413          	li	s0,2046
    aa1a:	bde1                	j	a8f2 <__subdf3+0x288>
    aa1c:	008005b7          	lui	a1,0x800
    aa20:	00f97793          	andi	a5,s2,15
    aa24:	4691                	li	a3,4
    aa26:	4305                	li	t1,1
    aa28:	8df9                	and	a1,a1,a4
    aa2a:	dad78de3          	beq	a5,a3,a7e4 <__subdf3+0x17a>
    aa2e:	ffc93793          	sltiu	a5,s2,-4
    aa32:	0017c793          	xori	a5,a5,1
    aa36:	973e                	add	a4,a4,a5
    aa38:	008005b7          	lui	a1,0x800
    aa3c:	8df9                	and	a1,a1,a4
    aa3e:	0911                	addi	s2,s2,4
    aa40:	da0513e3          	bnez	a0,a7e6 <__subdf3+0x17c>
    aa44:	b35d                	j	a7ea <__subdf3+0x180>
    aa46:	d8048be3          	beqz	s1,a7dc <__subdf3+0x172>
    aa4a:	00890793          	addi	a5,s2,8
    aa4e:	0127b633          	sltu	a2,a5,s2
    aa52:	9732                	add	a4,a4,a2
    aa54:	008005b7          	lui	a1,0x800
    aa58:	8df9                	and	a1,a1,a4
    aa5a:	893e                	mv	s2,a5
    aa5c:	4305                	li	t1,1
    aa5e:	d80514e3          	bnez	a0,a7e6 <__subdf3+0x17c>
    aa62:	b361                	j	a7ea <__subdf3+0x180>
    aa64:	d0fd                	beqz	s1,aa4a <__subdf3+0x3e0>
    aa66:	4305                	li	t1,1
    aa68:	008005b7          	lui	a1,0x800
    aa6c:	8df9                	and	a1,a1,a4
    aa6e:	4485                	li	s1,1
    aa70:	d6051be3          	bnez	a0,a7e6 <__subdf3+0x17c>
    aa74:	bb9d                	j	a7ea <__subdf3+0x180>
    aa76:	ff800737          	lui	a4,0xff800
    aa7a:	177d                	addi	a4,a4,-1
    aa7c:	8f7d                	and	a4,a4,a5
    aa7e:	8952                	mv	s2,s4
    aa80:	8c09                	sub	s0,s0,a0
    aa82:	00e967b3          	or	a5,s2,a4
    aa86:	d00403e3          	beqz	s0,a78c <__subdf3+0x122>
    aa8a:	bfb1                	j	a9e6 <__subdf3+0x37c>
    aa8c:	854a                	mv	a0,s2
    aa8e:	703000ef          	jal	ra,b990 <__clzsi2>
    aa92:	ff850793          	addi	a5,a0,-8
    aa96:	477d                	li	a4,31
    aa98:	0561                	addi	a0,a0,24
    aa9a:	00f917b3          	sll	a5,s2,a5
    aa9e:	caa74ce3          	blt	a4,a0,a756 <__subdf3+0xec>
    aaa2:	b145                	j	a742 <__subdf3+0xd8>
    aaa4:	00b86833          	or	a6,a6,a1
    aaa8:	01003633          	snez	a2,a6
    aaac:	b985                	j	a71c <__subdf3+0xb2>
    aaae:	31d30f63          	beq	t1,t4,adcc <__subdf3+0x762>
    aab2:	008005b7          	lui	a1,0x800
    aab6:	841a                	mv	s0,t1
    aab8:	8df9                	and	a1,a1,a4
    aaba:	8972                	mv	s2,t3
    aabc:	4301                	li	t1,0
    aabe:	b335                	j	a7ea <__subdf3+0x180>
    aac0:	48888863          	beq	a7,s0,af50 <__subdf3+0x8e6>
    aac4:	48079f63          	bnez	a5,af62 <__subdf3+0x8f8>
    aac8:	4501                	li	a0,0
    aaca:	7ff805b7          	lui	a1,0x7ff80
    aace:	4341                	li	t1,16
    aad0:	00132073          	csrs	fflags,t1
    aad4:	bba1                	j	a82c <__subdf3+0x1c2>
    aad6:	f895                	bnez	s1,aa0a <__subdf3+0x3a0>
    aad8:	00536313          	ori	t1,t1,5
    aadc:	8885                	andi	s1,s1,1
    aade:	7ff00413          	li	s0,2047
    aae2:	4781                	li	a5,0
    aae4:	4601                	li	a2,0
    aae6:	bb05                	j	a816 <__subdf3+0x1ac>
    aae8:	40be0933          	sub	s2,t3,a1
    aaec:	012e37b3          	sltu	a5,t3,s2
    aaf0:	41070a33          	sub	s4,a4,a6
    aaf4:	40fa0a33          	sub	s4,s4,a5
    aaf8:	008a1793          	slli	a5,s4,0x8
    aafc:	3407c263          	bltz	a5,ae40 <__subdf3+0x7d6>
    ab00:	014967b3          	or	a5,s2,s4
    ab04:	c20799e3          	bnez	a5,a736 <__subdf3+0xcc>
    ab08:	ffe98493          	addi	s1,s3,-2
    ab0c:	0014b493          	seqz	s1,s1
    ab10:	4601                	li	a2,0
    ab12:	4401                	li	s0,0
    ab14:	bbf9                	j	a8f2 <__subdf3+0x288>
    ab16:	408887b3          	sub	a5,a7,s0
    ab1a:	12040e63          	beqz	s0,ac56 <__subdf3+0x5ec>
    ab1e:	00800537          	lui	a0,0x800
    ab22:	7ff00693          	li	a3,2047
    ab26:	8f49                	or	a4,a4,a0
    ab28:	50d88763          	beq	a7,a3,b036 <__subdf3+0x9cc>
    ab2c:	03800693          	li	a3,56
    ab30:	36f6c163          	blt	a3,a5,ae92 <__subdf3+0x828>
    ab34:	46fd                	li	a3,31
    ab36:	46f6c363          	blt	a3,a5,af9c <__subdf3+0x932>
    ab3a:	02000693          	li	a3,32
    ab3e:	8e9d                	sub	a3,a3,a5
    ab40:	00d71633          	sll	a2,a4,a3
    ab44:	00fe5533          	srl	a0,t3,a5
    ab48:	00de16b3          	sll	a3,t3,a3
    ab4c:	8e49                	or	a2,a2,a0
    ab4e:	00d03933          	snez	s2,a3
    ab52:	00f757b3          	srl	a5,a4,a5
    ab56:	01266633          	or	a2,a2,s2
    ab5a:	983e                	add	a6,a6,a5
    ab5c:	00b60933          	add	s2,a2,a1
    ab60:	00b937b3          	sltu	a5,s2,a1
    ab64:	01078733          	add	a4,a5,a6
    ab68:	8446                	mv	s0,a7
    ab6a:	a895                	j	abde <__subdf3+0x574>
    ab6c:	00800337          	lui	t1,0x800
    ab70:	7ff00513          	li	a0,2047
    ab74:	00676733          	or	a4,a4,t1
    ab78:	e0a895e3          	bne	a7,a0,a982 <__subdf3+0x318>
    ab7c:	00b865b3          	or	a1,a6,a1
    ab80:	20058263          	beqz	a1,ad84 <__subdf3+0x71a>
    ab84:	060e                	slli	a2,a2,0x3
    ab86:	820d                	srli	a2,a2,0x3
    ab88:	01d81793          	slli	a5,a6,0x1d
    ab8c:	00981713          	slli	a4,a6,0x9
    ab90:	8e5d                	or	a2,a2,a5
    ab92:	84b6                	mv	s1,a3
    ab94:	00385793          	srli	a5,a6,0x3
    ab98:	4301                	li	t1,0
    ab9a:	10074663          	bltz	a4,aca6 <__subdf3+0x63c>
    ab9e:	4341                	li	t1,16
    aba0:	a219                	j	aca6 <__subdf3+0x63c>
    aba2:	1505                	addi	a0,a0,-31
    aba4:	02000693          	li	a3,32
    aba8:	00a7d533          	srl	a0,a5,a0
    abac:	00d70a63          	beq	a4,a3,abc0 <__subdf3+0x556>
    abb0:	04000693          	li	a3,64
    abb4:	40e68733          	sub	a4,a3,a4
    abb8:	00e797b3          	sll	a5,a5,a4
    abbc:	00fa6a33          	or	s4,s4,a5
    abc0:	014037b3          	snez	a5,s4
    abc4:	8fc9                	or	a5,a5,a0
    abc6:	893e                	mv	s2,a5
    abc8:	4701                	li	a4,0
    abca:	b6c9                	j	a78c <__subdf3+0x122>
    abcc:	00b86833          	or	a6,a6,a1
    abd0:	01003633          	snez	a2,a6
    abd4:	01c60933          	add	s2,a2,t3
    abd8:	01c93633          	sltu	a2,s2,t3
    abdc:	9732                	add	a4,a4,a2
    abde:	00871793          	slli	a5,a4,0x8
    abe2:	de07dee3          	bgez	a5,a9de <__subdf3+0x374>
    abe6:	0405                	addi	s0,s0,1
    abe8:	7ff00793          	li	a5,2047
    abec:	08f40363          	beq	s0,a5,ac72 <__subdf3+0x608>
    abf0:	ff8007b7          	lui	a5,0xff800
    abf4:	17fd                	addi	a5,a5,-1
    abf6:	8ff9                	and	a5,a5,a4
    abf8:	00197613          	andi	a2,s2,1
    abfc:	00195713          	srli	a4,s2,0x1
    ac00:	8e59                	or	a2,a2,a4
    ac02:	01f79913          	slli	s2,a5,0x1f
    ac06:	00c96933          	or	s2,s2,a2
    ac0a:	0017d713          	srli	a4,a5,0x1
    ac0e:	00797793          	andi	a5,s2,7
    ac12:	bbe1                	j	a9ea <__subdf3+0x380>
    ac14:	fe030613          	addi	a2,t1,-32 # 7fffe0 <_data_lma+0x7f3448>
    ac18:	02000793          	li	a5,32
    ac1c:	00c85633          	srl	a2,a6,a2
    ac20:	00f30a63          	beq	t1,a5,ac34 <__subdf3+0x5ca>
    ac24:	04000793          	li	a5,64
    ac28:	40678333          	sub	t1,a5,t1
    ac2c:	00681833          	sll	a6,a6,t1
    ac30:	0105e5b3          	or	a1,a1,a6
    ac34:	00b035b3          	snez	a1,a1
    ac38:	8e4d                	or	a2,a2,a1
    ac3a:	b4cd                	j	a71c <__subdf3+0xb2>
    ac3c:	01c76633          	or	a2,a4,t3
    ac40:	00c03633          	snez	a2,a2
    ac44:	40c58933          	sub	s2,a1,a2
    ac48:	0125b7b3          	sltu	a5,a1,s2
    ac4c:	40f80733          	sub	a4,a6,a5
    ac50:	8446                	mv	s0,a7
    ac52:	84b6                	mv	s1,a3
    ac54:	bcc9                	j	a726 <__subdf3+0xbc>
    ac56:	01c766b3          	or	a3,a4,t3
    ac5a:	28068963          	beqz	a3,aeec <__subdf3+0x882>
    ac5e:	fff78693          	addi	a3,a5,-1 # ff7fffff <_eusrstack+0xdf7f7fff>
    ac62:	38068b63          	beqz	a3,aff8 <__subdf3+0x98e>
    ac66:	7ff00513          	li	a0,2047
    ac6a:	40a78e63          	beq	a5,a0,b086 <__subdf3+0xa1c>
    ac6e:	87b6                	mv	a5,a3
    ac70:	bd75                	j	ab2c <__subdf3+0x4c2>
    ac72:	20098363          	beqz	s3,ae78 <__subdf3+0x80e>
    ac76:	478d                	li	a5,3
    ac78:	3ef98b63          	beq	s3,a5,b06e <__subdf3+0xa04>
    ac7c:	4789                	li	a5,2
    ac7e:	3cf98f63          	beq	s3,a5,b05c <__subdf3+0x9f2>
    ac82:	44099063          	bnez	s3,b0c2 <__subdf3+0xa58>
    ac86:	7fe00413          	li	s0,2046
    ac8a:	4701                	li	a4,0
    ac8c:	490d                	li	s2,3
    ac8e:	4315                	li	t1,5
    ac90:	01d71793          	slli	a5,a4,0x1d
    ac94:	00395613          	srli	a2,s2,0x3
    ac98:	7ff00693          	li	a3,2047
    ac9c:	8e5d                	or	a2,a2,a5
    ac9e:	00375793          	srli	a5,a4,0x3
    aca2:	c4d418e3          	bne	s0,a3,a8f2 <__subdf3+0x288>
    aca6:	8fd1                	or	a5,a5,a2
    aca8:	e2078ae3          	beqz	a5,aadc <__subdf3+0x472>
    acac:	4481                	li	s1,0
    acae:	7ff00413          	li	s0,2047
    acb2:	000807b7          	lui	a5,0x80
    acb6:	4601                	li	a2,0
    acb8:	beb9                	j	a816 <__subdf3+0x1ac>
    acba:	02000793          	li	a5,32
    acbe:	406787b3          	sub	a5,a5,t1
    acc2:	0065d933          	srl	s2,a1,t1
    acc6:	00f81633          	sll	a2,a6,a5
    acca:	00f595b3          	sll	a1,a1,a5
    acce:	01266633          	or	a2,a2,s2
    acd2:	00685333          	srl	t1,a6,t1
    acd6:	00b03933          	snez	s2,a1
    acda:	01266633          	or	a2,a2,s2
    acde:	971a                	add	a4,a4,t1
    ace0:	bdd5                	j	abd4 <__subdf3+0x56a>
    ace2:	00be0933          	add	s2,t3,a1
    ace6:	010707b3          	add	a5,a4,a6
    acea:	01c93633          	sltu	a2,s2,t3
    acee:	00c78733          	add	a4,a5,a2
    acf2:	00871793          	slli	a5,a4,0x8
    acf6:	4405                	li	s0,1
    acf8:	ce07d7e3          	bgez	a5,a9e6 <__subdf3+0x37c>
    acfc:	ff8007b7          	lui	a5,0xff800
    ad00:	17fd                	addi	a5,a5,-1
    ad02:	8ff9                	and	a5,a5,a4
    ad04:	00195613          	srli	a2,s2,0x1
    ad08:	01f79913          	slli	s2,a5,0x1f
    ad0c:	00c96933          	or	s2,s2,a2
    ad10:	0017d713          	srli	a4,a5,0x1
    ad14:	4409                	li	s0,2
    ad16:	00797793          	andi	a5,s2,7
    ad1a:	b9c1                	j	a9ea <__subdf3+0x380>
    ad1c:	00536313          	ori	t1,t1,5
    ad20:	ce0487e3          	beqz	s1,aa0e <__subdf3+0x3a4>
    ad24:	bb65                	j	aadc <__subdf3+0x472>
    ad26:	7ff00793          	li	a5,2047
    ad2a:	2ef40063          	beq	s0,a5,b00a <__subdf3+0x9a0>
    ad2e:	1ef88863          	beq	a7,a5,af1e <__subdf3+0x8b4>
    ad32:	1e068c63          	beqz	a3,af2a <__subdf3+0x8c0>
    ad36:	00b86833          	or	a6,a6,a1
    ad3a:	f60819e3          	bnez	a6,acac <__subdf3+0x642>
    ad3e:	00351613          	slli	a2,a0,0x3
    ad42:	01d71793          	slli	a5,a4,0x1d
    ad46:	820d                	srli	a2,a2,0x3
    ad48:	8e5d                	or	a2,a2,a5
    ad4a:	00375793          	srli	a5,a4,0x3
    ad4e:	bfa1                	j	aca6 <__subdf3+0x63c>
    ad50:	16078b63          	beqz	a5,aec6 <__subdf3+0x85c>
    ad54:	4781                	li	a5,0
    ad56:	8742                	mv	a4,a6
    ad58:	8e2e                	mv	t3,a1
    ad5a:	84b6                	mv	s1,a3
    ad5c:	8972                	mv	s2,t3
    ad5e:	bc1d                	j	a794 <__subdf3+0x12a>
    ad60:	01c76633          	or	a2,a4,t3
    ad64:	c20d                	beqz	a2,ad86 <__subdf3+0x71c>
    ad66:	00400337          	lui	t1,0x400
    ad6a:	050e                	slli	a0,a0,0x3
    ad6c:	00677333          	and	t1,a4,t1
    ad70:	01d71613          	slli	a2,a4,0x1d
    ad74:	810d                	srli	a0,a0,0x3
    ad76:	00133313          	seqz	t1,t1
    ad7a:	8e49                	or	a2,a2,a0
    ad7c:	00375793          	srli	a5,a4,0x3
    ad80:	0312                	slli	t1,t1,0x4
    ad82:	b715                	j	aca6 <__subdf3+0x63c>
    ad84:	84b6                	mv	s1,a3
    ad86:	4301                	li	t1,0
    ad88:	bb91                	j	aadc <__subdf3+0x472>
    ad8a:	40be0933          	sub	s2,t3,a1
    ad8e:	410707b3          	sub	a5,a4,a6
    ad92:	012e3633          	sltu	a2,t3,s2
    ad96:	40c78733          	sub	a4,a5,a2
    ad9a:	00871793          	slli	a5,a4,0x8
    ad9e:	4405                	li	s0,1
    ada0:	9807c7e3          	bltz	a5,a72e <__subdf3+0xc4>
    ada4:	b189                	j	a9e6 <__subdf3+0x37c>
    ada6:	01c76633          	or	a2,a4,t3
    adaa:	de71                	beqz	a2,ad86 <__subdf3+0x71c>
    adac:	00400337          	lui	t1,0x400
    adb0:	00351613          	slli	a2,a0,0x3
    adb4:	00677333          	and	t1,a4,t1
    adb8:	01d71793          	slli	a5,a4,0x1d
    adbc:	820d                	srli	a2,a2,0x3
    adbe:	00133313          	seqz	t1,t1
    adc2:	8e5d                	or	a2,a2,a5
    adc4:	0312                	slli	t1,t1,0x4
    adc6:	00375793          	srli	a5,a4,0x3
    adca:	bdf1                	j	aca6 <__subdf3+0x63c>
    adcc:	01c767b3          	or	a5,a4,t3
    add0:	ebcd                	bnez	a5,ae82 <__subdf3+0x818>
    add2:	4701                	li	a4,0
    add4:	4e01                	li	t3,0
    add6:	4301                	li	t1,0
    add8:	01d71793          	slli	a5,a4,0x1d
    addc:	003e5613          	srli	a2,t3,0x3
    ade0:	8e5d                	or	a2,a2,a5
    ade2:	00375793          	srli	a5,a4,0x3
    ade6:	b5c1                	j	aca6 <__subdf3+0x63c>
    ade8:	00f5f613          	andi	a2,a1,15
    adec:	4511                	li	a0,4
    adee:	9ca607e3          	beq	a2,a0,a7bc <__subdf3+0x152>
    adf2:	ffc5b593          	sltiu	a1,a1,-4
    adf6:	0015c593          	xori	a1,a1,1
    adfa:	96ae                	add	a3,a3,a1
    adfc:	b2c1                	j	a7bc <__subdf3+0x152>
    adfe:	9a049fe3          	bnez	s1,a7bc <__subdf3+0x152>
    ae02:	ff85b613          	sltiu	a2,a1,-8
    ae06:	00164613          	xori	a2,a2,1
    ae0a:	96b2                	add	a3,a3,a2
    ae0c:	ba45                	j	a7bc <__subdf3+0x152>
    ae0e:	4305                	li	t1,1
    ae10:	9a0486e3          	beqz	s1,a7bc <__subdf3+0x152>
    ae14:	b7fd                	j	ae02 <__subdf3+0x798>
    ae16:	7ff00793          	li	a5,2047
    ae1a:	0ef68163          	beq	a3,a5,aefc <__subdf3+0x892>
    ae1e:	95f2                	add	a1,a1,t3
    ae20:	010707b3          	add	a5,a4,a6
    ae24:	01c5b733          	sltu	a4,a1,t3
    ae28:	97ba                	add	a5,a5,a4
    ae2a:	01f79613          	slli	a2,a5,0x1f
    ae2e:	8185                	srli	a1,a1,0x1
    ae30:	00b66933          	or	s2,a2,a1
    ae34:	0017d713          	srli	a4,a5,0x1
    ae38:	8436                	mv	s0,a3
    ae3a:	00797793          	andi	a5,s2,7
    ae3e:	b675                	j	a9ea <__subdf3+0x380>
    ae40:	41c58933          	sub	s2,a1,t3
    ae44:	40e80833          	sub	a6,a6,a4
    ae48:	0125b5b3          	sltu	a1,a1,s2
    ae4c:	40b80a33          	sub	s4,a6,a1
    ae50:	84b6                	mv	s1,a3
    ae52:	b0d5                	j	a736 <__subdf3+0xcc>
    ae54:	7ff00593          	li	a1,2047
    ae58:	0eb40163          	beq	s0,a1,af3a <__subdf3+0x8d0>
    ae5c:	0eb88a63          	beq	a7,a1,af50 <__subdf3+0x8e6>
    ae60:	c60e82e3          	beqz	t4,aac4 <__subdf3+0x45a>
    ae64:	e40794e3          	bnez	a5,acac <__subdf3+0x642>
    ae68:	050e                	slli	a0,a0,0x3
    ae6a:	01d71613          	slli	a2,a4,0x1d
    ae6e:	810d                	srli	a0,a0,0x3
    ae70:	8e49                	or	a2,a2,a0
    ae72:	00375793          	srli	a5,a4,0x3
    ae76:	bd05                	j	aca6 <__subdf3+0x63c>
    ae78:	4315                	li	t1,5
    ae7a:	b18d                	j	aadc <__subdf3+0x472>
    ae7c:	01c767b3          	or	a5,a4,t3
    ae80:	d399                	beqz	a5,ad86 <__subdf3+0x71c>
    ae82:	00400337          	lui	t1,0x400
    ae86:	00677333          	and	t1,a4,t1
    ae8a:	00133313          	seqz	t1,t1
    ae8e:	0312                	slli	t1,t1,0x4
    ae90:	b7a1                	j	add8 <__subdf3+0x76e>
    ae92:	01c76633          	or	a2,a4,t3
    ae96:	00c03633          	snez	a2,a2
    ae9a:	b1c9                	j	ab5c <__subdf3+0x4f2>
    ae9c:	fe078613          	addi	a2,a5,-32 # ff7fffe0 <_eusrstack+0xdf7f7fe0>
    aea0:	02000513          	li	a0,32
    aea4:	00c75933          	srl	s2,a4,a2
    aea8:	00a78a63          	beq	a5,a0,aebc <__subdf3+0x852>
    aeac:	04000613          	li	a2,64
    aeb0:	40f607b3          	sub	a5,a2,a5
    aeb4:	00f717b3          	sll	a5,a4,a5
    aeb8:	00fe6e33          	or	t3,t3,a5
    aebc:	01c03633          	snez	a2,t3
    aec0:	01266633          	or	a2,a2,s2
    aec4:	b341                	j	ac44 <__subdf3+0x5da>
    aec6:	ffe98493          	addi	s1,s3,-2
    aeca:	0014b493          	seqz	s1,s1
    aece:	4601                	li	a2,0
    aed0:	b40d                	j	a8f2 <__subdf3+0x288>
    aed2:	41c58933          	sub	s2,a1,t3
    aed6:	40e807b3          	sub	a5,a6,a4
    aeda:	0125b5b3          	sltu	a1,a1,s2
    aede:	40b78733          	sub	a4,a5,a1
    aee2:	84b6                	mv	s1,a3
    aee4:	bd5d                	j	ad9a <__subdf3+0x730>
    aee6:	8742                	mv	a4,a6
    aee8:	892e                	mv	s2,a1
    aeea:	b04d                	j	a78c <__subdf3+0x122>
    aeec:	7ff00713          	li	a4,2047
    aef0:	0ee78863          	beq	a5,a4,afe0 <__subdf3+0x976>
    aef4:	8742                	mv	a4,a6
    aef6:	892e                	mv	s2,a1
    aef8:	843e                	mv	s0,a5
    aefa:	b4d5                	j	a9de <__subdf3+0x374>
    aefc:	f6098ee3          	beqz	s3,ae78 <__subdf3+0x80e>
    af00:	478d                	li	a5,3
    af02:	1cf98563          	beq	s3,a5,b0cc <__subdf3+0xa62>
    af06:	4789                	li	a5,2
    af08:	14f98a63          	beq	s3,a5,b05c <__subdf3+0x9f2>
    af0c:	1a099b63          	bnez	s3,b0c2 <__subdf3+0xa58>
    af10:	4501                	li	a0,0
    af12:	4315                	li	t1,5
    af14:	7fe00413          	li	s0,2046
    af18:	577d                	li	a4,-1
    af1a:	597d                	li	s2,-1
    af1c:	be09                	j	aa2e <__subdf3+0x3c4>
    af1e:	00b865b3          	or	a1,a6,a1
    af22:	10059263          	bnez	a1,b026 <__subdf3+0x9bc>
    af26:	e0069ce3          	bnez	a3,ad3e <__subdf3+0x6d4>
    af2a:	060e                	slli	a2,a2,0x3
    af2c:	01d81793          	slli	a5,a6,0x1d
    af30:	820d                	srli	a2,a2,0x3
    af32:	8e5d                	or	a2,a2,a5
    af34:	00385793          	srli	a5,a6,0x3
    af38:	b3bd                	j	aca6 <__subdf3+0x63c>
    af3a:	b80e83e3          	beqz	t4,aac0 <__subdf3+0x456>
    af3e:	00971593          	slli	a1,a4,0x9
    af42:	0005c363          	bltz	a1,af48 <__subdf3+0x8de>
    af46:	4341                	li	t1,16
    af48:	7ff00593          	li	a1,2047
    af4c:	f0b89ce3          	bne	a7,a1,ae64 <__subdf3+0x7fa>
    af50:	12078863          	beqz	a5,b080 <__subdf3+0xa16>
    af54:	00981793          	slli	a5,a6,0x9
    af58:	0007c363          	bltz	a5,af5e <__subdf3+0x8f4>
    af5c:	4341                	li	t1,16
    af5e:	d40e97e3          	bnez	t4,acac <__subdf3+0x642>
    af62:	00361793          	slli	a5,a2,0x3
    af66:	838d                	srli	a5,a5,0x3
    af68:	01d81613          	slli	a2,a6,0x1d
    af6c:	8e5d                	or	a2,a2,a5
    af6e:	84b6                	mv	s1,a3
    af70:	00385793          	srli	a5,a6,0x3
    af74:	bb0d                	j	aca6 <__subdf3+0x63c>
    af76:	00c567b3          	or	a5,a0,a2
    af7a:	d7b1                	beqz	a5,aec6 <__subdf3+0x85c>
    af7c:	8e2a                	mv	t3,a0
    af7e:	00757793          	andi	a5,a0,7
    af82:	8732                	mv	a4,a2
    af84:	8972                	mv	s2,t3
    af86:	b039                	j	a794 <__subdf3+0x12a>
    af88:	00b865b3          	or	a1,a6,a1
    af8c:	de058ce3          	beqz	a1,ad84 <__subdf3+0x71a>
    af90:	00361793          	slli	a5,a2,0x3
    af94:	838d                	srli	a5,a5,0x3
    af96:	01d81613          	slli	a2,a6,0x1d
    af9a:	becd                	j	ab8c <__subdf3+0x522>
    af9c:	fe078613          	addi	a2,a5,-32
    afa0:	02000693          	li	a3,32
    afa4:	00c75933          	srl	s2,a4,a2
    afa8:	00d78a63          	beq	a5,a3,afbc <__subdf3+0x952>
    afac:	04000693          	li	a3,64
    afb0:	40f687b3          	sub	a5,a3,a5
    afb4:	00f717b3          	sll	a5,a4,a5
    afb8:	00fe6e33          	or	t3,t3,a5
    afbc:	01c03633          	snez	a2,t3
    afc0:	01266633          	or	a2,a2,s2
    afc4:	be61                	j	ab5c <__subdf3+0x4f2>
    afc6:	00b86e33          	or	t3,a6,a1
    afca:	0e0e0263          	beqz	t3,b0ae <__subdf3+0xa44>
    afce:	00981793          	slli	a5,a6,0x9
    afd2:	8742                	mv	a4,a6
    afd4:	8e2e                	mv	t3,a1
    afd6:	84b6                	mv	s1,a3
    afd8:	0007ce63          	bltz	a5,aff4 <__subdf3+0x98a>
    afdc:	4341                	li	t1,16
    afde:	bbed                	j	add8 <__subdf3+0x76e>
    afe0:	00b86e33          	or	t3,a6,a1
    afe4:	0e0e0163          	beqz	t3,b0c6 <__subdf3+0xa5c>
    afe8:	00981793          	slli	a5,a6,0x9
    afec:	8742                	mv	a4,a6
    afee:	8e2e                	mv	t3,a1
    aff0:	fe07d6e3          	bgez	a5,afdc <__subdf3+0x972>
    aff4:	4301                	li	t1,0
    aff6:	b3cd                	j	add8 <__subdf3+0x76e>
    aff8:	00be0933          	add	s2,t3,a1
    affc:	010707b3          	add	a5,a4,a6
    b000:	00b935b3          	sltu	a1,s2,a1
    b004:	00b78733          	add	a4,a5,a1
    b008:	b1ed                	j	acf2 <__subdf3+0x688>
    b00a:	c6d5                	beqz	a3,b0b6 <__subdf3+0xa4c>
    b00c:	00971793          	slli	a5,a4,0x9
    b010:	0007c363          	bltz	a5,b016 <__subdf3+0x9ac>
    b014:	4341                	li	t1,16
    b016:	7ff00793          	li	a5,2047
    b01a:	d0f89ee3          	bne	a7,a5,ad36 <__subdf3+0x6cc>
    b01e:	00b865b3          	or	a1,a6,a1
    b022:	d0058ee3          	beqz	a1,ad3e <__subdf3+0x6d4>
    b026:	00981793          	slli	a5,a6,0x9
    b02a:	0007c363          	bltz	a5,b030 <__subdf3+0x9c6>
    b02e:	4341                	li	t1,16
    b030:	ee068de3          	beqz	a3,af2a <__subdf3+0x8c0>
    b034:	b9a5                	j	acac <__subdf3+0x642>
    b036:	00b865b3          	or	a1,a6,a1
    b03a:	d40586e3          	beqz	a1,ad86 <__subdf3+0x71c>
    b03e:	00400337          	lui	t1,0x400
    b042:	060e                	slli	a2,a2,0x3
    b044:	00687333          	and	t1,a6,t1
    b048:	01d81793          	slli	a5,a6,0x1d
    b04c:	820d                	srli	a2,a2,0x3
    b04e:	00133313          	seqz	t1,t1
    b052:	8e5d                	or	a2,a2,a5
    b054:	0312                	slli	t1,t1,0x4
    b056:	00385793          	srli	a5,a6,0x3
    b05a:	b1b1                	j	aca6 <__subdf3+0x63c>
    b05c:	e0049ee3          	bnez	s1,ae78 <__subdf3+0x80e>
    b060:	7fe00413          	li	s0,2046
    b064:	577d                	li	a4,-1
    b066:	597d                	li	s2,-1
    b068:	4315                	li	t1,5
    b06a:	f84ff06f          	j	a7ee <__subdf3+0x184>
    b06e:	e00485e3          	beqz	s1,ae78 <__subdf3+0x80e>
    b072:	7fe00413          	li	s0,2046
    b076:	4501                	li	a0,0
    b078:	597d                	li	s2,-1
    b07a:	577d                	li	a4,-1
    b07c:	4315                	li	t1,5
    b07e:	b2ed                	j	aa68 <__subdf3+0x3fe>
    b080:	a40e84e3          	beqz	t4,aac8 <__subdf3+0x45e>
    b084:	b3d5                	j	ae68 <__subdf3+0x7fe>
    b086:	00b865b3          	or	a1,a6,a1
    b08a:	ce058ee3          	beqz	a1,ad86 <__subdf3+0x71c>
    b08e:	00400337          	lui	t1,0x400
    b092:	00361793          	slli	a5,a2,0x3
    b096:	00687333          	and	t1,a6,t1
    b09a:	838d                	srli	a5,a5,0x3
    b09c:	01d81613          	slli	a2,a6,0x1d
    b0a0:	00133313          	seqz	t1,t1
    b0a4:	8e5d                	or	a2,a2,a5
    b0a6:	0312                	slli	t1,t1,0x4
    b0a8:	00385793          	srli	a5,a6,0x3
    b0ac:	beed                	j	aca6 <__subdf3+0x63c>
    b0ae:	4701                	li	a4,0
    b0b0:	84b6                	mv	s1,a3
    b0b2:	4301                	li	t1,0
    b0b4:	b315                	j	add8 <__subdf3+0x76e>
    b0b6:	e6889ae3          	bne	a7,s0,af2a <__subdf3+0x8c0>
    b0ba:	00b865b3          	or	a1,a6,a1
    b0be:	f5a5                	bnez	a1,b026 <__subdf3+0x9bc>
    b0c0:	b5ad                	j	af2a <__subdf3+0x8c0>
    b0c2:	4315                	li	t1,5
    b0c4:	ba2d                	j	a9fe <__subdf3+0x394>
    b0c6:	4701                	li	a4,0
    b0c8:	4301                	li	t1,0
    b0ca:	b339                	j	add8 <__subdf3+0x76e>
    b0cc:	da0486e3          	beqz	s1,ae78 <__subdf3+0x80e>
    b0d0:	4501                	li	a0,0
    b0d2:	7fe00413          	li	s0,2046
    b0d6:	597d                	li	s2,-1
    b0d8:	577d                	li	a4,-1
    b0da:	4315                	li	t1,5
    b0dc:	b271                	j	aa68 <__subdf3+0x3fe>
    b0de:	008005b7          	lui	a1,0x800
    b0e2:	8df9                	and	a1,a1,a4
    b0e4:	4401                	li	s0,0
    b0e6:	f0069263          	bnez	a3,a7ea <__subdf3+0x180>
    b0ea:	f0030063          	beqz	t1,a7ea <__subdf3+0x180>
    b0ee:	00236313          	ori	t1,t1,2
    b0f2:	ef8ff06f          	j	a7ea <__subdf3+0x180>

0000b0f6 <__fixdfsi>:
    b0f6:	88aa                	mv	a7,a0
    b0f8:	002027f3          	frrm	a5
    b0fc:	00100537          	lui	a0,0x100
    b100:	0145d793          	srli	a5,a1,0x14
    b104:	fff50693          	addi	a3,a0,-1 # fffff <_data_lma+0xf3467>
    b108:	7ff7f793          	andi	a5,a5,2047
    b10c:	3fe00713          	li	a4,1022
    b110:	00b6f633          	and	a2,a3,a1
    b114:	8846                	mv	a6,a7
    b116:	81fd                	srli	a1,a1,0x1f
    b118:	00f74b63          	blt	a4,a5,b12e <__fixdfsi+0x38>
    b11c:	e781                	bnez	a5,b124 <__fixdfsi+0x2e>
    b11e:	01166533          	or	a0,a2,a7
    b122:	c14d                	beqz	a0,b1c4 <__fixdfsi+0xce>
    b124:	4501                	li	a0,0
    b126:	4805                	li	a6,1
    b128:	00182073          	csrs	fflags,a6
    b12c:	8082                	ret
    b12e:	41d00713          	li	a4,1053
    b132:	02f75863          	bge	a4,a5,b162 <__fixdfsi+0x6c>
    b136:	800006b7          	lui	a3,0x80000
    b13a:	fff6c693          	not	a3,a3
    b13e:	00d58533          	add	a0,a1,a3
    b142:	cdad                	beqz	a1,b1bc <__fixdfsi+0xc6>
    b144:	41e00713          	li	a4,1054
    b148:	4841                	li	a6,16
    b14a:	fce79fe3          	bne	a5,a4,b128 <__fixdfsi+0x32>
    b14e:	00b61793          	slli	a5,a2,0xb
    b152:	0158d613          	srli	a2,a7,0x15
    b156:	8fd1                	or	a5,a5,a2
    b158:	fbe1                	bnez	a5,b128 <__fixdfsi+0x32>
    b15a:	08ae                	slli	a7,a7,0xb
    b15c:	06089563          	bnez	a7,b1c6 <__fixdfsi+0xd0>
    b160:	8082                	ret
    b162:	43300713          	li	a4,1075
    b166:	8f1d                	sub	a4,a4,a5
    b168:	437d                	li	t1,31
    b16a:	00a666b3          	or	a3,a2,a0
    b16e:	02e35b63          	bge	t1,a4,b1a4 <__fixdfsi+0xae>
    b172:	02000613          	li	a2,32
    b176:	00c70863          	beq	a4,a2,b186 <__fixdfsi+0x90>
    b17a:	c0d78813          	addi	a6,a5,-1011
    b17e:	01069833          	sll	a6,a3,a6
    b182:	01186833          	or	a6,a6,a7
    b186:	41300513          	li	a0,1043
    b18a:	8d1d                	sub	a0,a0,a5
    b18c:	01003833          	snez	a6,a6
    b190:	00a6d533          	srl	a0,a3,a0
    b194:	c199                	beqz	a1,b19a <__fixdfsi+0xa4>
    b196:	40a00533          	neg	a0,a0
    b19a:	f80809e3          	beqz	a6,b12c <__fixdfsi+0x36>
    b19e:	00182073          	csrs	fflags,a6
    b1a2:	b769                	j	b12c <__fixdfsi+0x36>
    b1a4:	bed78793          	addi	a5,a5,-1043
    b1a8:	00f89833          	sll	a6,a7,a5
    b1ac:	00e8d533          	srl	a0,a7,a4
    b1b0:	00f697b3          	sll	a5,a3,a5
    b1b4:	01003833          	snez	a6,a6
    b1b8:	8d5d                	or	a0,a0,a5
    b1ba:	bfe9                	j	b194 <__fixdfsi+0x9e>
    b1bc:	4841                	li	a6,16
    b1be:	00182073          	csrs	fflags,a6
    b1c2:	b7ad                	j	b12c <__fixdfsi+0x36>
    b1c4:	8082                	ret
    b1c6:	4805                	li	a6,1
    b1c8:	00182073          	csrs	fflags,a6
    b1cc:	b785                	j	b12c <__fixdfsi+0x36>

0000b1ce <__floatsidf>:
    b1ce:	1141                	addi	sp,sp,-16
    b1d0:	c606                	sw	ra,12(sp)
    b1d2:	c422                	sw	s0,8(sp)
    b1d4:	c226                	sw	s1,4(sp)
    b1d6:	cd05                	beqz	a0,b20e <__floatsidf+0x40>
    b1d8:	41f55793          	srai	a5,a0,0x1f
    b1dc:	00a7c4b3          	xor	s1,a5,a0
    b1e0:	8c9d                	sub	s1,s1,a5
    b1e2:	842a                	mv	s0,a0
    b1e4:	8526                	mv	a0,s1
    b1e6:	276d                	jal	b990 <__clzsi2>
    b1e8:	41e00693          	li	a3,1054
    b1ec:	8e89                	sub	a3,a3,a0
    b1ee:	47a9                	li	a5,10
    b1f0:	807d                	srli	s0,s0,0x1f
    b1f2:	7ff6f693          	andi	a3,a3,2047
    b1f6:	02a7cd63          	blt	a5,a0,b230 <__floatsidf+0x62>
    b1fa:	472d                	li	a4,11
    b1fc:	8f09                	sub	a4,a4,a0
    b1fe:	00e4d7b3          	srl	a5,s1,a4
    b202:	0555                	addi	a0,a0,21
    b204:	07b2                	slli	a5,a5,0xc
    b206:	00a494b3          	sll	s1,s1,a0
    b20a:	83b1                	srli	a5,a5,0xc
    b20c:	a029                	j	b216 <__floatsidf+0x48>
    b20e:	4401                	li	s0,0
    b210:	4681                	li	a3,0
    b212:	4781                	li	a5,0
    b214:	4481                	li	s1,0
    b216:	07b2                	slli	a5,a5,0xc
    b218:	06d2                	slli	a3,a3,0x14
    b21a:	83b1                	srli	a5,a5,0xc
    b21c:	047e                	slli	s0,s0,0x1f
    b21e:	8fd5                	or	a5,a5,a3
    b220:	8fc1                	or	a5,a5,s0
    b222:	40b2                	lw	ra,12(sp)
    b224:	4422                	lw	s0,8(sp)
    b226:	8526                	mv	a0,s1
    b228:	85be                	mv	a1,a5
    b22a:	4492                	lw	s1,4(sp)
    b22c:	0141                	addi	sp,sp,16
    b22e:	8082                	ret
    b230:	1555                	addi	a0,a0,-11
    b232:	00a497b3          	sll	a5,s1,a0
    b236:	07b2                	slli	a5,a5,0xc
    b238:	83b1                	srli	a5,a5,0xc
    b23a:	4481                	li	s1,0
    b23c:	bfe9                	j	b216 <__floatsidf+0x48>

0000b23e <__fixdfdi>:
    b23e:	882a                	mv	a6,a0
    b240:	002027f3          	frrm	a5
    b244:	00100537          	lui	a0,0x100
    b248:	0145d793          	srli	a5,a1,0x14
    b24c:	fff50713          	addi	a4,a0,-1 # fffff <_data_lma+0xf3467>
    b250:	7ff7f793          	andi	a5,a5,2047
    b254:	3fe00893          	li	a7,1022
    b258:	86c2                	mv	a3,a6
    b25a:	8f6d                	and	a4,a4,a1
    b25c:	01f5d613          	srli	a2,a1,0x1f
    b260:	02f8c263          	blt	a7,a5,b284 <__fixdfdi+0x46>
    b264:	eb91                	bnez	a5,b278 <__fixdfdi+0x3a>
    b266:	01076733          	or	a4,a4,a6
    b26a:	4501                	li	a0,0
    b26c:	4581                	li	a1,0
    b26e:	cf3d                	beqz	a4,b2ec <__fixdfdi+0xae>
    b270:	4685                	li	a3,1
    b272:	0016a073          	csrs	fflags,a3
    b276:	8082                	ret
    b278:	4501                	li	a0,0
    b27a:	4581                	li	a1,0
    b27c:	4685                	li	a3,1
    b27e:	0016a073          	csrs	fflags,a3
    b282:	bfd5                	j	b276 <__fixdfdi+0x38>
    b284:	43d00593          	li	a1,1085
    b288:	02f5da63          	bge	a1,a5,b2bc <__fixdfdi+0x7e>
    b28c:	4585                	li	a1,1
    b28e:	8d91                	sub	a1,a1,a2
    b290:	40b006b3          	neg	a3,a1
    b294:	41f5d513          	srai	a0,a1,0x1f
    b298:	800005b7          	lui	a1,0x80000
    b29c:	8d89                	sub	a1,a1,a0
    b29e:	00d038b3          	snez	a7,a3
    b2a2:	8536                	mv	a0,a3
    b2a4:	411585b3          	sub	a1,a1,a7
    b2a8:	c241                	beqz	a2,b328 <__fixdfdi+0xea>
    b2aa:	43e00613          	li	a2,1086
    b2ae:	46c1                	li	a3,16
    b2b0:	fcc791e3          	bne	a5,a2,b272 <__fixdfdi+0x34>
    b2b4:	01076733          	or	a4,a4,a6
    b2b8:	ff4d                	bnez	a4,b272 <__fixdfdi+0x34>
    b2ba:	8082                	ret
    b2bc:	43200893          	li	a7,1074
    b2c0:	00a765b3          	or	a1,a4,a0
    b2c4:	02f8d563          	bge	a7,a5,b2ee <__fixdfdi+0xb0>
    b2c8:	bad78713          	addi	a4,a5,-1107
    b2cc:	bcd78793          	addi	a5,a5,-1075
    b2d0:	08074363          	bltz	a4,b356 <__fixdfdi+0x118>
    b2d4:	00e815b3          	sll	a1,a6,a4
    b2d8:	4501                	li	a0,0
    b2da:	de51                	beqz	a2,b276 <__fixdfdi+0x38>
    b2dc:	40a00533          	neg	a0,a0
    b2e0:	00a037b3          	snez	a5,a0
    b2e4:	40b005b3          	neg	a1,a1
    b2e8:	8d9d                	sub	a1,a1,a5
    b2ea:	8082                	ret
    b2ec:	8082                	ret
    b2ee:	43300713          	li	a4,1075
    b2f2:	8f1d                	sub	a4,a4,a5
    b2f4:	457d                	li	a0,31
    b2f6:	02e54d63          	blt	a0,a4,b330 <__fixdfdi+0xf2>
    b2fa:	bed78793          	addi	a5,a5,-1043
    b2fe:	00f816b3          	sll	a3,a6,a5
    b302:	00e85533          	srl	a0,a6,a4
    b306:	00f597b3          	sll	a5,a1,a5
    b30a:	00d036b3          	snez	a3,a3
    b30e:	8d5d                	or	a0,a0,a5
    b310:	00e5d5b3          	srl	a1,a1,a4
    b314:	ca01                	beqz	a2,b324 <__fixdfdi+0xe6>
    b316:	40a00533          	neg	a0,a0
    b31a:	00a037b3          	snez	a5,a0
    b31e:	40b005b3          	neg	a1,a1
    b322:	8d9d                	sub	a1,a1,a5
    b324:	f6b9                	bnez	a3,b272 <__fixdfdi+0x34>
    b326:	8082                	ret
    b328:	46c1                	li	a3,16
    b32a:	0016a073          	csrs	fflags,a3
    b32e:	b7a1                	j	b276 <__fixdfdi+0x38>
    b330:	02000513          	li	a0,32
    b334:	00a70863          	beq	a4,a0,b344 <__fixdfdi+0x106>
    b338:	c0d78693          	addi	a3,a5,-1011
    b33c:	00d596b3          	sll	a3,a1,a3
    b340:	0106e6b3          	or	a3,a3,a6
    b344:	41300513          	li	a0,1043
    b348:	8d1d                	sub	a0,a0,a5
    b34a:	00a5d533          	srl	a0,a1,a0
    b34e:	00d036b3          	snez	a3,a3
    b352:	4581                	li	a1,0
    b354:	b7c1                	j	b314 <__fixdfdi+0xd6>
    b356:	46fd                	li	a3,31
    b358:	00185713          	srli	a4,a6,0x1
    b35c:	8e9d                	sub	a3,a3,a5
    b35e:	00d75733          	srl	a4,a4,a3
    b362:	00f595b3          	sll	a1,a1,a5
    b366:	8dd9                	or	a1,a1,a4
    b368:	00f81533          	sll	a0,a6,a5
    b36c:	b7bd                	j	b2da <__fixdfdi+0x9c>

0000b36e <__floatdidf>:
    b36e:	1101                	addi	sp,sp,-32
    b370:	ce06                	sw	ra,28(sp)
    b372:	cc22                	sw	s0,24(sp)
    b374:	ca26                	sw	s1,20(sp)
    b376:	c84a                	sw	s2,16(sp)
    b378:	c64e                	sw	s3,12(sp)
    b37a:	c452                	sw	s4,8(sp)
    b37c:	c256                	sw	s5,4(sp)
    b37e:	00202af3          	frrm	s5
    b382:	00b567b3          	or	a5,a0,a1
    b386:	c3a1                	beqz	a5,b3c6 <__floatdidf+0x58>
    b388:	89aa                	mv	s3,a0
    b38a:	8a2e                	mv	s4,a1
    b38c:	01f5d913          	srli	s2,a1,0x1f
    b390:	0605c163          	bltz	a1,b3f2 <__floatdidf+0x84>
    b394:	842e                	mv	s0,a1
    b396:	84d2                	mv	s1,s4
    b398:	060a0a63          	beqz	s4,b40c <__floatdidf+0x9e>
    b39c:	8552                	mv	a0,s4
    b39e:	2bcd                	jal	b990 <__clzsi2>
    b3a0:	43e00693          	li	a3,1086
    b3a4:	8e89                	sub	a3,a3,a0
    b3a6:	43300793          	li	a5,1075
    b3aa:	08d7ce63          	blt	a5,a3,b446 <__floatdidf+0xd8>
    b3ae:	00ca1793          	slli	a5,s4,0xc
    b3b2:	462d                	li	a2,11
    b3b4:	874e                	mv	a4,s3
    b3b6:	7ff6f693          	andi	a3,a3,2047
    b3ba:	83b1                	srli	a5,a5,0xc
    b3bc:	00a65963          	bge	a2,a0,b3ce <__floatdidf+0x60>
    b3c0:	ff550613          	addi	a2,a0,-11
    b3c4:	a09d                	j	b42a <__floatdidf+0xbc>
    b3c6:	4901                	li	s2,0
    b3c8:	4681                	li	a3,0
    b3ca:	4781                	li	a5,0
    b3cc:	4701                	li	a4,0
    b3ce:	07b2                	slli	a5,a5,0xc
    b3d0:	06d2                	slli	a3,a3,0x14
    b3d2:	83b1                	srli	a5,a5,0xc
    b3d4:	01f91613          	slli	a2,s2,0x1f
    b3d8:	8fd5                	or	a5,a5,a3
    b3da:	8fd1                	or	a5,a5,a2
    b3dc:	853a                	mv	a0,a4
    b3de:	85be                	mv	a1,a5
    b3e0:	40f2                	lw	ra,28(sp)
    b3e2:	4462                	lw	s0,24(sp)
    b3e4:	44d2                	lw	s1,20(sp)
    b3e6:	4942                	lw	s2,16(sp)
    b3e8:	49b2                	lw	s3,12(sp)
    b3ea:	4a22                	lw	s4,8(sp)
    b3ec:	4a92                	lw	s5,4(sp)
    b3ee:	6105                	addi	sp,sp,32
    b3f0:	8082                	ret
    b3f2:	40a00533          	neg	a0,a0
    b3f6:	00a03733          	snez	a4,a0
    b3fa:	40b00a33          	neg	s4,a1
    b3fe:	40ea0a33          	sub	s4,s4,a4
    b402:	89aa                	mv	s3,a0
    b404:	842e                	mv	s0,a1
    b406:	84d2                	mv	s1,s4
    b408:	f80a1ae3          	bnez	s4,b39c <__floatdidf+0x2e>
    b40c:	854e                	mv	a0,s3
    b40e:	2349                	jal	b990 <__clzsi2>
    b410:	862a                	mv	a2,a0
    b412:	43e00693          	li	a3,1086
    b416:	02050513          	addi	a0,a0,32
    b41a:	8e89                	sub	a3,a3,a0
    b41c:	02a00793          	li	a5,42
    b420:	7ff6f693          	andi	a3,a3,2047
    b424:	0ca7c263          	blt	a5,a0,b4e8 <__floatdidf+0x17a>
    b428:	0655                	addi	a2,a2,21
    b42a:	02b00713          	li	a4,43
    b42e:	8f09                	sub	a4,a4,a0
    b430:	00ca17b3          	sll	a5,s4,a2
    b434:	00e9d733          	srl	a4,s3,a4
    b438:	8f5d                	or	a4,a4,a5
    b43a:	00c71793          	slli	a5,a4,0xc
    b43e:	83b1                	srli	a5,a5,0xc
    b440:	00c99733          	sll	a4,s3,a2
    b444:	b769                	j	b3ce <__floatdidf+0x60>
    b446:	43600793          	li	a5,1078
    b44a:	02d7da63          	bge	a5,a3,b47e <__floatdidf+0x110>
    b44e:	44a1                	li	s1,8
    b450:	8c89                	sub	s1,s1,a0
    b452:	fe048613          	addi	a2,s1,-32
    b456:	0c064f63          	bltz	a2,b534 <__floatdidf+0x1c6>
    b45a:	00ca5633          	srl	a2,s4,a2
    b45e:	4481                	li	s1,0
    b460:	01850713          	addi	a4,a0,24
    b464:	03850793          	addi	a5,a0,56
    b468:	0a074963          	bltz	a4,b51a <__floatdidf+0x1ac>
    b46c:	00e99a33          	sll	s4,s3,a4
    b470:	4981                	li	s3,0
    b472:	0149e9b3          	or	s3,s3,s4
    b476:	013039b3          	snez	s3,s3
    b47a:	013669b3          	or	s3,a2,s3
    b47e:	47a1                	li	a5,8
    b480:	04a7c763          	blt	a5,a0,b4ce <__floatdidf+0x160>
    b484:	ff800737          	lui	a4,0xff800
    b488:	177d                	addi	a4,a4,-1
    b48a:	0079f793          	andi	a5,s3,7
    b48e:	8cf9                	and	s1,s1,a4
    b490:	c7a5                	beqz	a5,b4f8 <__floatdidf+0x18a>
    b492:	4789                	li	a5,2
    b494:	0afa8c63          	beq	s5,a5,b54c <__floatdidf+0x1de>
    b498:	478d                	li	a5,3
    b49a:	0efa8563          	beq	s5,a5,b584 <__floatdidf+0x216>
    b49e:	0c0a8b63          	beqz	s5,b574 <__floatdidf+0x206>
    b4a2:	00949713          	slli	a4,s1,0x9
    b4a6:	7ff6f693          	andi	a3,a3,2047
    b4aa:	01469593          	slli	a1,a3,0x14
    b4ae:	00c75693          	srli	a3,a4,0xc
    b4b2:	8ecd                	or	a3,a3,a1
    b4b4:	0039d993          	srli	s3,s3,0x3
    b4b8:	01f91613          	slli	a2,s2,0x1f
    b4bc:	04f6                	slli	s1,s1,0x1d
    b4be:	0134e4b3          	or	s1,s1,s3
    b4c2:	8e55                	or	a2,a2,a3
    b4c4:	8526                	mv	a0,s1
    b4c6:	85b2                	mv	a1,a2
    b4c8:	0010e073          	csrsi	fflags,1
    b4cc:	bf11                	j	b3e0 <__floatdidf+0x72>
    b4ce:	02800793          	li	a5,40
    b4d2:	ff850713          	addi	a4,a0,-8
    b4d6:	8f89                	sub	a5,a5,a0
    b4d8:	00f9d7b3          	srl	a5,s3,a5
    b4dc:	00e494b3          	sll	s1,s1,a4
    b4e0:	8cdd                	or	s1,s1,a5
    b4e2:	00e999b3          	sll	s3,s3,a4
    b4e6:	bf79                	j	b484 <__floatdidf+0x116>
    b4e8:	ff560713          	addi	a4,a2,-11 # fffff5 <_data_lma+0xff345d>
    b4ec:	00e997b3          	sll	a5,s3,a4
    b4f0:	07b2                	slli	a5,a5,0xc
    b4f2:	83b1                	srli	a5,a5,0xc
    b4f4:	4701                	li	a4,0
    b4f6:	bde1                	j	b3ce <__floatdidf+0x60>
    b4f8:	00949713          	slli	a4,s1,0x9
    b4fc:	7ff6f693          	andi	a3,a3,2047
    b500:	06d2                	slli	a3,a3,0x14
    b502:	8331                	srli	a4,a4,0xc
    b504:	0039d513          	srli	a0,s3,0x3
    b508:	04f6                	slli	s1,s1,0x1d
    b50a:	01f91793          	slli	a5,s2,0x1f
    b50e:	8ed9                	or	a3,a3,a4
    b510:	8cc9                	or	s1,s1,a0
    b512:	8fd5                	or	a5,a5,a3
    b514:	8526                	mv	a0,s1
    b516:	85be                	mv	a1,a5
    b518:	b5e1                	j	b3e0 <__floatdidf+0x72>
    b51a:	45fd                	li	a1,31
    b51c:	0019d713          	srli	a4,s3,0x1
    b520:	8d9d                	sub	a1,a1,a5
    b522:	00b75733          	srl	a4,a4,a1
    b526:	00fa1a33          	sll	s4,s4,a5
    b52a:	01476a33          	or	s4,a4,s4
    b52e:	00f999b3          	sll	s3,s3,a5
    b532:	b781                	j	b472 <__floatdidf+0x104>
    b534:	477d                	li	a4,31
    b536:	8f05                	sub	a4,a4,s1
    b538:	001a1793          	slli	a5,s4,0x1
    b53c:	0099d633          	srl	a2,s3,s1
    b540:	00e797b3          	sll	a5,a5,a4
    b544:	8e5d                	or	a2,a2,a5
    b546:	009a54b3          	srl	s1,s4,s1
    b54a:	bf19                	j	b460 <__floatdidf+0xf2>
    b54c:	f4045be3          	bgez	s0,b4a2 <__floatdidf+0x134>
    b550:	00898713          	addi	a4,s3,8
    b554:	013739b3          	sltu	s3,a4,s3
    b558:	94ce                	add	s1,s1,s3
    b55a:	008007b7          	lui	a5,0x800
    b55e:	8fe5                	and	a5,a5,s1
    b560:	89ba                	mv	s3,a4
    b562:	d3a1                	beqz	a5,b4a2 <__floatdidf+0x134>
    b564:	ff8007b7          	lui	a5,0xff800
    b568:	17fd                	addi	a5,a5,-1
    b56a:	43f00693          	li	a3,1087
    b56e:	8cfd                	and	s1,s1,a5
    b570:	8e89                	sub	a3,a3,a0
    b572:	bf05                	j	b4a2 <__floatdidf+0x134>
    b574:	00f9f793          	andi	a5,s3,15
    b578:	4711                	li	a4,4
    b57a:	f2e784e3          	beq	a5,a4,b4a2 <__floatdidf+0x134>
    b57e:	00498713          	addi	a4,s3,4
    b582:	bfc9                	j	b554 <__floatdidf+0x1e6>
    b584:	fc0456e3          	bgez	s0,b550 <__floatdidf+0x1e2>
    b588:	bf29                	j	b4a2 <__floatdidf+0x134>

0000b58a <__extendsfdf2>:
    b58a:	1141                	addi	sp,sp,-16
    b58c:	c606                	sw	ra,12(sp)
    b58e:	c422                	sw	s0,8(sp)
    b590:	c226                	sw	s1,4(sp)
    b592:	e00507d3          	fmv.x.w	a5,fa0
    b596:	00202773          	frrm	a4
    b59a:	0177d513          	srli	a0,a5,0x17
    b59e:	0ff57513          	andi	a0,a0,255
    b5a2:	00150713          	addi	a4,a0,1
    b5a6:	00979413          	slli	s0,a5,0x9
    b5aa:	0fe77713          	andi	a4,a4,254
    b5ae:	8025                	srli	s0,s0,0x9
    b5b0:	01f7d493          	srli	s1,a5,0x1f
    b5b4:	c31d                	beqz	a4,b5da <__extendsfdf2+0x50>
    b5b6:	00345793          	srli	a5,s0,0x3
    b5ba:	38050513          	addi	a0,a0,896
    b5be:	0476                	slli	s0,s0,0x1d
    b5c0:	07b2                	slli	a5,a5,0xc
    b5c2:	0552                	slli	a0,a0,0x14
    b5c4:	83b1                	srli	a5,a5,0xc
    b5c6:	8fc9                	or	a5,a5,a0
    b5c8:	04fe                	slli	s1,s1,0x1f
    b5ca:	8fc5                	or	a5,a5,s1
    b5cc:	8522                	mv	a0,s0
    b5ce:	85be                	mv	a1,a5
    b5d0:	40b2                	lw	ra,12(sp)
    b5d2:	4422                	lw	s0,8(sp)
    b5d4:	4492                	lw	s1,4(sp)
    b5d6:	0141                	addi	sp,sp,16
    b5d8:	8082                	ret
    b5da:	e90d                	bnez	a0,b60c <__extendsfdf2+0x82>
    b5dc:	c435                	beqz	s0,b648 <__extendsfdf2+0xbe>
    b5de:	8522                	mv	a0,s0
    b5e0:	2e45                	jal	b990 <__clzsi2>
    b5e2:	47a9                	li	a5,10
    b5e4:	08a7c163          	blt	a5,a0,b666 <__extendsfdf2+0xdc>
    b5e8:	472d                	li	a4,11
    b5ea:	8f09                	sub	a4,a4,a0
    b5ec:	01550793          	addi	a5,a0,21
    b5f0:	00e45733          	srl	a4,s0,a4
    b5f4:	00f41433          	sll	s0,s0,a5
    b5f8:	00c71793          	slli	a5,a4,0xc
    b5fc:	38900713          	li	a4,905
    b600:	40a70533          	sub	a0,a4,a0
    b604:	83b1                	srli	a5,a5,0xc
    b606:	7ff57513          	andi	a0,a0,2047
    b60a:	bf5d                	j	b5c0 <__extendsfdf2+0x36>
    b60c:	c815                	beqz	s0,b640 <__extendsfdf2+0xb6>
    b60e:	00080737          	lui	a4,0x80
    b612:	00345793          	srli	a5,s0,0x3
    b616:	8fd9                	or	a5,a5,a4
    b618:	00100737          	lui	a4,0x100
    b61c:	177d                	addi	a4,a4,-1
    b61e:	00941613          	slli	a2,s0,0x9
    b622:	01d41693          	slli	a3,s0,0x1d
    b626:	8ff9                	and	a5,a5,a4
    b628:	02065363          	bgez	a2,b64e <__extendsfdf2+0xc4>
    b62c:	8f7d                	and	a4,a4,a5
    b62e:	01f49793          	slli	a5,s1,0x1f
    b632:	7ff004b7          	lui	s1,0x7ff00
    b636:	8cd9                	or	s1,s1,a4
    b638:	8fc5                	or	a5,a5,s1
    b63a:	8536                	mv	a0,a3
    b63c:	85be                	mv	a1,a5
    b63e:	bf49                	j	b5d0 <__extendsfdf2+0x46>
    b640:	7ff00513          	li	a0,2047
    b644:	4781                	li	a5,0
    b646:	bfad                	j	b5c0 <__extendsfdf2+0x36>
    b648:	4501                	li	a0,0
    b64a:	4781                	li	a5,0
    b64c:	bf95                	j	b5c0 <__extendsfdf2+0x36>
    b64e:	8f7d                	and	a4,a4,a5
    b650:	01f49793          	slli	a5,s1,0x1f
    b654:	7ff004b7          	lui	s1,0x7ff00
    b658:	8f45                	or	a4,a4,s1
    b65a:	8fd9                	or	a5,a5,a4
    b65c:	8536                	mv	a0,a3
    b65e:	85be                	mv	a1,a5
    b660:	00186073          	csrsi	fflags,16
    b664:	b7b5                	j	b5d0 <__extendsfdf2+0x46>
    b666:	ff550713          	addi	a4,a0,-11
    b66a:	00e41733          	sll	a4,s0,a4
    b66e:	4401                	li	s0,0
    b670:	b761                	j	b5f8 <__extendsfdf2+0x6e>

0000b672 <__truncdfsf2>:
    b672:	002028f3          	frrm	a7
    b676:	0145d693          	srli	a3,a1,0x14
    b67a:	00c59713          	slli	a4,a1,0xc
    b67e:	7ff6f693          	andi	a3,a3,2047
    b682:	8331                	srli	a4,a4,0xc
    b684:	00168813          	addi	a6,a3,1 # 80000001 <_eusrstack+0x5fff8001>
    b688:	070e                	slli	a4,a4,0x3
    b68a:	01d55613          	srli	a2,a0,0x1d
    b68e:	7fe87813          	andi	a6,a6,2046
    b692:	81fd                	srli	a1,a1,0x1f
    b694:	8f51                	or	a4,a4,a2
    b696:	00351793          	slli	a5,a0,0x3
    b69a:	0a080b63          	beqz	a6,b750 <__truncdfsf2+0xde>
    b69e:	c8068613          	addi	a2,a3,-896
    b6a2:	0fe00813          	li	a6,254
    b6a6:	02c85f63          	bge	a6,a2,b6e4 <__truncdfsf2+0x72>
    b6aa:	12088f63          	beqz	a7,b7e8 <__truncdfsf2+0x176>
    b6ae:	478d                	li	a5,3
    b6b0:	26f88063          	beq	a7,a5,b910 <__truncdfsf2+0x29e>
    b6b4:	4789                	li	a5,2
    b6b6:	26f88763          	beq	a7,a5,b924 <__truncdfsf2+0x2b2>
    b6ba:	26089663          	bnez	a7,b926 <__truncdfsf2+0x2b4>
    b6be:	0fe00613          	li	a2,254
    b6c2:	470d                	li	a4,3
    b6c4:	4515                	li	a0,5
    b6c6:	071a                	slli	a4,a4,0x6
    b6c8:	8325                	srli	a4,a4,0x9
    b6ca:	0ff67613          	andi	a2,a2,255
    b6ce:	00971793          	slli	a5,a4,0x9
    b6d2:	065e                	slli	a2,a2,0x17
    b6d4:	83a5                	srli	a5,a5,0x9
    b6d6:	05fe                	slli	a1,a1,0x1f
    b6d8:	8fd1                	or	a5,a5,a2
    b6da:	8fcd                	or	a5,a5,a1
    b6dc:	e53d                	bnez	a0,b74a <__truncdfsf2+0xd8>
    b6de:	f0078553          	fmv.w.x	fa0,a5
    b6e2:	8082                	ret
    b6e4:	10c05a63          	blez	a2,b7f8 <__truncdfsf2+0x186>
    b6e8:	051a                	slli	a0,a0,0x6
    b6ea:	00a03533          	snez	a0,a0
    b6ee:	070e                	slli	a4,a4,0x3
    b6f0:	83f5                	srli	a5,a5,0x1d
    b6f2:	8f49                	or	a4,a4,a0
    b6f4:	8f5d                	or	a4,a4,a5
    b6f6:	00777793          	andi	a5,a4,7
    b6fa:	4501                	li	a0,0
    b6fc:	d7e9                	beqz	a5,b6c6 <__truncdfsf2+0x54>
    b6fe:	4789                	li	a5,2
    b700:	1ef88e63          	beq	a7,a5,b8fc <__truncdfsf2+0x28a>
    b704:	478d                	li	a5,3
    b706:	16f88863          	beq	a7,a5,b876 <__truncdfsf2+0x204>
    b70a:	4781                	li	a5,0
    b70c:	4505                	li	a0,1
    b70e:	fa089ce3          	bnez	a7,b6c6 <__truncdfsf2+0x54>
    b712:	00f77693          	andi	a3,a4,15
    b716:	4811                	li	a6,4
    b718:	4505                	li	a0,1
    b71a:	01068463          	beq	a3,a6,b722 <__truncdfsf2+0xb0>
    b71e:	0711                	addi	a4,a4,4
    b720:	4505                	li	a0,1
    b722:	c399                	beqz	a5,b728 <__truncdfsf2+0xb6>
    b724:	00256513          	ori	a0,a0,2
    b728:	00571793          	slli	a5,a4,0x5
    b72c:	f807dde3          	bgez	a5,b6c6 <__truncdfsf2+0x54>
    b730:	0605                	addi	a2,a2,1
    b732:	0ff00793          	li	a5,255
    b736:	f8f618e3          	bne	a2,a5,b6c6 <__truncdfsf2+0x54>
    b73a:	00556513          	ori	a0,a0,5
    b73e:	10089c63          	bnez	a7,b856 <__truncdfsf2+0x1e4>
    b742:	05fe                	slli	a1,a1,0x1f
    b744:	7f8007b7          	lui	a5,0x7f800
    b748:	8fcd                	or	a5,a5,a1
    b74a:	00152073          	csrs	fflags,a0
    b74e:	bf41                	j	b6de <__truncdfsf2+0x6c>
    b750:	00f76633          	or	a2,a4,a5
    b754:	eaa9                	bnez	a3,b7a6 <__truncdfsf2+0x134>
    b756:	01f59793          	slli	a5,a1,0x1f
    b75a:	d251                	beqz	a2,b6de <__truncdfsf2+0x6c>
    b75c:	4789                	li	a5,2
    b75e:	16f88d63          	beq	a7,a5,b8d8 <__truncdfsf2+0x266>
    b762:	478d                	li	a5,3
    b764:	14f88563          	beq	a7,a5,b8ae <__truncdfsf2+0x23c>
    b768:	4705                	li	a4,1
    b76a:	4789                	li	a5,2
    b76c:	4685                	li	a3,1
    b76e:	1e088963          	beqz	a7,b960 <__truncdfsf2+0x2ee>
    b772:	83ed                	srli	a5,a5,0x1b
    b774:	0017c793          	xori	a5,a5,1
    b778:	8b85                	andi	a5,a5,1
    b77a:	4505                	li	a0,1
    b77c:	20068163          	beqz	a3,b97e <__truncdfsf2+0x30c>
    b780:	4689                	li	a3,2
    b782:	18d88563          	beq	a7,a3,b90c <__truncdfsf2+0x29a>
    b786:	468d                	li	a3,3
    b788:	16d88863          	beq	a7,a3,b8f8 <__truncdfsf2+0x286>
    b78c:	4601                	li	a2,0
    b78e:	f80882e3          	beqz	a7,b712 <__truncdfsf2+0xa0>
    b792:	4505                	li	a0,1
    b794:	10079a63          	bnez	a5,b8a8 <__truncdfsf2+0x236>
    b798:	00571793          	slli	a5,a4,0x5
    b79c:	4605                	li	a2,1
    b79e:	f207c4e3          	bltz	a5,b6c6 <__truncdfsf2+0x54>
    b7a2:	4601                	li	a2,0
    b7a4:	b70d                	j	b6c6 <__truncdfsf2+0x54>
    b7a6:	ca15                	beqz	a2,b7da <__truncdfsf2+0x168>
    b7a8:	7ff00793          	li	a5,2047
    b7ac:	4501                	li	a0,0
    b7ae:	00f69863          	bne	a3,a5,b7be <__truncdfsf2+0x14c>
    b7b2:	00400637          	lui	a2,0x400
    b7b6:	8f71                	and	a4,a4,a2
    b7b8:	00173513          	seqz	a0,a4
    b7bc:	0512                	slli	a0,a0,0x4
    b7be:	00400737          	lui	a4,0x400
    b7c2:	0ff00613          	li	a2,255
    b7c6:	00971793          	slli	a5,a4,0x9
    b7ca:	4581                	li	a1,0
    b7cc:	065e                	slli	a2,a2,0x17
    b7ce:	83a5                	srli	a5,a5,0x9
    b7d0:	05fe                	slli	a1,a1,0x1f
    b7d2:	8fd1                	or	a5,a5,a2
    b7d4:	8fcd                	or	a5,a5,a1
    b7d6:	d501                	beqz	a0,b6de <__truncdfsf2+0x6c>
    b7d8:	bf8d                	j	b74a <__truncdfsf2+0xd8>
    b7da:	05fe                	slli	a1,a1,0x1f
    b7dc:	7f8007b7          	lui	a5,0x7f800
    b7e0:	8fcd                	or	a5,a5,a1
    b7e2:	f0078553          	fmv.w.x	fa0,a5
    b7e6:	8082                	ret
    b7e8:	05fe                	slli	a1,a1,0x1f
    b7ea:	7f8007b7          	lui	a5,0x7f800
    b7ee:	8fcd                	or	a5,a5,a1
    b7f0:	4515                	li	a0,5
    b7f2:	00152073          	csrs	fflags,a0
    b7f6:	b5e5                	j	b6de <__truncdfsf2+0x6c>
    b7f8:	5525                	li	a0,-23
    b7fa:	08a64763          	blt	a2,a0,b888 <__truncdfsf2+0x216>
    b7fe:	4579                	li	a0,30
    b800:	00800337          	lui	t1,0x800
    b804:	8d11                	sub	a0,a0,a2
    b806:	487d                	li	a6,31
    b808:	00676733          	or	a4,a4,t1
    b80c:	0aa85863          	bge	a6,a0,b8bc <__truncdfsf2+0x24a>
    b810:	5879                	li	a6,-2
    b812:	40c80633          	sub	a2,a6,a2
    b816:	02000813          	li	a6,32
    b81a:	00c75633          	srl	a2,a4,a2
    b81e:	01050763          	beq	a0,a6,b82c <__truncdfsf2+0x1ba>
    b822:	ca268693          	addi	a3,a3,-862
    b826:	00d716b3          	sll	a3,a4,a3
    b82a:	8fd5                	or	a5,a5,a3
    b82c:	00f03733          	snez	a4,a5
    b830:	8f51                	or	a4,a4,a2
    b832:	01f59793          	slli	a5,a1,0x1f
    b836:	ea0704e3          	beqz	a4,b6de <__truncdfsf2+0x6c>
    b83a:	00171793          	slli	a5,a4,0x1
    b83e:	0077f613          	andi	a2,a5,7
    b842:	00777693          	andi	a3,a4,7
    b846:	10061063          	bnez	a2,b946 <__truncdfsf2+0x2d4>
    b84a:	83ed                	srli	a5,a5,0x1b
    b84c:	0017c793          	xori	a5,a5,1
    b850:	8b85                	andi	a5,a5,1
    b852:	4501                	li	a0,0
    b854:	b725                	j	b77c <__truncdfsf2+0x10a>
    b856:	478d                	li	a5,3
    b858:	0cf88363          	beq	a7,a5,b91e <__truncdfsf2+0x2ac>
    b85c:	4789                	li	a5,2
    b85e:	08f88463          	beq	a7,a5,b8e6 <__truncdfsf2+0x274>
    b862:	ff000737          	lui	a4,0xff000
    b866:	1779                	addi	a4,a4,-2
    b868:	05fe                	slli	a1,a1,0x1f
    b86a:	8305                	srli	a4,a4,0x1
    b86c:	00b767b3          	or	a5,a4,a1
    b870:	00152073          	csrs	fflags,a0
    b874:	b5ad                	j	b6de <__truncdfsf2+0x6c>
    b876:	4781                	li	a5,0
    b878:	852e                	mv	a0,a1
    b87a:	ea0594e3          	bnez	a1,b722 <__truncdfsf2+0xb0>
    b87e:	0721                	addi	a4,a4,8
    b880:	4505                	li	a0,1
    b882:	ea0791e3          	bnez	a5,b724 <__truncdfsf2+0xb2>
    b886:	b54d                	j	b728 <__truncdfsf2+0xb6>
    b888:	4709                	li	a4,2
    b88a:	04e88763          	beq	a7,a4,b8d8 <__truncdfsf2+0x266>
    b88e:	478d                	li	a5,3
    b890:	00f88f63          	beq	a7,a5,b8ae <__truncdfsf2+0x23c>
    b894:	04088c63          	beqz	a7,b8ec <__truncdfsf2+0x27a>
    b898:	0ce88f63          	beq	a7,a4,b976 <__truncdfsf2+0x304>
    b89c:	0cf88963          	beq	a7,a5,b96e <__truncdfsf2+0x2fc>
    b8a0:	4785                	li	a5,1
    b8a2:	4705                	li	a4,1
    b8a4:	04088863          	beqz	a7,b8f4 <__truncdfsf2+0x282>
    b8a8:	853e                	mv	a0,a5
    b8aa:	4601                	li	a2,0
    b8ac:	bda5                	j	b724 <__truncdfsf2+0xb2>
    b8ae:	4685                	li	a3,1
    b8b0:	4705                	li	a4,1
    b8b2:	4789                	li	a5,2
    b8b4:	ea059fe3          	bnez	a1,b772 <__truncdfsf2+0x100>
    b8b8:	07a1                	addi	a5,a5,8
    b8ba:	bd65                	j	b772 <__truncdfsf2+0x100>
    b8bc:	c8268693          	addi	a3,a3,-894
    b8c0:	00d79633          	sll	a2,a5,a3
    b8c4:	00c03633          	snez	a2,a2
    b8c8:	00d716b3          	sll	a3,a4,a3
    b8cc:	00a7d7b3          	srl	a5,a5,a0
    b8d0:	00d66733          	or	a4,a2,a3
    b8d4:	8f5d                	or	a4,a4,a5
    b8d6:	bfb1                	j	b832 <__truncdfsf2+0x1c0>
    b8d8:	4685                	li	a3,1
    b8da:	4705                	li	a4,1
    b8dc:	4789                	li	a5,2
    b8de:	e8058ae3          	beqz	a1,b772 <__truncdfsf2+0x100>
    b8e2:	07a1                	addi	a5,a5,8
    b8e4:	b579                	j	b772 <__truncdfsf2+0x100>
    b8e6:	ddb5                	beqz	a1,b862 <__truncdfsf2+0x1f0>
    b8e8:	4585                	li	a1,1
    b8ea:	bda1                	j	b742 <__truncdfsf2+0xd0>
    b8ec:	4705                	li	a4,1
    b8ee:	4601                	li	a2,0
    b8f0:	4785                	li	a5,1
    b8f2:	b505                	j	b712 <__truncdfsf2+0xa0>
    b8f4:	4601                	li	a2,0
    b8f6:	b525                	j	b71e <__truncdfsf2+0xac>
    b8f8:	4601                	li	a2,0
    b8fa:	bfbd                	j	b878 <__truncdfsf2+0x206>
    b8fc:	4781                	li	a5,0
    b8fe:	4505                	li	a0,1
    b900:	e20581e3          	beqz	a1,b722 <__truncdfsf2+0xb0>
    b904:	0721                	addi	a4,a4,8
    b906:	e0079fe3          	bnez	a5,b724 <__truncdfsf2+0xb2>
    b90a:	bd39                	j	b728 <__truncdfsf2+0xb6>
    b90c:	4601                	li	a2,0
    b90e:	bfc5                	j	b8fe <__truncdfsf2+0x28c>
    b910:	e185                	bnez	a1,b930 <__truncdfsf2+0x2be>
    b912:	7f8007b7          	lui	a5,0x7f800
    b916:	4515                	li	a0,5
    b918:	00152073          	csrs	fflags,a0
    b91c:	b3c9                	j	b6de <__truncdfsf2+0x6c>
    b91e:	e20582e3          	beqz	a1,b742 <__truncdfsf2+0xd0>
    b922:	b781                	j	b862 <__truncdfsf2+0x1f0>
    b924:	e999                	bnez	a1,b93a <__truncdfsf2+0x2c8>
    b926:	577d                	li	a4,-1
    b928:	0fe00613          	li	a2,254
    b92c:	4515                	li	a0,5
    b92e:	b509                	j	b730 <__truncdfsf2+0xbe>
    b930:	0fe00613          	li	a2,254
    b934:	577d                	li	a4,-1
    b936:	4515                	li	a0,5
    b938:	bbc5                	j	b728 <__truncdfsf2+0xb6>
    b93a:	ff8007b7          	lui	a5,0xff800
    b93e:	4515                	li	a0,5
    b940:	00152073          	csrs	fflags,a0
    b944:	bb69                	j	b6de <__truncdfsf2+0x6c>
    b946:	4609                	li	a2,2
    b948:	f8c88be3          	beq	a7,a2,b8de <__truncdfsf2+0x26c>
    b94c:	460d                	li	a2,3
    b94e:	f6c883e3          	beq	a7,a2,b8b4 <__truncdfsf2+0x242>
    b952:	e20890e3          	bnez	a7,b772 <__truncdfsf2+0x100>
    b956:	00f7f613          	andi	a2,a5,15
    b95a:	4511                	li	a0,4
    b95c:	e0a60be3          	beq	a2,a0,b772 <__truncdfsf2+0x100>
    b960:	0791                	addi	a5,a5,4
    b962:	83ed                	srli	a5,a5,0x1b
    b964:	0017c793          	xori	a5,a5,1
    b968:	8b85                	andi	a5,a5,1
    b96a:	4505                	li	a0,1
    b96c:	bd01                	j	b77c <__truncdfsf2+0x10a>
    b96e:	4705                	li	a4,1
    b970:	4601                	li	a2,0
    b972:	4785                	li	a5,1
    b974:	b711                	j	b878 <__truncdfsf2+0x206>
    b976:	4705                	li	a4,1
    b978:	4601                	li	a2,0
    b97a:	4785                	li	a5,1
    b97c:	b749                	j	b8fe <__truncdfsf2+0x28c>
    b97e:	e0078de3          	beqz	a5,b798 <__truncdfsf2+0x126>
    b982:	f505                	bnez	a0,b8aa <__truncdfsf2+0x238>
    b984:	00571793          	slli	a5,a4,0x5
    b988:	4605                	li	a2,1
    b98a:	d207cee3          	bltz	a5,b6c6 <__truncdfsf2+0x54>
    b98e:	bd11                	j	b7a2 <__truncdfsf2+0x130>

0000b990 <__clzsi2>:
    b990:	67c1                	lui	a5,0x10
    b992:	02f57c63          	bgeu	a0,a5,b9ca <__clzsi2+0x3a>
    b996:	0ff00793          	li	a5,255
    b99a:	02000713          	li	a4,32
    b99e:	00a7eb63          	bltu	a5,a0,b9b4 <__clzsi2+0x24>
    b9a2:	00001797          	auipc	a5,0x1
    b9a6:	0f678793          	addi	a5,a5,246 # ca98 <__clz_tab>
    b9aa:	97aa                	add	a5,a5,a0
    b9ac:	2388                	lbu	a0,0(a5)
    b9ae:	40a70533          	sub	a0,a4,a0
    b9b2:	8082                	ret
    b9b4:	8121                	srli	a0,a0,0x8
    b9b6:	00001797          	auipc	a5,0x1
    b9ba:	0e278793          	addi	a5,a5,226 # ca98 <__clz_tab>
    b9be:	97aa                	add	a5,a5,a0
    b9c0:	2388                	lbu	a0,0(a5)
    b9c2:	4761                	li	a4,24
    b9c4:	40a70533          	sub	a0,a4,a0
    b9c8:	8082                	ret
    b9ca:	010007b7          	lui	a5,0x1000
    b9ce:	00f56d63          	bltu	a0,a5,b9e8 <__clzsi2+0x58>
    b9d2:	8161                	srli	a0,a0,0x18
    b9d4:	00001797          	auipc	a5,0x1
    b9d8:	0c478793          	addi	a5,a5,196 # ca98 <__clz_tab>
    b9dc:	97aa                	add	a5,a5,a0
    b9de:	2388                	lbu	a0,0(a5)
    b9e0:	4721                	li	a4,8
    b9e2:	40a70533          	sub	a0,a4,a0
    b9e6:	8082                	ret
    b9e8:	8141                	srli	a0,a0,0x10
    b9ea:	00001797          	auipc	a5,0x1
    b9ee:	0ae78793          	addi	a5,a5,174 # ca98 <__clz_tab>
    b9f2:	97aa                	add	a5,a5,a0
    b9f4:	2388                	lbu	a0,0(a5)
    b9f6:	4741                	li	a4,16
    b9f8:	40a70533          	sub	a0,a4,a0
    b9fc:	8082                	ret

0000b9fe <__errno>:
    b9fe:	86c18793          	addi	a5,gp,-1940 # 200000ec <_impure_ptr>
    ba02:	4388                	lw	a0,0(a5)
    ba04:	8082                	ret

0000ba06 <memcpy>:
    ba06:	00a5c7b3          	xor	a5,a1,a0
    ba0a:	8b8d                	andi	a5,a5,3
    ba0c:	00c50733          	add	a4,a0,a2
    ba10:	e781                	bnez	a5,ba18 <memcpy+0x12>
    ba12:	478d                	li	a5,3
    ba14:	00c7ed63          	bltu	a5,a2,ba2e <memcpy+0x28>
    ba18:	87aa                	mv	a5,a0
    ba1a:	08e57e63          	bgeu	a0,a4,bab6 <memcpy+0xb0>
    ba1e:	2194                	lbu	a3,0(a1)
    ba20:	0785                	addi	a5,a5,1
    ba22:	0585                	addi	a1,a1,1
    ba24:	fed78fa3          	sb	a3,-1(a5)
    ba28:	fee7ebe3          	bltu	a5,a4,ba1e <memcpy+0x18>
    ba2c:	8082                	ret
    ba2e:	00357693          	andi	a3,a0,3
    ba32:	87aa                	mv	a5,a0
    ba34:	ca89                	beqz	a3,ba46 <memcpy+0x40>
    ba36:	2194                	lbu	a3,0(a1)
    ba38:	0785                	addi	a5,a5,1
    ba3a:	0585                	addi	a1,a1,1
    ba3c:	fed78fa3          	sb	a3,-1(a5)
    ba40:	0037f693          	andi	a3,a5,3
    ba44:	bfc5                	j	ba34 <memcpy+0x2e>
    ba46:	ffc77693          	andi	a3,a4,-4
    ba4a:	fe068613          	addi	a2,a3,-32
    ba4e:	06c7f063          	bgeu	a5,a2,baae <memcpy+0xa8>
    ba52:	0005a383          	lw	t2,0(a1) # 80000000 <_eusrstack+0x5fff8000>
    ba56:	0045a283          	lw	t0,4(a1)
    ba5a:	0085af83          	lw	t6,8(a1)
    ba5e:	00c5af03          	lw	t5,12(a1)
    ba62:	0105ae83          	lw	t4,16(a1)
    ba66:	0145ae03          	lw	t3,20(a1)
    ba6a:	0185a303          	lw	t1,24(a1)
    ba6e:	01c5a883          	lw	a7,28(a1)
    ba72:	02458593          	addi	a1,a1,36
    ba76:	0077a023          	sw	t2,0(a5)
    ba7a:	ffc5a803          	lw	a6,-4(a1)
    ba7e:	0057a223          	sw	t0,4(a5)
    ba82:	01f7a423          	sw	t6,8(a5)
    ba86:	01e7a623          	sw	t5,12(a5)
    ba8a:	01d7a823          	sw	t4,16(a5)
    ba8e:	01c7aa23          	sw	t3,20(a5)
    ba92:	0067ac23          	sw	t1,24(a5)
    ba96:	0117ae23          	sw	a7,28(a5)
    ba9a:	02478793          	addi	a5,a5,36
    ba9e:	ff07ae23          	sw	a6,-4(a5)
    baa2:	b775                	j	ba4e <memcpy+0x48>
    baa4:	4190                	lw	a2,0(a1)
    baa6:	0791                	addi	a5,a5,4
    baa8:	0591                	addi	a1,a1,4
    baaa:	fec7ae23          	sw	a2,-4(a5)
    baae:	fed7ebe3          	bltu	a5,a3,baa4 <memcpy+0x9e>
    bab2:	f6e7e6e3          	bltu	a5,a4,ba1e <memcpy+0x18>
    bab6:	8082                	ret

0000bab8 <strlen>:
    bab8:	87aa                	mv	a5,a0
    baba:	0785                	addi	a5,a5,1
    babc:	fff7c703          	lbu	a4,-1(a5)
    bac0:	ff6d                	bnez	a4,baba <strlen+0x2>
    bac2:	40a78533          	sub	a0,a5,a0
    bac6:	157d                	addi	a0,a0,-1
    bac8:	8082                	ret
    baca:	0000                	unimp
    bacc:	c03c                	sw	a5,64(s0)
    bace:	0000                	unimp
    bad0:	c040                	sw	s0,4(s0)
    bad2:	0000                	unimp
    bad4:	c04c                	sw	a1,4(s0)
    bad6:	0000                	unimp
    bad8:	c058                	sw	a4,4(s0)
    bada:	0000                	unimp
    badc:	c064                	sw	s1,68(s0)
    bade:	0000                	unimp
    bae0:	c070                	sw	a2,68(s0)
    bae2:	0000                	unimp
    bae4:	c078                	sw	a4,68(s0)
    bae6:	0000                	unimp
    bae8:	c080                	sw	s0,0(s1)
    baea:	0000                	unimp
    baec:	c088                	sw	a0,0(s1)
    baee:	0000                	unimp
    baf0:	01a8                	addi	a0,sp,200
    baf2:	2000                	lbu	s0,0(s0)
    baf4:	01ac                	addi	a1,sp,200
    baf6:	2000                	lbu	s0,0(s0)
    baf8:	01b8                	addi	a4,sp,200
    bafa:	2000                	lbu	s0,0(s0)
    bafc:	01bc                	addi	a5,sp,200
    bafe:	2000                	lbu	s0,0(s0)
    bb00:	01c0                	addi	s0,sp,196
    bb02:	2000                	lbu	s0,0(s0)
    bb04:	01c4                	addi	s1,sp,196
    bb06:	2000                	lbu	s0,0(s0)
    bb08:	01c8                	addi	a0,sp,196
    bb0a:	2000                	lbu	s0,0(s0)
    bb0c:	01cc                	addi	a1,sp,196
    bb0e:	2000                	lbu	s0,0(s0)
    bb10:	01d0                	addi	a2,sp,196
    bb12:	2000                	lbu	s0,0(s0)
    bb14:	01d4                	addi	a3,sp,196
    bb16:	2000                	lbu	s0,0(s0)
    bb18:	01b0                	addi	a2,sp,200
    bb1a:	2000                	lbu	s0,0(s0)
    bb1c:	01b4                	addi	a3,sp,200
    bb1e:	2000                	lbu	s0,0(s0)
    bb20:	74737953          	0x74737953
    bb24:	6d65                	lui	s10,0x19
    bb26:	3a6b6c43          	fmadd.d	fs8,fs6,ft6,ft7,unknown
    bb2a:	6425                	lui	s0,0x9
    bb2c:	0a0d                	addi	s4,s4,3
    bb2e:	0000                	unimp
    bb30:	70696843          	fmadd.s	fa6,fs2,ft6,fa4,unknown
    bb34:	4449                	li	s0,18
    bb36:	253a                	lhu	a4,10(a0)
    bb38:	3830                	lbu	a2,19(s0)
    bb3a:	0d78                	addi	a4,sp,668
    bb3c:	000a                	c.slli	zero,0x2
    bb3e:	0000                	unimp
    bb40:	1b54                	addi	a3,sp,436
    bb42:	0000                	unimp
    bb44:	1b7a                	slli	s6,s6,0x3e
    bb46:	0000                	unimp
    bb48:	1b84                	addi	s1,sp,496
    bb4a:	0000                	unimp
    bb4c:	1b8a                	slli	s7,s7,0x22
    bb4e:	0000                	unimp
    bb50:	1b90                	addi	a2,sp,496
    bb52:	0000                	unimp
    bb54:	1b96                	slli	s7,s7,0x25
    bb56:	0000                	unimp
    bb58:	1ba2                	slli	s7,s7,0x28
    bb5a:	0000                	unimp
    bb5c:	1ba6                	slli	s7,s7,0x29
    bb5e:	0000                	unimp
    bb60:	1baa                	slli	s7,s7,0x2a
    bb62:	0000                	unimp
    bb64:	2602                	lhu	s0,8(a2)
    bb66:	0000                	unimp
    bb68:	26ac                	lbu	a1,10(a3)
    bb6a:	0000                	unimp
    bb6c:	26b6                	lhu	a3,10(a3)
    bb6e:	0000                	unimp
    bb70:	26ca                	lhu	a0,12(a3)
    bb72:	0000                	unimp
    bb74:	26d0                	lbu	a2,12(a3)
    bb76:	0000                	unimp
    bb78:	26d6                	lhu	a3,12(a3)
    bb7a:	0000                	unimp
    bb7c:	26e6                	lhu	s1,14(a3)
    bb7e:	0000                	unimp
    bb80:	26f4                	lbu	a3,14(a3)
    bb82:	0000                	unimp
    bb84:	26fa                	lhu	a4,14(a3)
    bb86:	0000                	unimp
    bb88:	2328                	lbu	a0,2(a4)
    bb8a:	0000                	unimp
    bb8c:	2328                	lbu	a0,2(a4)
    bb8e:	0000                	unimp
    bb90:	2328                	lbu	a0,2(a4)
    bb92:	0000                	unimp
    bb94:	2328                	lbu	a0,2(a4)
    bb96:	0000                	unimp
    bb98:	2328                	lbu	a0,2(a4)
    bb9a:	0000                	unimp
    bb9c:	2328                	lbu	a0,2(a4)
    bb9e:	0000                	unimp
    bba0:	2328                	lbu	a0,2(a4)
    bba2:	0000                	unimp
    bba4:	218e                	lhu	a1,0(a1)
    bba6:	0000                	unimp
    bba8:	2234                	lbu	a3,2(a2)
    bbaa:	0000                	unimp
    bbac:	22d0                	lbu	a2,4(a3)
    bbae:	0000                	unimp
    bbb0:	22c2                	lhu	s0,4(a3)
    bbb2:	0000                	unimp
    bbb4:	22dc                	lbu	a5,4(a3)
    bbb6:	0000                	unimp
    bbb8:	22ea                	lhu	a0,6(a3)
    bbba:	0000                	unimp
    bbbc:	22f2                	lhu	a2,6(a3)
    bbbe:	0000                	unimp
    bbc0:	230a                	lhu	a0,0(a4)
    bbc2:	0000                	unimp
    bbc4:	231a                	lhu	a4,0(a4)
    bbc6:	0000                	unimp
    bbc8:	2324                	lbu	s1,2(a4)
    bbca:	0000                	unimp
    bbcc:	23aa                	lhu	a0,2(a5)
    bbce:	0000                	unimp
    bbd0:	253c                	lbu	a5,10(a0)
    bbd2:	0000                	unimp
    bbd4:	25f6                	lhu	a3,14(a1)
    bbd6:	0000                	unimp
    bbd8:	25fc                	lbu	a5,14(a1)
    bbda:	0000                	unimp
    bbdc:	2b38                	lbu	a4,18(a4)
    bbde:	0000                	unimp
    bbe0:	2b86                	lhu	s1,16(a5)
    bbe2:	0000                	unimp
    bbe4:	2dfc                	lbu	a5,30(a1)
    bbe6:	0000                	unimp
    bbe8:	2e10                	lbu	a2,24(a2)
    bbea:	0000                	unimp
    bbec:	2e1a                	lhu	a4,24(a2)
    bbee:	0000                	unimp
    bbf0:	d70a                	sw	sp,172(sp)
    bbf2:	00003ca3          	0x3ca3
    bbf6:	c2c4                	sw	s1,4(a3)
    bbf8:	0000                	unimp
    bbfa:	432a                	lw	t1,136(sp)
    bbfc:	e7b5                	bnez	a5,bc68 <strlen+0x1b0>
    bbfe:	f0c6fabb          	0xf0c6fabb
    bc02:	bcca                	sh	a0,60(s1)
    bc04:	acccb4d7          	0xacccb4d7
    bc08:	000d                	c.nop	3
    bc0a:	0000                	unimp
    bc0c:	a5b5                	j	c278 <strlen+0x7c0>
    bc0e:	e3b5                	bnez	a5,bc72 <strlen+0x1ba>
    bc10:	cbd4                	sw	a3,20(a5)
    bc12:	d0d0                	sw	a2,36(s1)
    bc14:	b1ca                	sh	a0,36(a1)
    bc16:	e4bc                	fsw	fa5,72(s1)
    bc18:	203a                	lhu	a4,2(s0)
    bc1a:	6425                	lui	s0,0x9
    bc1c:	d3d6d6b7          	lui	a3,0xd3d6d
    bc20:	0a0d                	addi	s4,s4,3
    bc22:	0000                	unimp
    bc24:	0000                	unimp
    bc26:	c1f0                	sw	a2,68(a1)
    bc28:	0000                	unimp
    bc2a:	428c                	lw	a1,0(a3)
    bc2c:	0000                	unimp
    bc2e:	4270                	lw	a2,68(a2)
    bc30:	e7b5                	bnez	a5,bc9c <strlen+0x1e4>
    bc32:	e9b9fabb          	0xe9b9fabb
    bc36:	bbce                	sh	a1,52(a5)
    bc38:	000d                	c.nop	3
    bc3a:	0000                	unimp
    bc3c:	0000                	unimp
    bc3e:	4120                	lw	s0,64(a0)
    bc40:	0000                	unimp
    bc42:	c120                	sw	s0,64(a0)
    bc44:	0000                	unimp
    bc46:	4248                	lw	a0,4(a2)
    bc48:	0000                	unimp
    bc4a:	4000                	lw	s0,0(s0)
    bc4c:	0000                	unimp
    bc4e:	3f80                	lbu	s0,25(a5)
    bc50:	0000                	unimp
    bc52:	c1c8                	sw	a0,4(a1)
    bc54:	0000                	unimp
    bc56:	41c8                	lw	a0,4(a1)
    bc58:	0000                	unimp
    bc5a:	4224                	lw	s1,64(a2)
    bc5c:	c7bd                	beqz	a5,bcca <strlen+0x212>
    bc5e:	c8b6                	sw	a3,80(sp)
    bc60:	203a                	lhu	a4,2(s0)
    bc62:	314a                	lhu	a0,36(a0)
    bc64:	253d                	jal	c292 <strlen+0x7da>
    bc66:	312e                	lhu	a1,34(a0)
    bc68:	2c66                	lhu	s1,30(s0)
    bc6a:	4a20                	lw	s0,80(a2)
    bc6c:	3d32                	lhu	a2,58(a0)
    bc6e:	2e25                	jal	bfa6 <strlen+0x4ee>
    bc70:	6631                	lui	a2,0xc
    bc72:	202c                	lbu	a1,2(s0)
    bc74:	334a                	lhu	a0,36(a4)
    bc76:	253d                	jal	c2a4 <strlen+0x7ec>
    bc78:	312e                	lhu	a1,34(a0)
    bc7a:	2c66                	lhu	s1,30(s0)
    bc7c:	4a20                	lw	s0,80(a2)
    bc7e:	3d34                	lbu	a3,27(a0)
    bc80:	2e25                	jal	bfb8 <strlen+0x500>
    bc82:	6631                	lui	a2,0xc
    bc84:	202c                	lbu	a1,2(s0)
    bc86:	354a                	lhu	a0,44(a0)
    bc88:	253d                	jal	c2b6 <strlen+0x7fe>
    bc8a:	312e                	lhu	a1,34(a0)
    bc8c:	2c66                	lhu	s1,30(s0)
    bc8e:	b220                	sb	s0,3(a2)
    bc90:	b0e0                	sb	s0,7(s1)
    bc92:	3dda                	lhu	a4,60(a1)
    bc94:	2e25                	jal	bfcc <strlen+0x514>
    bc96:	6631                	lui	a2,0xc
    bc98:	0a0d                	addi	s4,s4,3
    bc9a:	0000                	unimp
    bc9c:	0000                	unimp
    bc9e:	4244                	lw	s1,4(a2)
    bca0:	0000                	unimp
    bca2:	4220                	lw	s0,64(a2)
    bca4:	0000                	unimp
    bca6:	40a0                	lw	s0,64(s1)
    bca8:	d70a                	sw	sp,172(sp)
    bcaa:	00003c23          	0x3c23
    bcae:	4040                	lw	s0,4(s0)
    bcb0:	0000                	unimp
    bcb2:	4234                	lw	a3,64(a2)
    bcb4:	0fda                	slli	t6,t6,0x16
    bcb6:	4049                	c.li	zero,18
    bcb8:	0000                	unimp
    bcba:	4334                	lw	a3,64(a4)
    bcbc:	0000                	unimp
    bcbe:	41c0                	lw	s0,4(a1)
    bcc0:	0000                	unimp
    bcc2:	bf80                	sb	s0,25(a5)
    bcc4:	0000                	unimp
    bcc6:	4100                	lw	s0,0(a0)
    bcc8:	0000                	unimp
    bcca:	457a                	lw	a0,156(sp)
    bccc:	0000                	unimp
    bcce:	40d0                	lw	a2,4(s1)
    bcd0:	0000                	unimp
    bcd2:	42c8                	lw	a0,4(a3)
	...
    bcdc:	0000                	unimp
    bcde:	4024                	lw	s1,64(s0)
    bce0:	0000                	unimp
    bce2:	0000                	unimp
    bce4:	0000                	unimp
    bce6:	4039                	c.li	zero,14
    bce8:	0000                	unimp
    bcea:	0000                	unimp
    bcec:	0000                	unimp
    bcee:	c039                	beqz	s0,bd34 <strlen+0x27c>
    bcf0:	0000                	unimp
    bcf2:	0000                	unimp
    bcf4:	0000                	unimp
    bcf6:	4049                	c.li	zero,18
    bcf8:	0000                	unimp
    bcfa:	0000                	unimp
    bcfc:	8000                	lbu	s0,0(sp)
    bcfe:	4044                	lw	s1,4(s0)
    bd00:	0000                	unimp
    bd02:	0000                	unimp
    bd04:	0000                	unimp
    bd06:	4020                	lw	s0,64(s0)
    bd08:	acc4                	sb	s1,28(s1)
    bd0a:	cfc8                	sw	a0,28(a5)
    bd0c:	cbd4                	sw	a3,20(a5)
    bd0e:	d0d0                	sw	a2,36(s1)
    bd10:	b1ca                	sh	a0,36(a1)
    bd12:	e4bc                	fsw	fa5,72(s1)
    bd14:	203a                	lhu	a4,2(s0)
    bd16:	6425                	lui	s0,0x9
    bd18:	d3d6d6b7          	lui	a3,0xd3d6d
    bd1c:	0a0d                	addi	s4,s4,3
    bd1e:	0000                	unimp
    bd20:	b1b5                	j	b98c <__truncdfsf2+0x31a>
    bd22:	a3c4b0c7          	fmsub.d	ft1,fs1,ft8,fs4,rup
    bd26:	bdca                	sh	a0,60(a1)
    bd28:	203a                	lhu	a4,2(s0)
    bd2a:	fcd0                	fsw	fa2,60(s1)
    bd2c:	a3cd                	j	c30e <npio2_hw+0x36>
    bd2e:	c428                	sw	a0,72(s0)
    bd30:	c8ac                	sw	a1,80(s1)
    bd32:	000d29cf          	fnmadd.s	fs3,fs10,ft0,ft0,rdn
    bd36:	0000                	unimp
    bd38:	eab1f8d7          	0xeab1f8d7
    bd3c:	a7ceb6b7          	lui	a3,0xa7ceb
    bd40:	c6d6decf          	fnmadd.q	ft9,fa3,fa3,fs8,unknown
    bd44:	203a                	lhu	a4,2(s0)
    bd46:	5b58                	lw	a4,52(a4)
    bd48:	2e25                	jal	c080 <strlen+0x5c8>
    bd4a:	6631                	lui	a2,0xc
    bd4c:	257e                	lhu	a5,14(a0)
    bd4e:	312e                	lhu	a1,34(a0)
    bd50:	5d66                	lw	s10,120(sp)
    bd52:	202c                	lbu	a1,2(s0)
    bd54:	5b59                	li	s6,-10
    bd56:	2e25                	jal	c08e <strlen+0x5d6>
    bd58:	6631                	lui	a2,0xc
    bd5a:	257e                	lhu	a5,14(a0)
    bd5c:	312e                	lhu	a1,34(a0)
    bd5e:	5d66                	lw	s10,120(sp)
    bd60:	202c                	lbu	a1,2(s0)
    bd62:	5b5a                	lw	s6,180(sp)
    bd64:	2e25                	jal	c09c <strlen+0x5e4>
    bd66:	6631                	lui	a2,0xc
    bd68:	257e                	lhu	a5,14(a0)
    bd6a:	312e                	lhu	a1,34(a0)
    bd6c:	5d66                	lw	s10,120(sp)
    bd6e:	0a0d                	addi	s4,s4,3
    bd70:	0000                	unimp
    bd72:	0000                	unimp
    bd74:	eab1                	bnez	a3,bdc8 <strlen+0x310>
    bd76:	c7bc                	sw	a5,72(a5)
    bd78:	e3b5                	bnez	a5,bddc <strlen+0x324>
    bd7a:	6425                	lui	s0,0x9
    bd7c:	203a                	lhu	a4,2(s0)
    bd7e:	2528                	lbu	a0,10(a0)
    bd80:	312e                	lhu	a1,34(a0)
    bd82:	2c66                	lhu	s1,30(s0)
    bd84:	2520                	lbu	s0,10(a0)
    bd86:	312e                	lhu	a1,34(a0)
    bd88:	2c66                	lhu	s1,30(s0)
    bd8a:	2520                	lbu	s0,10(a0)
    bd8c:	312e                	lhu	a1,34(a0)
    bd8e:	2966                	lhu	s1,22(a0)
    bd90:	202c                	lbu	a1,2(s0)
    bd92:	cbd4                	sw	a3,20(a5)
    bd94:	d0d0                	sw	a2,36(s1)
    bd96:	b1ca                	sh	a0,36(a1)
    bd98:	e4bc                	fsw	fa5,72(s1)
    bd9a:	253d                	jal	c3c8 <two_over_pi+0x70>
    bd9c:	b764                	sb	s1,15(a4)
    bd9e:	d6d6                	sw	s5,108(sp)
    bda0:	bb202cd3          	0xbb202cd3
    bda4:	d7f9                	beqz	a5,bd72 <strlen+0x2ba>
    bda6:	bebc                	sb	a5,27(a3)
    bda8:	c0e0                	sw	s0,68(s1)
    bdaa:	2e253deb          	0x2e253deb
    bdae:	6631                	lui	a2,0xc
    bdb0:	0a0d6d63          	bltu	s10,zero,be6a <strlen+0x3b2>
    bdb4:	0000                	unimp
    bdb6:	0000                	unimp
    bdb8:	eab1                	bnez	a3,be0c <strlen+0x354>
    bdba:	c7bc                	sw	a5,72(a5)
    bdbc:	e3b5                	bnez	a5,be20 <strlen+0x368>
    bdbe:	6425                	lui	s0,0x9
    bdc0:	bccaf5b3          	0xbccaf5b3
    bdc4:	c7bd                	beqz	a5,be32 <strlen+0x37a>
    bdc6:	c8b6                	sw	a3,80(sp)
    bdc8:	203a                	lhu	a4,2(s0)
    bdca:	0000                	unimp
    bdcc:	d8d6                	sw	s5,112(sp)
    bdce:	c2d0                	sw	a2,4(a3)
    bdd0:	bccaaabf d0d0cbd4 	0xd0d0cbd4bccaaabf
    bdd8:	bcd7aca3          	sw	a3,-1063(a5)
    bddc:	b8b1                	j	b638 <__extendsfdf2+0xae>
    bdde:	bdb5d8bb          	0xbdb5d8bb
    bde2:	dab5                	beqz	a3,bd56 <strlen+0x29e>
    bde4:	bbd2                	sh	a2,52(a5)
    bde6:	f6b8                	fsw	fa4,104(a3)
    bde8:	eab1                	bnez	a3,be3c <strlen+0x384>
    bdea:	c7bc                	sw	a5,72(a5)
    bdec:	e3b5                	bnez	a5,be50 <strlen+0x398>
    bdee:	2e2e                	lhu	a1,26(a2)
    bdf0:	0d2e                	slli	s10,s10,0xb
    bdf2:	0000                	unimp
    bdf4:	d7ca                	sw	s2,236(sp)
    bdf6:	ceb4                	sw	a3,88(a3)
    bdf8:	f4c6                	fsw	fa7,104(sp)
    bdfa:	afb6                	sh	a3,26(a5)
    bdfc:	cbd4                	sw	a3,20(a5)
    bdfe:	d0d0                	sw	a2,36(s1)
    be00:	bcd7aca3          	sw	a3,-1063(a5)
    be04:	b8b1                	j	b660 <__extendsfdf2+0xd6>
    be06:	bdb5d8bb          	0xbdb5d8bb
    be0a:	dab5                	beqz	a3,bd7e <strlen+0x2c6>
    be0c:	bbd2                	sh	a2,52(a5)
    be0e:	f6b8                	fsw	fa4,104(a3)
    be10:	eab1                	bnez	a3,be64 <strlen+0x3ac>
    be12:	c7bc                	sw	a5,72(a5)
    be14:	e3b5                	bnez	a5,be78 <strlen+0x3c0>
    be16:	2e2e                	lhu	a1,26(a2)
    be18:	0d2e                	slli	s10,s10,0xb
    be1a:	0000                	unimp
    be1c:	3d3d                	jal	bc5a <strlen+0x1a2>
    be1e:	3d3d                	jal	bc5c <strlen+0x1a4>
    be20:	3d3d                	jal	bc5e <strlen+0x1a6>
    be22:	3d3d                	jal	bc60 <strlen+0x1a8>
    be24:	3d3d                	jal	bc62 <strlen+0x1aa>
    be26:	cb20                	sw	s0,80(a4)
    be28:	d3f9                	beqz	a5,bdee <strlen+0x336>
    be2a:	b1d0                	sb	a2,5(a1)
    be2c:	bcea                	sh	a0,62(s1)
    be2e:	d2e3b5c7          	fmsub.d	fa1,ft7,fa4,fs10,rup
    be32:	c7d1                	beqz	a5,bebe <strlen+0x406>
    be34:	bfe5                	j	be2c <strlen+0x374>
    be36:	a3d5                	j	c41a <two_over_pi+0xc2>
    be38:	3da1                	jal	bc90 <strlen+0x1d8>
    be3a:	3d3d                	jal	bc78 <strlen+0x1c0>
    be3c:	3d3d                	jal	bc7a <strlen+0x1c2>
    be3e:	3d3d                	jal	bc7c <strlen+0x1c4>
    be40:	3d3d                	jal	bc7e <strlen+0x1c6>
    be42:	0d3d                	addi	s10,s10,15
    be44:	0000                	unimp
    be46:	0000                	unimp
    be48:	d3d1                	beqz	a5,bdcc <strlen+0x314>
    be4a:	b1ca                	sh	a0,36(a1)
    be4c:	eacd                	bnez	a3,befe <strlen+0x446>
    be4e:	a1a3c9b3          	0xa1a3c9b3
    be52:	000d                	c.nop	3
    be54:	a3c4                	sb	s1,4(a5)
    be56:	bdca                	sh	a0,60(a1)
    be58:	bbbbd0c7          	fmsub.d	ft1,fs7,fs11,fs7,unknown
    be5c:	eacd                	bnez	a3,bf0e <strlen+0x456>
    be5e:	aca3c9b3          	0xaca3c9b3
    be62:	d8d6                	sw	s5,112(sp)
    be64:	c3d6                	sw	s5,196(sp)
    be66:	b1b5                	j	bad2 <strlen+0x1a>
    be68:	eab1b0c7          	fmsub.d	ft1,ft3,fa1,ft9,rup
    be6c:	c7bc                	sw	a5,72(a5)
    be6e:	e3b5                	bnez	a5,bed2 <strlen+0x41a>
    be70:	6425                	lui	s0,0x9
    be72:	bbce                	sh	a1,52(a5)
    be74:	c3d6                	sw	s5,196(sp)
    be76:	acccb4d7          	0xacccb4d7
    be7a:	0a0d                	addi	s4,s4,3
    be7c:	0000                	unimp
    be7e:	0000                	unimp
    be80:	add1                	j	c554 <two_over_pi+0x3c>
    be82:	e1bdb7bb          	0xe1bdb7bb
    be86:	f8ca                	fsw	fs2,112(sp)
    be88:	d1d2aca3          	sw	t4,-743(t0) # fd19 <_data_lma+0x3181>
    be8c:	a3cd                	j	c46e <two_over_pi+0x116>
    be8e:	f4c1                	bnez	s1,be16 <strlen+0x35e>
    be90:	dad4                	sw	a3,52(a3)
    be92:	f3baeed7          	0xf3baeed7
    be96:	eab1                	bnez	a3,beea <strlen+0x432>
    be98:	c7bc                	sw	a5,72(a5)
    be9a:	e3b5                	bnez	a5,befe <strlen+0x446>
    be9c:	6425                	lui	s0,0x9
    be9e:	0a0d                	addi	s4,s4,3
    bea0:	0000                	unimp
    bea2:	0000                	unimp
    bea4:	d8d6                	sw	s5,112(sp)
    bea6:	c2d0                	sw	a2,4(a3)
    bea8:	bccaaabf c9b3eacd 	0xc9b3eacdbccaaabf
    beb0:	d3b4aca3          	sw	s11,-711(s1) # 7feffd39 <_eusrstack+0x5fef7d39>
    beb4:	dab5                	beqz	a3,be28 <strlen+0x370>
    beb6:	bbd2                	sh	a2,52(a5)
    beb8:	f6b8                	fsw	fa4,104(a3)
    beba:	eab1                	bnez	a3,bf0e <strlen+0x456>
    bebc:	c7bc                	sw	a5,72(a5)
    bebe:	e3b5                	bnez	a5,bf22 <strlen+0x46a>
    bec0:	bccaaabf d0d0cbd4 	0xd0d0cbd4bccaaabf
    bec8:	000d                	c.nop	3
    beca:	0000                	unimp
    becc:	d7ca                	sw	s2,236(sp)
    bece:	ceb4                	sw	a3,88(a3)
    bed0:	f4c6                	fsw	fa7,104(sp)
    bed2:	afb6                	sh	a3,26(a5)
    bed4:	eacd                	bnez	a3,bf86 <strlen+0x4ce>
    bed6:	aca3c9b3          	0xaca3c9b3
    beda:	d3b4                	sw	a3,96(a5)
    bedc:	dab5                	beqz	a3,be50 <strlen+0x398>
    bede:	bbd2                	sh	a2,52(a5)
    bee0:	f6b8                	fsw	fa4,104(a3)
    bee2:	eab1                	bnez	a3,bf36 <strlen+0x47e>
    bee4:	c7bc                	sw	a5,72(a5)
    bee6:	e3b5                	bnez	a5,bf4a <strlen+0x492>
    bee8:	bccaaabf d0d0cbd4 	0xd0d0cbd4bccaaabf
    bef0:	000d                	c.nop	3
    bef2:	0000                	unimp
    bef4:	e3b5                	bnez	a5,bf58 <strlen+0x4a0>
    bef6:	bbbbd0c7          	fmsub.d	ft1,fs7,fs11,fs7,unknown
    befa:	eacd                	bnez	a3,bfac <strlen+0x4f4>
    befc:	aca3c9b3          	0xaca3c9b3
    bf00:	bccaaabf c7bceab1 	0xc7bceab1bccaaabf
    bf08:	e3b5                	bnez	a5,bf6c <strlen+0x4b4>
    bf0a:	6425                	lui	s0,0x9
    bf0c:	cbd4                	sw	a3,20(a5)
    bf0e:	d0d0                	sw	a2,36(s1)
    bf10:	0a0d                	addi	s4,s4,3
    bf12:	0000                	unimp
    bf14:	3d3d                	jal	bd52 <strlen+0x29a>
    bf16:	3d3d                	jal	bd54 <strlen+0x29c>
    bf18:	3d3d                	jal	bd56 <strlen+0x29e>
    bf1a:	3d3d                	jal	bd58 <strlen+0x2a0>
    bf1c:	3d3d                	jal	bd5a <strlen+0x2a2>
    bf1e:	cb20                	sw	s0,80(a4)
    bf20:	d3f9                	beqz	a5,bee6 <strlen+0x42e>
    bf22:	b1d0                	sb	a2,5(a1)
    bf24:	bcea                	sh	a0,62(s1)
    bf26:	d4e3b5c7          	0xd4e3b5c7
    bf2a:	cdd0d0cb          	0xcdd0d0cb
    bf2e:	b3ea                	sh	a0,38(a5)
    bf30:	a3c9                	j	c4f2 <npio2_hw+0x5a>
    bf32:	3da1                	jal	bd8a <strlen+0x2d2>
    bf34:	3d3d                	jal	bd72 <strlen+0x2ba>
    bf36:	3d3d                	jal	bd74 <strlen+0x2bc>
    bf38:	3d3d                	jal	bd76 <strlen+0x2be>
    bf3a:	3d3d                	jal	bd78 <strlen+0x2c0>
    bf3c:	0d3d                	addi	s10,s10,15
    bf3e:	0000                	unimp
    bf40:	3d3d                	jal	bd7e <strlen+0x2c6>
    bf42:	3d3d                	jal	bd80 <strlen+0x2c8>
    bf44:	3d3d                	jal	bd82 <strlen+0x2ca>
    bf46:	b120                	sb	s0,3(a0)
    bf48:	bcea                	sh	a0,62(s1)
    bf4a:	25e3b5c7          	0x25e3b5c7
    bf4e:	d464                	sw	s1,108(s0)
    bf50:	cad0d0cb          	fnmsub.d	ft1,ft1,fa3,fs9,unknown
    bf54:	bcb1                	j	b9b0 <__clzsi2+0x20>
    bf56:	b5e4                	sb	s1,15(a1)
    bf58:	a3bd                	j	c4c6 <npio2_hw+0x2e>
    bf5a:	d7ac                	sw	a1,104(a5)
    bf5c:	b1bc                	sb	a5,3(a1)
    bf5e:	c7b8                	sw	a4,72(a5)
    bf60:	bbd0                	sb	a2,21(a5)
    bf62:	b5bdb5bb          	0xb5bdb5bb
    bf66:	206425e3          	0x206425e3
    bf6a:	3d3d                	jal	bda8 <strlen+0x2f0>
    bf6c:	3d3d                	jal	bdaa <strlen+0x2f2>
    bf6e:	3d3d                	jal	bdac <strlen+0x2f4>
    bf70:	0a0d                	addi	s4,s4,3
    bf72:	0000                	unimp
    bf74:	d6ca                	sw	s2,108(sp)
    bf76:	afb6                	sh	a3,26(a5)
    bf78:	c6d6d8bf c3d6bbce 	0xc3d6bbcec6d6d8bf
    bf80:	fcb8                	fsw	fa4,120(s1)
    bf82:	c2d0                	sw	a2,4(a3)
    bf84:	203a                	lhu	a4,2(s0)
    bf86:	0000                	unimp
    bf88:	40490fdb          	0x40490fdb
    bf8c:	0000                	unimp
    bf8e:	3f00                	lbu	s0,25(a4)
    bf90:	0000                	unimp
    bf92:	42b4                	lw	a3,64(a3)
    bf94:	3d3d                	jal	bdd2 <strlen+0x31a>
    bf96:	3d3d                	jal	bdd4 <strlen+0x31c>
    bf98:	3d3d                	jal	bdd6 <strlen+0x31e>
    bf9a:	203d                	jal	bfc8 <strlen+0x510>
    bf9c:	bccaaabf bbced8bb 	0xbbced8bbbccaaabf
    bfa4:	f7c1                	bnez	a5,bf2c <strlen+0x474>
    bfa6:	2d20ccb3          	0x2d20ccb3
    bfaa:	c020                	sw	s0,64(s0)
    bfac:	d0e0                	sw	s0,100(s1)
    bfae:	3acd                	jal	b9a0 <__clzsi2+0x10>
    bfb0:	2520                	lbu	s0,10(a0)
    bfb2:	3d3d2073          	csrs	0x3d3,s10
    bfb6:	3d3d                	jal	bdf4 <strlen+0x33c>
    bfb8:	3d3d                	jal	bdf6 <strlen+0x33e>
    bfba:	0d3d                	addi	s10,s10,15
    bfbc:	000a                	c.slli	zero,0x2
    bfbe:	0000                	unimp
    bfc0:	c6d2                	sw	s4,76(sp)
    bfc2:	afb6                	sh	a3,26(a5)
    bfc4:	bdb5                	j	be40 <strlen+0x388>
    bfc6:	eab1                	bnez	a3,c01a <strlen+0x562>
    bfc8:	c7bc                	sw	a5,72(a5)
    bfca:	e3b5                	bnez	a5,c02e <strlen+0x576>
    bfcc:	6425                	lui	s0,0x9
    bfce:	203a                	lhu	a4,2(s0)
    bfd0:	2528                	lbu	a0,10(a0)
    bfd2:	312e                	lhu	a1,34(a0)
    bfd4:	2c66                	lhu	s1,30(s0)
    bfd6:	2520                	lbu	s0,10(a0)
    bfd8:	312e                	lhu	a1,34(a0)
    bfda:	2c66                	lhu	s1,30(s0)
    bfdc:	2520                	lbu	s0,10(a0)
    bfde:	312e                	lhu	a1,34(a0)
    bfe0:	2966                	lhu	s1,22(a0)
    bfe2:	0a0d                	addi	s4,s4,3
    bfe4:	0000                	unimp
    bfe6:	0000                	unimp
    bfe8:	d8b9                	beqz	s1,bf3e <strlen+0x486>
    bfea:	dabd                	beqz	a3,bf60 <strlen+0x4a8>
    bfec:	c7bd                	beqz	a5,c05a <strlen+0x5a2>
    bfee:	c8b6                	sw	a3,80(sp)
    bff0:	203a                	lhu	a4,2(s0)
    bff2:	314a                	lhu	a0,36(a0)
    bff4:	253d                	jal	c622 <two_over_pi+0x10a>
    bff6:	312e                	lhu	a1,34(a0)
    bff8:	2c66                	lhu	s1,30(s0)
    bffa:	4a20                	lw	s0,80(a2)
    bffc:	3d32                	lhu	a2,58(a0)
    bffe:	2e25                	jal	c336 <npio2_hw+0x5e>
    c000:	6631                	lui	a2,0xc
    c002:	202c                	lbu	a1,2(s0)
    c004:	334a                	lhu	a0,36(a4)
    c006:	253d                	jal	c634 <two_over_pi+0x11c>
    c008:	312e                	lhu	a1,34(a0)
    c00a:	2c66                	lhu	s1,30(s0)
    c00c:	4a20                	lw	s0,80(a2)
    c00e:	3d34                	lbu	a3,27(a0)
    c010:	2e25                	jal	c348 <npio2_hw+0x70>
    c012:	6631                	lui	a2,0xc
    c014:	202c                	lbu	a1,2(s0)
    c016:	354a                	lhu	a0,44(a0)
    c018:	253d                	jal	c646 <two_over_pi+0x12e>
    c01a:	312e                	lhu	a1,34(a0)
    c01c:	0d66                	slli	s10,s10,0x19
    c01e:	000a                	c.slli	zero,0x2
    c020:	c6d2                	sw	s4,76(sp)
    c022:	afb6                	sh	a3,26(a5)
    c024:	eacd                	bnez	a3,c0d6 <strlen+0x61e>
    c026:	aca3c9b3          	0xaca3c9b3
    c02a:	bccaaabf b1cad3d1 	0xb1cad3d1bccaaabf
    c032:	6425                	lui	s0,0x9
    c034:	2e2eebc3          	fmadd.q	fs7,ft9,ft2,ft5,unknown
    c038:	0d2e                	slli	s10,s10,0xb
    c03a:	000a                	c.slli	zero,0x2
    c03c:	dece                	sw	s3,124(sp)
    c03e:	0000                	unimp
    c040:	a3c4                	sb	s1,4(a5)
    c042:	bdca                	sh	a0,60(a1)
    c044:	bbbbd0c7          	fmsub.d	ft1,fs7,fs11,fs7,unknown
    c048:	0000                	unimp
    c04a:	0000                	unimp
    c04c:	add1                	j	c720 <two_over_pi+0x208>
    c04e:	e1bdb7bb          	0xe1bdb7bb
    c052:	f8ca                	fsw	fs2,112(sp)
    c054:	0000                	unimp
    c056:	0000                	unimp
    c058:	d8d6                	sw	s5,112(sp)
    c05a:	c2d0                	sw	a2,4(a3)
    c05c:	bccaaabf 00000000 	0xbccaaabf
    c064:	d7ca                	sw	s2,236(sp)
    c066:	ceb4                	sw	a3,88(a3)
    c068:	f4c6                	fsw	fa7,104(sp)
    c06a:	afb6                	sh	a3,26(a5)
    c06c:	0000                	unimp
    c06e:	0000                	unimp
    c070:	fcd0                	fsw	fa2,60(s1)
    c072:	a3cd                	j	c654 <two_over_pi+0x13c>
    c074:	0000                	unimp
    c076:	0000                	unimp
    c078:	b2d4                	sb	a3,5(a3)
    c07a:	ced0                	sw	a2,28(a3)
    c07c:	0000                	unimp
    c07e:	0000                	unimp
    c080:	d2d3f3d7          	0xd2d3f3d7
    c084:	0000                	unimp
    c086:	0000                	unimp
    c088:	cfc9                	beqz	a5,c122 <strlen+0x66a>
    c08a:	0000c2cf          	fnmadd.s	ft5,ft1,ft0,ft0,rmm
    c08e:	0000                	unimp
    c090:	d1d2                	sw	s4,224(sp)
    c092:	bbbbd0c7          	fmsub.d	ft1,fs7,fs11,fs7,unknown
    c096:	bdb5                	j	bf12 <strlen+0x45a>
    c098:	7325                	lui	t1,0xfffe9
    c09a:	a3c4                	sb	s1,4(a5)
    c09c:	bdca                	sh	a0,60(a1)
    c09e:	0a0d                	addi	s4,s4,3
    c0a0:	0000                	unimp
    c0a2:	0000                	unimp
    c0a4:	3ea2f983          	0x3ea2f983
    c0a8:	bf7a                	sh	a4,62(a4)
    c0aa:	2f14                	lbu	a3,24(a4)
    c0ac:	32ca                	lhu	a0,36(a3)
    c0ae:	b2d4                	sb	a3,5(a3)
    c0b0:	c535                	beqz	a0,c11c <strlen+0x664>
    c0b2:	3638                	lbu	a4,11(a2)
    c0b4:	0a9e                	slli	s5,s5,0x7
    c0b6:	b950                	sb	a2,21(a0)
    c0b8:	8878                	0x8878
    c0ba:	3c08                	lbu	a0,25(s0)
    c0bc:	aaaa                	sh	a0,18(a3)
    c0be:	be2a                	sh	a0,58(a2)
    c0c0:	a3f2                	sh	a2,6(a5)
    c0c2:	30ed                	jal	b9ac <__clzsi2+0x1c>
    c0c4:	7501                	lui	a0,0xfffe0
    c0c6:	b491                	j	bb0a <strlen+0x52>
    c0c8:	37cfccb3          	0x37cfccb3
    c0cc:	0814                	addi	a3,sp,16
    c0ce:	bab6                	sh	a3,50(a3)
    c0d0:	3d2aaa83          	lw	s5,978(s5)
    c0d4:	fffd                	bnez	a5,c0d2 <strlen+0x61a>
    c0d6:	beff                	0xbeff
    c0d8:	cbe4                	sw	s1,84(a5)
    c0da:	4016                	0x4016
    c0dc:	bfc90fdb          	0xbfc90fdb
    c0e0:	0000                	unimp
    c0e2:	7f80                	flw	fs0,56(a5)
    c0e4:	74cc                	flw	fa1,44(s1)
    c0e6:	4000                	lw	s0,0(s0)
    c0e8:	3fc90fdb          	0x3fc90fdb
    c0ec:	0000                	unimp
    c0ee:	4170                	lw	a2,68(a0)
    c0f0:	bccaaabf f7cbd1cb 	0xf7cbd1cbbccaaabf
    c0f8:	d0d3f9cb          	fnmsub.s	fs3,ft7,fa3,fs10
    c0fc:	dcc4c9bf e2bdc4b5 	0xe2bdc4b5dcc4c9bf
    c104:	2820                	lbu	s0,18(s0)
    c106:	a1d0eed7          	0xa1d0eed7
    c10a:	cbd4                	sw	a3,20(a5)
    c10c:	afb6                	sh	a3,26(a5)
    c10e:	c8b6f9b7          	lui	s3,0xc8b6f
    c112:	2e29                	jal	c42c <two_over_pi+0xd4>
    c114:	2e2e                	lhu	a1,26(a2)
    c116:	000d                	c.nop	3
    c118:	bfc4                	sb	s1,29(a5)
    c11a:	eab1                	bnez	a3,c16e <strlen+0x6b6>
    c11c:	bbce                	sh	a1,52(a5)
    c11e:	c3d6                	sw	s5,196(sp)
    c120:	203a                	lhu	a4,2(s0)
    c122:	3d58                	lbu	a4,29(a0)
    c124:	2e25                	jal	c45c <two_over_pi+0x104>
    c126:	6631                	lui	a2,0xc
    c128:	202c                	lbu	a1,2(s0)
    c12a:	3d59                	jal	bfc0 <strlen+0x508>
    c12c:	2e25                	jal	c464 <two_over_pi+0x10c>
    c12e:	6631                	lui	a2,0xc
    c130:	202c                	lbu	a1,2(s0)
    c132:	3d5a                	lhu	a4,60(a0)
    c134:	2e25                	jal	c46c <two_over_pi+0x114>
    c136:	6631                	lui	a2,0xc
    c138:	0a0d                	addi	s4,s4,3
    c13a:	0000                	unimp
    c13c:	f7cbd1cb          	fnmsub.q	ft3,fs7,ft8,ft10,unknown
    c140:	eacd                	bnez	a3,c1f2 <strlen+0x73a>
    c142:	a1a3c9b3          	0xa1a3c9b3
    c146:	000d                	c.nop	3
    c148:	b2b9dcd7          	0xb2b9dcd7
    c14c:	d2d5                	beqz	a3,c0f0 <strlen+0x638>
    c14e:	bdb5                	j	bfca <strlen+0x512>
    c150:	2520                	lbu	s0,10(a0)
    c152:	2064                	lbu	s1,6(s0)
    c154:	f6b8                	fsw	fa4,104(a3)
    c156:	e2bd                	bnez	a3,c1bc <strlen+0x704>
    c158:	f6be                	fsw	fa5,108(sp)
    c15a:	b8b0bdb7          	lui	s11,0xb8b0b
    c15e:	0a0d                	addi	s4,s4,3
    c160:	0000                	unimp
    c162:	0000                	unimp
    c164:	c5d3eed7          	0xc5d3eed7
    c168:	e2bd                	bnez	a3,c1ce <strlen+0x716>
    c16a:	cbd4                	sw	a3,20(a5)
    c16c:	afb6                	sh	a3,26(a5)
    c16e:	c8b6f9b7          	lui	s3,0xc8b6f
    c172:	203a                	lhu	a4,2(s0)
    c174:	2e25                	jal	c4ac <npio2_hw+0x14>
    c176:	e3a16633          	0xe3a16633
    c17a:	0a0d                	addi	s4,s4,3
    c17c:	0000                	unimp
    c17e:	0000                	unimp
    c180:	c5d3eed7          	0xc5d3eed7
    c184:	e2bd                	bnez	a3,c1ea <strlen+0x732>
    c186:	c7bd                	beqz	a5,c1f4 <strlen+0x73c>
    c188:	c8b6                	sw	a3,80(sp)
    c18a:	2820                	lbu	s0,18(s0)
    c18c:	c8b6                	sw	a3,80(sp)
    c18e:	3a29                	jal	baa8 <memcpy+0xa2>
    c190:	4a20                	lw	s0,80(a2)
    c192:	3d31                	jal	bfae <strlen+0x4f6>
    c194:	2e25                	jal	c4cc <npio2_hw+0x34>
    c196:	6631                	lui	a2,0xc
    c198:	202c                	lbu	a1,2(s0)
    c19a:	324a                	lhu	a0,36(a2)
    c19c:	253d                	jal	c7ca <two_over_pi+0x2b2>
    c19e:	312e                	lhu	a1,34(a0)
    c1a0:	2c66                	lhu	s1,30(s0)
    c1a2:	4a20                	lw	s0,80(a2)
    c1a4:	2e253d33          	0x2e253d33
    c1a8:	6631                	lui	a2,0xc
    c1aa:	202c                	lbu	a1,2(s0)
    c1ac:	344a                	lhu	a0,44(s0)
    c1ae:	253d                	jal	c7dc <two_over_pi+0x2c4>
    c1b0:	312e                	lhu	a1,34(a0)
    c1b2:	2c66                	lhu	s1,30(s0)
    c1b4:	4a20                	lw	s0,80(a2)
    c1b6:	3d35                	jal	bff2 <strlen+0x53a>
    c1b8:	2e25                	jal	c4f0 <npio2_hw+0x58>
    c1ba:	6631                	lui	a2,0xc
    c1bc:	0a0d                	addi	s4,s4,3
    c1be:	0000                	unimp
    c1c0:	b4ce                	sh	a1,44(s1)
    c1c2:	d2d5                	beqz	a3,c166 <strlen+0x6ae>
    c1c4:	bdb5                	j	c040 <strlen+0x588>
    c1c6:	fac2                	fsw	fa6,116(sp)
    c1c8:	f5cce3d7          	0xf5cce3d7
    c1cc:	febc                	fsw	fa5,120(a3)
    c1ce:	c4b5                	beqz	s1,c23a <strlen+0x782>
    c1d0:	e2bd                	bnez	a3,c236 <strlen+0x77e>
    c1d2:	000d                	c.nop	3
    c1d4:	0000                	unimp
    c1d6:	3800                	lbu	s0,17(s0)
    c1d8:	0000                	unimp
    c1da:	3e80                	lbu	s0,25(a3)
    c1dc:	0000                	unimp
    c1de:	c2c8                	sw	a0,4(a3)
    c1e0:	0000                	unimp
    c1e2:	4316                	lw	t1,68(sp)
    c1e4:	44a8                	lw	a0,72(s1)
    c1e6:	0000                	unimp
    c1e8:	44d0                	lw	a2,12(s1)
    c1ea:	0000                	unimp
    c1ec:	44da                	lw	s1,148(sp)
    c1ee:	0000                	unimp
    c1f0:	44e4                	lw	s1,76(s1)
    c1f2:	0000                	unimp
    c1f4:	44ee                	lw	s1,216(sp)
    c1f6:	0000                	unimp
    c1f8:	44f8                	lw	a4,76(s1)
    c1fa:	0000                	unimp
    c1fc:	b4b0                	sb	a2,11(s1)
    c1fe:	cfc9c2cf          	fnmadd.q	ft5,fs3,ft8,fs9,rmm
    c202:	b4b0                	sb	a2,11(s1)
    c204:	fcbc                	fsw	fa5,120(s1)
    c206:	0000                	unimp
    c208:	b4b0                	sb	a2,11(s1)
    c20a:	c2cfc2cf          	fnmadd.d	ft5,ft11,fa2,fs8,rmm
    c20e:	b4b0                	sb	a2,11(s1)
    c210:	fcbc                	fsw	fa5,120(s1)
    c212:	0000                	unimp
    c214:	b4b0                	sb	a2,11(s1)
    c216:	f3d7c2cf          	fnmadd.d	ft5,fa5,ft9,ft10,rmm
    c21a:	b4b0                	sb	a2,11(s1)
    c21c:	fcbc                	fsw	fa5,120(s1)
    c21e:	0000                	unimp
    c220:	b4b0                	sb	a2,11(s1)
    c222:	d2d3c2cf          	fnmadd.d	ft5,ft7,fa3,fs10,rmm
    c226:	b4b0                	sb	a2,11(s1)
    c228:	fcbc                	fsw	fa5,120(s1)
    c22a:	0000                	unimp
    c22c:	b4b0                	sb	a2,11(s1)
    c22e:	b0c7c2cf          	fnmadd.s	ft5,fa5,fa2,fs6,rmm
    c232:	b4b0                	sb	a2,11(s1)
    c234:	fcbc                	fsw	fa5,120(s1)
    c236:	0000                	unimp
    c238:	b4b0                	sb	a2,11(s1)
    c23a:	f3bac2cf          	fnmadd.d	ft5,fs5,fs11,ft10,rmm
    c23e:	b4b0                	sb	a2,11(s1)
    c240:	fcbc                	fsw	fa5,120(s1)
    c242:	0000                	unimp
    c244:	6170                	flw	fa2,68(a0)
    c246:	2e306567          	0x2e306567
    c24a:	256e                	lhu	a1,14(a0)
    c24c:	2e64                	lbu	s1,30(a2)
    c24e:	6176                	flw	ft2,92(sp)
    c250:	3d6c                	lbu	a1,31(a0)
    c252:	6425                	lui	s0,0x9
    c254:	0000                	unimp
    c256:	0000                	unimp
    c258:	cdcba2b7          	lui	t0,0xcdcba
    c25c:	a8cd                	j	c34e <npio2_hw+0x76>
    c25e:	c0b5                	beqz	s1,c2c2 <strlen+0x80a>
    c260:	6e20                	flw	fs0,88(a2)
    c262:	6425                	lui	s0,0x9
    c264:	ca20                	sw	s0,80(a2)
    c266:	befd                	j	be64 <strlen+0x3ac>
    c268:	cadd                	beqz	a3,c31e <npio2_hw+0x46>
    c26a:	0adcb0a7          	fsd	fa3,161(s9)
    c26e:	0000                	unimp
    c270:	20646d63          	bltu	s0,t1,c48a <two_over_pi+0x132>
    c274:	7369                	lui	t1,0xffffa
    c276:	3020                	lbu	s0,3(s0)
    c278:	2578                	lbu	a4,14(a0)
    c27a:	3230                	lbu	a2,3(a2)
    c27c:	0d58                	addi	a4,sp,660
    c27e:	000a                	c.slli	zero,0x2
    c280:	0000                	unimp
    c282:	42c4                	lw	s1,4(a3)
    c284:	0000                	unimp
    c286:	43b4                	lw	a3,64(a5)
    c288:	74727173          	csrrci	sp,0x747,4
    c28c:	0066                	c.slli	zero,0x19
    c28e:	0000                	unimp
    c290:	0000                	unimp
    c292:	5440                	lw	s0,44(s0)
    c294:	3ff921fb          	0x3ff921fb
    c298:	6331                	lui	t1,0xc
    c29a:	1a62                	slli	s4,s4,0x38
    c29c:	b461                	j	bd24 <strlen+0x26c>
    c29e:	3dd0                	lbu	a2,29(a1)
    c2a0:	0000                	unimp
    c2a2:	1a60                	addi	s0,sp,316
    c2a4:	b461                	j	bd2c <strlen+0x274>
    c2a6:	3dd0                	lbu	a2,29(a1)
    c2a8:	2e037073          	csrci	0x2e0,6
    c2ac:	198a                	slli	s3,s3,0x22
    c2ae:	c8833ba3          	0xc8833ba3
    c2b2:	6dc9                	lui	s11,0x12
    c2b4:	5f30                	lw	a2,120(a4)
    c2b6:	3fe4                	lbu	s1,31(a5)
    c2b8:	0000                	unimp
    c2ba:	0000                	unimp
    c2bc:	0000                	unimp
    c2be:	3fe0                	lbu	s0,31(a5)
    c2c0:	0000                	unimp
    c2c2:	2e00                	lbu	s0,24(a2)
    c2c4:	198a                	slli	s3,s3,0x22
    c2c6:	49c13ba3          	0x49c13ba3
    c2ca:	2520                	lbu	s0,10(a0)
    c2cc:	839a                	mv	t2,t1
    c2ce:	0000397b          	0x397b
    c2d2:	0000                	unimp
    c2d4:	0000                	unimp
    c2d6:	4170                	lw	a2,68(a0)

0000c2d8 <npio2_hw>:
    c2d8:	21fb 3ff9 21fb 4009 d97c 4012 21fb 4019     .!.?.!.@|..@.!.@
    c2e8:	6a7a 401f d97c 4022 fdbb 4025 21fb 4029     zj.@|."@..%@.!)@
    c2f8:	463a 402c 6a7a 402f 475c 4031 d97c 4032     :F,@zj/@\G1@|.2@
    c308:	6b9c 4034 fdbb 4035 8fdb 4037 21fb 4039     .k4@..5@..7@.!9@
    c318:	b41b 403a 463a 403c d85a 403d 6a7a 403f     ..:@:F<@Z.=@zj?@
    c328:	7e4c 4040 475c 4041 106c 4042 d97c 4042     L~@@\GA@l.B@|.B@
    c338:	a28c 4043 6b9c 4044 34ac 4045 fdbb 4045     ..C@.kD@.4E@..E@
    c348:	c6cb 4046 8fdb 4047 58eb 4048 21fb 4049     ..F@..G@.XH@.!I@

0000c358 <two_over_pi>:
    c358:	f983 00a2 4e44 006e 29fc 0015 57d1 0027     ....DNn..)...W'.
    c368:	34dd 00f5 db62 00c0 993c 0095 9041 0043     .4..b...<...A.C.
    c378:	5163 00fe debb 00ab 61b7 00c5 6e3a 0024     cQ.......a..:n$.
    c388:	4dd2 0042 0649 00e0 ea09 002e 921c 00d1     .MB.I...........
    c398:	1deb 00fe b129 001c 3ee8 00a7 35f5 0082     ....)....>...5..
    c3a8:	bb44 002e e99c 0084 26b4 0070 7e41 005f     D........&p.A~_.
    c3b8:	91d6 0039 8353 0039 f49c 0039 5f8b 0084     ..9.S.9...9.._..
    c3c8:	f928 00bd 1ff8 003b ffde 0097 980f 0005     (.....;.........
    c3d8:	2f11 00ef 5a0a 008b 1f6d 006d 7ecf 0036     ./...Z..m.m..~6.
    c3e8:	cb09 0027 4f46 00b7 669e 003f ea2d 005f     ..'.FO...f?.-._.
    c3f8:	27ba 0075 ebe5 00c7 7b3d 00f1 39f7 0007     .'u.....={...9..
    c408:	5292 008a 6bfb 00ea b11f 005f 5d08 008d     .R...k...._..]..
    c418:	0330 0056 fc7b 0046 abf0 006b bc20 00cf     0.V.{.F...k. ...
    c428:	f436 009a a9e3 001d 615e 0091 1b08 00e6     6.......^a......
    c438:	9985 0065 14a0 005f 408d 0068 d880 00ff     ..e..._..@h.....
    c448:	7327 004d 0606 0031 56ca 0015 a8c9 0073     'sM...1..V....s.
    c458:	e27b 0060 8c6b 00c0 0fdb c049 0000 8000     {.`.k.....I.....
    c468:	cbe4 c016 0fdb 3f49 0fdb bf49 bd2e 33bb     ......I?..I....3
    c478:	0f80 3fc9 4443 3735 4400 3735 a308 2e85     ...?CD57.D57....
    c488:	f984 3f22 a300 2e85 3132 248d 0000 4380     .."?....21.$...C

0000c498 <npio2_hw>:
    c498:	0f00 3fc9 0f00 4049 cb00 4096 0f00 40c9     ...?..I@...@...@
    c4a8:	5300 40fb cb00 4116 ed00 412f 0f00 4149     .S.@...A../A..IA
    c4b8:	3100 4162 5300 417b 3a00 418a cb00 4196     .1bA.S{A.:.A...A
    c4c8:	5c00 41a3 ed00 41af 7e00 41bc 0f00 41c9     .\.A...A.~.A...A
    c4d8:	a000 41d5 3100 41e2 c200 41ee 5300 41fb     ...A.1.A...A.S.A
    c4e8:	f200 4203 3a00 420a 8300 4210 cb00 4216     ...B.:.B...B...B
    c4f8:	1400 421d 5c00 4223 a500 4229 ed00 422f     ...B.\#B..)B../B
    c508:	3600 4236 7e00 423c c700 4242 0f00 4249     .66B.~<B..BB..IB

0000c518 <two_over_pi>:
    c518:	00a2 0000 00f9 0000 0083 0000 006e 0000     ............n...
    c528:	004e 0000 0044 0000 0015 0000 0029 0000     N...D.......)...
    c538:	00fc 0000 0027 0000 0057 0000 00d1 0000     ....'...W.......
    c548:	00f5 0000 0034 0000 00dd 0000 00c0 0000     ....4...........
    c558:	00db 0000 0062 0000 0095 0000 0099 0000     ....b...........
    c568:	003c 0000 0043 0000 0090 0000 0041 0000     <...C.......A...
    c578:	00fe 0000 0051 0000 0063 0000 00ab 0000     ....Q...c.......
    c588:	00de 0000 00bb 0000 00c5 0000 0061 0000     ............a...
    c598:	00b7 0000 0024 0000 006e 0000 003a 0000     ....$...n...:...
    c5a8:	0042 0000 004d 0000 00d2 0000 00e0 0000     B...M...........
    c5b8:	0006 0000 0049 0000 002e 0000 00ea 0000     ....I...........
    c5c8:	0009 0000 00d1 0000 0092 0000 001c 0000     ................
    c5d8:	00fe 0000 001d 0000 00eb 0000 001c 0000     ................
    c5e8:	00b1 0000 0029 0000 00a7 0000 003e 0000     ....).......>...
    c5f8:	00e8 0000 0082 0000 0035 0000 00f5 0000     ........5.......
    c608:	002e 0000 00bb 0000 0044 0000 0084 0000     ........D.......
    c618:	00e9 0000 009c 0000 0070 0000 0026 0000     ........p...&...
    c628:	00b4 0000 005f 0000 007e 0000 0041 0000     ...._...~...A...
    c638:	0039 0000 0091 0000 00d6 0000 0039 0000     9...........9...
    c648:	0083 0000 0053 0000 0039 0000 00f4 0000     ....S...9.......
    c658:	009c 0000 0084 0000 005f 0000 008b 0000     ........_.......
    c668:	00bd 0000 00f9 0000 0028 0000 003b 0000     ........(...;...
    c678:	001f 0000 00f8 0000 0097 0000 00ff 0000     ................
    c688:	00de 0000 0005 0000 0098 0000 000f 0000     ................
    c698:	00ef 0000 002f 0000 0011 0000 008b 0000     ..../...........
    c6a8:	005a 0000 000a 0000 006d 0000 001f 0000     Z.......m.......
    c6b8:	006d 0000 0036 0000 007e 0000 00cf 0000     m...6...~.......
    c6c8:	0027 0000 00cb 0000 0009 0000 00b7 0000     '...............
    c6d8:	004f 0000 0046 0000 003f 0000 0066 0000     O...F...?...f...
    c6e8:	009e 0000 005f 0000 00ea 0000 002d 0000     ...._.......-...
    c6f8:	0075 0000 0027 0000 00ba 0000 00c7 0000     u...'...........
    c708:	00eb 0000 00e5 0000 00f1 0000 007b 0000     ............{...
    c718:	003d 0000 0007 0000 0039 0000 00f7 0000     =.......9.......
    c728:	008a 0000 0052 0000 0092 0000 00ea 0000     ....R...........
    c738:	006b 0000 00fb 0000 005f 0000 00b1 0000     k......._.......
    c748:	001f 0000 008d 0000 005d 0000 0008 0000     ........].......
    c758:	0056 0000 0003 0000 0030 0000 0046 0000     V.......0...F...
    c768:	00fc 0000 007b 0000 006b 0000 00ab 0000     ....{...k.......
    c778:	00f0 0000 00cf 0000 00bc 0000 0020 0000     ............ ...
    c788:	009a 0000 00f4 0000 0036 0000 001d 0000     ........6.......
    c798:	00a9 0000 00e3 0000 0091 0000 0061 0000     ............a...
    c7a8:	005e 0000 00e6 0000 001b 0000 0008 0000     ^...............
    c7b8:	0065 0000 0099 0000 0085 0000 005f 0000     e..........._...
    c7c8:	0014 0000 00a0 0000 0068 0000 0040 0000     ........h...@...
    c7d8:	008d 0000 00ff 0000 00d8 0000 0080 0000     ................
    c7e8:	004d 0000 0073 0000 0027 0000 0031 0000     M...s...'...1...
    c7f8:	0006 0000 0006 0000 0015 0000 0056 0000     ............V...
    c808:	00ca 0000 0073 0000 00a8 0000 00c9 0000     ....s...........
    c818:	0060 0000 00e2 0000 007b 0000 00c0 0000     `.......{.......
    c828:	008c 0000 006b 0000 0000 0000 0000 3fe7     ....k..........?
    c838:	0000 0000 0000 3fd2 0000 0000 0000 3ff0     .......?.......?
    c848:	38d4 be88 fae9 bda8 b1c4 bdb4 ee9e 3e21     .8............!>
    c858:	52ad 809c 7e4f 3e92 1590 19cb 01a0 3efa     .R..O~.>.......>
    c868:	5177 16c1 c16c 3f56 554c 5555 5555 3fa5     wQ..l.V?LUUUUU.?

0000c878 <PIo2>:
    c878:	0000 4000 21fb 3ff9 0000 0000 442d 3e74     ...@.!.?....-Dt>
    c888:	0000 8000 4698 3cf8 0000 6000 cc51 3b78     .....F.<...`Q.x;
    c898:	0000 8000 1b83 39f0 0000 4000 2520 387a     .......9...@ %z8
    c8a8:	0000 8000 8222 36e3 0000 0000 f31d 3569     ...."..6......i5
    c8b8:	0000 4000 21fb 3ff9 0000 0000 0000 3e70     ...@.!.?......p>
    c8c8:	0000 0000 0000 3fc0                         .......?

0000c8d0 <init_jk>:
    c8d0:	0002 0000 0003 0000 0004 0000 0006 0000     ................
    c8e0:	d57c 5acf d93a 3de5 9ceb 8a2b e5e6 3e5a     |..Z:..=..+...Z>
    c8f0:	fe7d 57b1 1de3 3ec7 61d5 19c1 01a0 3f2a     }..W...>.a....*?
    c900:	f8a6 1110 1111 3f81 5549 5555 5555 3fc5     .......?IUUUUU.?
    c910:	0000 3f38 0000 3e90 d74e ad47 74f6 310f     ..8?...>N.G..t.1
    c920:	f27c b493 0d01 37d0 0b61 bab6 aaab 3d2a     |......7a.....*=

0000c930 <PIo2>:
    c930:	0000 3fc9 0000 39f0 0000 37da 0000 33a2     ...?...9...7...3
    c940:	0000 2e84 0000 2b50 0000 27c2 0000 22d0     ......P+...'..."
    c950:	0000 1fc4 0000 1bc6 0000 1744 0000 3fc9     ..........D....?
    c960:	0000 3b80 0000 3e00                         ...;...>

0000c968 <init_jk>:
    c968:	0004 0000 0007 0000 0009 0000 c9d3 2f2e     .............../
    c978:	2f34 b2d7 ef1b 3638 0d01 b950 8889 3c08     4/....86..P....<
    c988:	aaab be2a aaab 3e2a 759c 8800 e43c 7e37     ..*...*>.u..<.7~
    c998:	0000 0000 0000 4350 f359 c2f8 6e1f 01a5     ......PCY....n..
    c9a8:	0000 0000 0000 3c90 f2ca 7149 0000 3fc0     .......<..Iq...?
    c9b8:	69d7 3c85 da59 3d4b 6b35 3d88 2e6e 3dba     .i.<Y.K=5k.=n..=
    c9c8:	4925 3e12 aaab 3eaa a221 bd15 f16b bd6e     %I.>...>!...k.n.
    c9d8:	8795 bd9d 8e38 bde3 cccd be4c               ....8.....L.

0000c9e4 <atanhi>:
    c9e4:	6338 3eed 0fda 3f49 985e 3f7b 0fda 3fc9     8c.>..I?^.{?...?

0000c9f4 <atanlo>:
    c9f4:	3769 31ac 2168 3322 0fb4 3314 2168 33a2     i7.1h!"3...3h!.3
    ca04:	0000 4c00 4260 0da2 0000 3300 6e28 6c75     ...L`B.....3(nul
    ca14:	296c 0000 ce78 ffff ce60 ffff cdec ffff     l)..x...`.......
    ca24:	ce5c ffff cdec ffff d16c ffff cdec ffff     \.......l.......
    ca34:	ce5c ffff ce52 ffff ce52 ffff d16c ffff     \...R...R...l...
    ca44:	ce5c ffff cdf4 ffff cdf4 ffff cdf4 ffff     \...............
    ca54:	cdb2 ffff d7e4 ffff d69e ffff d69e ffff     ................
    ca64:	d69c ffff d6a4 ffff d6a4 ffff dad0 ffff     ................
    ca74:	d69c ffff d6a4 ffff dad0 ffff d6a4 ffff     ................
    ca84:	d69c ffff d7d0 ffff d7d0 ffff d7d0 ffff     ................
    ca94:	d7c2 ffff                                   ....

0000ca98 <__clz_tab>:
    ca98:	0100 0202 0303 0303 0404 0404 0404 0404     ................
    caa8:	0505 0505 0505 0505 0505 0505 0505 0505     ................
    cab8:	0606 0606 0606 0606 0606 0606 0606 0606     ................
    cac8:	0606 0606 0606 0606 0606 0606 0606 0606     ................
    cad8:	0707 0707 0707 0707 0707 0707 0707 0707     ................
    cae8:	0707 0707 0707 0707 0707 0707 0707 0707     ................
    caf8:	0707 0707 0707 0707 0707 0707 0707 0707     ................
    cb08:	0707 0707 0707 0707 0707 0707 0707 0707     ................
    cb18:	0808 0808 0808 0808 0808 0808 0808 0808     ................
    cb28:	0808 0808 0808 0808 0808 0808 0808 0808     ................
    cb38:	0808 0808 0808 0808 0808 0808 0808 0808     ................
    cb48:	0808 0808 0808 0808 0808 0808 0808 0808     ................
    cb58:	0808 0808 0808 0808 0808 0808 0808 0808     ................
    cb68:	0808 0808 0808 0808 0808 0808 0808 0808     ................
    cb78:	0808 0808 0808 0808 0808 0808 0808 0808     ................
    cb88:	0808 0808 0808 0808 0808 0808 0808 0808     ................
